
 Start         Length     Name                   Class
 0000:0000000000000000 0000000000051D000H .text                  CODE
 0000:0000000000000000 0000000000053A3A8H .rodata                CONST
 0000:0000000000000000 00000000000032B04H .eh_frame_hdr          CONST
 0000:0000000000000000 000000000000C9154H .rodata                CONST
 0000:0000000000000000 00000000000061000H .data                  DATA
 0000:0000000000000000 000000000000C2828H .bss                   BSS


  Address         Publics by Value

 00000000:0000007100000030       _init
 00000000:0000007100000170       _fini
 00000000:00000071000001E0       __nnDetailNintendoSdkRuntimeObjectFileRefer
 00000000:00000071000001F0       nndetailRoGetRoDataStart
 00000000:0000007100000200       nndetailRoGetRoDataEnd
 00000000:0000007100000210       _ZN7android7IBinderC2Ev
 00000000:0000007100000230       _ZN7android7IBinderD2Ev
 00000000:0000007100000240       _ZN7android7IBinderD1Ev
 00000000:0000007100000250       _ZTv0_n24_N7android7IBinderD1Ev
 00000000:0000007100000260       _ZN7android7IBinderD0Ev
 00000000:0000007100000270       _ZTv0_n24_N7android7IBinderD0Ev
 00000000:0000007100000280       _ZN7android7IBinder19queryLocalInterfaceERKNS_8String16E
 00000000:0000007100000290       _ZN7android7IBinder11localBinderEv
 00000000:00000071000002A0       _ZN7android7IBinder12remoteBinderEv
 00000000:00000071000002B0       _ZNK7android7IBinder13checkSubclassEPKv
 00000000:00000071000002C0       _ZN7android7BBinderC2Ev
 00000000:00000071000002F0       _ZN7android7BBinderC1Ev
 00000000:0000007100000330       _ZNK7android7BBinder13isBinderAliveEv
 00000000:0000007100000340       _ZN7android7BBinder10pingBinderEv
 00000000:0000007100000350       _ZNK7android7BBinder22getInterfaceDescriptorEv
 00000000:00000071000003C0       _ZN7android7BBinder8transactEjRKNS_6ParcelEPS1_j
 00000000:0000007100000480       _ZN7android7BBinder15getNativeHandleEjRjRb
 00000000:0000007100000490       _ZN7android7BBinder11linkToDeathERKNS_2spINS_7IBinder14DeathRecipientEEEPvj
 00000000:00000071000004A0       _ZN7android7BBinder13unlinkToDeathERKNS_2wpINS_7IBinder14DeathRecipientEEEPvjPS4_
 00000000:00000071000004B0       _ZN7android7BBinder4dumpEiRKNS_6VectorINS_8String16EEE
 00000000:00000071000004C0       _ZN7android7BBinder12attachObjectEPKvPvS3_PFvS2_S3_S3_E
 00000000:00000071000005C0       _ZNK7android7BBinder10findObjectEPKv
 00000000:0000007100000620       _ZN7android7BBinder12detachObjectEPKv
 00000000:0000007100000670       _ZN7android7BBinder11localBinderEv
 00000000:0000007100000680       _ZN7android7BBinderD2Ev
 00000000:00000071000006E0       _ZN7android7BBinderD1Ev
 00000000:0000007100000740       _ZTv0_n24_N7android7BBinderD1Ev
 00000000:00000071000007B0       _ZN7android7BBinderD0Ev
 00000000:0000007100000820       _ZTv0_n24_N7android7BBinderD0Ev
 00000000:00000071000008A0       _ZN7android7BBinder10onTransactEjRKNS_6ParcelEPS1_j
 00000000:0000007100000A30       _ZN7android7BBinder17onGetNativeHandleEjRjRb
 00000000:0000007100000A40       _ZN7android9BpRefBaseC2ERKNS_2spINS_7IBinderEEE
 00000000:0000007100000AD0       _ZN7android9BpRefBaseC1ERKNS_2spINS_7IBinderEEE
 00000000:0000007100000B70       _ZN7android9BpRefBaseD2Ev
 00000000:0000007100000BE0       _ZN7android9BpRefBaseD1Ev
 00000000:0000007100000C50       _ZTv0_n24_N7android9BpRefBaseD1Ev
 00000000:0000007100000CD0       _ZN7android9BpRefBaseD0Ev
 00000000:0000007100000D50       _ZTv0_n24_N7android9BpRefBaseD0Ev
 00000000:0000007100000DD0       _ZN7android9BpRefBase10onFirstRefEv
 00000000:0000007100000DE0       _ZTv0_n32_N7android9BpRefBase10onFirstRefEv
 00000000:0000007100000E00       _ZN7android9BpRefBase15onLastStrongRefEPKv
 00000000:0000007100000E30       _ZTv0_n40_N7android9BpRefBase15onLastStrongRefEPKv
 00000000:0000007100000E60       _ZN7android9BpRefBase20onIncStrongAttemptedEjPKv
 00000000:0000007100000E80       _ZTv0_n48_N7android9BpRefBase20onIncStrongAttemptedEjPKv
 00000000:0000007100001600       _ZN7android8BpBinder8transactEjRKNS_6ParcelEPS1_j
 00000000:0000007100001680       _ZN7android8BpBinder15getNativeHandleEjRjRb
 00000000:00000071000016F0       _ZN7android8BpBinder11linkToDeathERKNS_2spINS_7IBinder14DeathRecipientEEEPvj
 00000000:0000007100001700       _ZN7android8BpBinder13unlinkToDeathERKNS_2wpINS_7IBinder14DeathRecipientEEEPvjPS4_
 00000000:00000071000018B0       nullsub_9
 00000000:0000007100001AC0       _ZN7android8BpBinder10onFirstRefEv
 00000000:0000007100001B00       _ZTv0_n32_N7android8BpBinder10onFirstRefEv
 00000000:0000007100001B40       _ZN7android8BpBinder15onLastStrongRefEPKv
 00000000:0000007100001B80       _ZTv0_n40_N7android8BpBinder15onLastStrongRefEPKv
 00000000:0000007100001BC0       _ZN7android8BpBinder20onIncStrongAttemptedEjPKv
 00000000:0000007100001C00       _ZTv0_n48_N7android8BpBinder20onIncStrongAttemptedEjPKv
 00000000:0000007100001CE0       nullsub_10
 00000000:0000007100001CF0       nullsub_11
 00000000:0000007100001FB0       _ZN7android10IInterfaceC2Ev
 00000000:0000007100001FD0       _ZN7android10IInterfaceD2Ev
 00000000:0000007100001FE0       _ZN7android10IInterfaceD1Ev
 00000000:0000007100001FF0       _ZTv0_n24_N7android10IInterfaceD1Ev
 00000000:0000007100002000       _ZN7android10IInterfaceD0Ev
 00000000:0000007100002010       _ZTv0_n24_N7android10IInterfaceD0Ev
 00000000:0000007100002020       _ZN7android10IInterface8asBinderEv
 00000000:0000007100002070       _ZNK7android10IInterface8asBinderEv
 00000000:00000071000020C0       _ZN7android10IInterface8asBinderEPKS0_
 00000000:0000007100002120       _ZN7android10IInterface8asBinderERKNS_2spIS0_EE
 00000000:00000071000021B0       _ZNK7android7IMemory11fastPointerERKNS_2spINS_7IBinderEEEl
 00000000:0000007100002220       _ZNK7android7IMemory7pointerEv
 00000000:00000071000022B0       _ZNK7android7IMemory4sizeEv
 00000000:0000007100002300       _ZN7android8BpMemoryC2ERKNS_2spINS_7IBinderEEE
 00000000:00000071000023A0       _ZN7android8BpMemoryC1ERKNS_2spINS_7IBinderEEE
 00000000:0000007100002990       _ZN7android7IMemory11asInterfaceERKNS_2spINS_7IBinderEEE
 00000000:0000007100002C60       _ZN7android8BnMemory10onTransactEjRKNS_6ParcelEPS1_j
 00000000:0000007100002D60       _ZThn8_N7android8BnMemory10onTransactEjRKNS_6ParcelEPS1_j
 00000000:0000007100002D70       _ZN7android12BpMemoryHeapC2ERKNS_2spINS_7IBinderEEE
 00000000:0000007100002E30       _ZN7android12BpMemoryHeapC1ERKNS_2spINS_7IBinderEEE
 00000000:00000071000034F0       _ZNK7android11IMemoryHeap22getInterfaceDescriptorEv
 00000000:00000071000035F0       _ZN7android11IMemoryHeap11asInterfaceERKNS_2spINS_7IBinderEEE
 00000000:0000007100003780       _ZN7android11IMemoryHeapC2Ev
 00000000:00000071000037C0       _ZN7android11IMemoryHeapD2Ev
 00000000:00000071000037D0       _ZN7android11IMemoryHeapD1Ev
 00000000:00000071000037E0       _ZTv0_n24_N7android11IMemoryHeapD1Ev
 00000000:00000071000037F0       _ZN7android11IMemoryHeapD0Ev
 00000000:0000007100003800       _ZTv0_n24_N7android11IMemoryHeapD0Ev
 00000000:0000007100003810       _ZN7android12BnMemoryHeapC2Ev
 00000000:0000007100003890       _ZN7android12BnMemoryHeapD2Ev
 00000000:00000071000038D0       _ZN7android12BnMemoryHeapD1Ev
 00000000:00000071000038E0       _ZThn8_N7android12BnMemoryHeapD1Ev
 00000000:00000071000038F0       _ZTv0_n24_N7android12BnMemoryHeapD1Ev
 00000000:0000007100003900       _ZN7android12BnMemoryHeapD0Ev
 00000000:0000007100003910       _ZThn8_N7android12BnMemoryHeapD0Ev
 00000000:0000007100003920       _ZTv0_n24_N7android12BnMemoryHeapD0Ev
 00000000:0000007100003930       _ZN7android12BnMemoryHeap10onTransactEjRKNS_6ParcelEPS1_j
 00000000:0000007100003A10       _ZThn8_N7android12BnMemoryHeap10onTransactEjRKNS_6ParcelEPS1_j
 00000000:0000007100003C20       _ZN7android9HeapCache10binderDiedERKNS_2wpINS_7IBinderEEE
 00000000:0000007100003C30       _ZN7android9HeapCache9free_heapERKNS_2wpINS_7IBinderEEE
 00000000:0000007100003D70       _ZN7android9HeapCache9find_heapERKNS_2spINS_7IBinderEEE
 00000000:0000007100004060       _ZN7android9HeapCache9free_heapERKNS_2spINS_7IBinderEEE
 00000000:00000071000040D0       _ZN7android9HeapCache8get_heapERKNS_2spINS_7IBinderEEE
 00000000:0000007100004DD0       _ZN7android15IServiceManager11asInterfaceERKNS_2spINS_7IBinderEEE
 00000000:0000007100004FE0       _ZN7android16BnServiceManager10onTransactEjRKNS_6ParcelEPS1_j
 00000000:0000007100005048       def_710000501C
 00000000:00000071000051D0       _ZThn8_N7android16BnServiceManager10onTransactEjRKNS_6ParcelEPS1_j
 00000000:00000071000058A0       _ZN7android10AllocationC2ERKNS_2spINS_12MemoryDealerEEERKNS1_INS_11IMemoryHeapEEElm
 00000000:0000007100005920       _ZN7android10AllocationC1ERKNS_2spINS_12MemoryDealerEEERKNS1_INS_11IMemoryHeapEEElm
 00000000:0000007100005C30       _ZN7android12MemoryDealerC2EmPKcj
 00000000:0000007100005D50       _ZN7android12MemoryDealerD2Ev
 00000000:0000007100005E00       _ZN7android12MemoryDealerD0Ev
 00000000:0000007100005E30       _ZN7android12MemoryDealer8allocateEm
 00000000:0000007100005F50       _ZNK7android12MemoryDealer9allocatorEv
 00000000:0000007100005F60       _ZNK7android12MemoryDealer4heapEv
 00000000:0000007100005F70       _ZN7android12MemoryDealer10deallocateEm
 00000000:0000007100006070       _ZNK7android12MemoryDealer4dumpEPKc
 00000000:0000007100006450       _ZN7android10MemoryBaseC2ERKNS_2spINS_11IMemoryHeapEEElm
 00000000:00000071000064F0       _ZN7android10MemoryBaseC1ERKNS_2spINS_11IMemoryHeapEEElm
 00000000:00000071000065D0       _ZN7android10MemoryBaseD2Ev
 00000000:00000071000067A0       _ZN7android10MemoryBaseD0Ev
 00000000:000000710000701C       def_7100006F30
 00000000:0000007100007160       def_7100007060
 00000000:0000007100007170       _ZN7android14flatten_binderERKNS_2spINS_12ProcessStateEEERKNS0_INS_7IBinderEEEPNS_6ParcelE
 00000000:0000007100007270       _ZN7android14flatten_binderERKNS_2spINS_12ProcessStateEEERKNS_2wpINS_7IBinderEEEPNS_6ParcelE
 00000000:00000071000073A0       _ZN7android16unflatten_binderERKNS_2spINS_12ProcessStateEEERKNS_6ParcelEPNS0_INS_7IBinderEEE
 00000000:00000071000075C0       _ZNK7android6Parcel10readObjectEb
 00000000:00000071000076A0       _ZN7android16unflatten_binderERKNS_2spINS_12ProcessStateEEERKNS_6ParcelEPNS_2wpINS_7IBinderEEE
 00000000:00000071000078A0       _ZN7android6ParcelC2Ev
 00000000:00000071000078D0       _ZN7android6Parcel9initStateEv
 00000000:0000007100007900       _ZN7android6ParcelD2Ev
 00000000:0000007100007910       _ZN7android6Parcel14freeDataNoInitEv
 00000000:00000071000079E0       _ZNK7android6Parcel4dataEv
 00000000:00000071000079F0       _ZNK7android6Parcel8dataSizeEv
 00000000:0000007100007A10       _ZNK7android6Parcel9dataAvailEv
 00000000:0000007100007A30       _ZNK7android6Parcel12dataPositionEv
 00000000:0000007100007A40       _ZNK7android6Parcel12dataCapacityEv
 00000000:0000007100007A50       _ZN7android6Parcel11setDataSizeEm
 00000000:0000007100007A90       _ZN7android6Parcel13continueWriteEm
 00000000:0000007100007DB0       _ZNK7android6Parcel15setDataPositionEm
 00000000:0000007100007DC0       _ZN7android6Parcel15setDataCapacityEm
 00000000:0000007100007DE0       _ZN7android6Parcel7setDataEPKhm
 00000000:0000007100007E40       _ZN7android6Parcel12restartWriteEm
 00000000:0000007100007FF0       _ZN7android6Parcel10appendFromEPKS0_mm
 00000000:0000007100008270       _ZN7android6Parcel8growDataEm
 00000000:00000071000082A0       _ZN7android6Parcel12pushAllowFdsEb
 00000000:00000071000082C0       _ZN7android6Parcel15restoreAllowFdsEb
 00000000:00000071000082D0       _ZNK7android6Parcel18hasFileDescriptorsEv
 00000000:0000007100008350       _ZNK7android6Parcel10scanForFdsEv
 00000000:00000071000083B0       _ZN7android6Parcel19writeInterfaceTokenERKNS_8String16E
 00000000:0000007100008460       _ZN7android6Parcel10writeInt32Ei
 00000000:0000007100008510       _ZN7android6Parcel13writeString16ERKNS_8String16E
 00000000:0000007100008530       _ZNK7android6Parcel14checkInterfaceEPNS_7IBinderE
 00000000:0000007100008570       _ZNK7android6Parcel16enforceInterfaceERKNS_8String16EPNS_14IPCThreadStateE
 00000000:0000007100008690       _ZNK7android6Parcel9readInt32Ev
 00000000:00000071000086C0       _ZNK7android6Parcel19readString16InplaceEPm
 00000000:0000007100008760       _ZNK7android6Parcel7objectsEv
 00000000:0000007100008770       _ZN7android6Parcel13foreachObjectEPFvP18flat_binder_objectPvES3_
 00000000:00000071000087D0       _ZNK7android6Parcel12objectsCountEv
 00000000:00000071000087E0       _ZNK7android6Parcel10errorCheckEv
 00000000:00000071000087F0       _ZN7android6Parcel8setErrorEi
 00000000:0000007100008800       _ZN7android6Parcel11finishWriteEm
 00000000:0000007100008830       _ZN7android6Parcel13writeUnpaddedEPKvm
 00000000:0000007100008920       _ZN7android6Parcel5writeEPKvm
 00000000:0000007100008A00       _ZN7android6Parcel12writeInplaceEm
 00000000:0000007100008AD0       _ZN7android6Parcel15writeInt32ArrayEmPKi
 00000000:0000007100008CA0       _ZN7android6Parcel14writeByteArrayEmPKh
 00000000:0000007100008EA0       _ZN7android6Parcel10writeInt64El
 00000000:0000007100008F50       _ZN7android6Parcel12writePointerEm
 00000000:0000007100009000       _ZN7android6Parcel10writeFloatEf
 00000000:00000071000090C0       _ZN7android6Parcel11writeDoubleEd
 00000000:0000007100009180       _ZN7android6Parcel12writeCStringEPKc
 00000000:0000007100009270       _ZN7android6Parcel12writeString8ERKNS_7String8E
 00000000:0000007100009430       _ZN7android6Parcel13writeString16EPKDsm
 00000000:00000071000095F0       _ZN7android6Parcel17writeStrongBinderERKNS_2spINS_7IBinderEEE
 00000000:0000007100009650       _ZN7android6Parcel15writeWeakBinderERKNS_2wpINS_7IBinderEEE
 00000000:00000071000096B0       _ZN7android6Parcel17writeNativeHandleEPK13native_handle
 00000000:00000071000098D0       _ZN7android6Parcel22writeDupFileDescriptorEi
 00000000:0000007100009950       _ZN7android6Parcel19writeFileDescriptorEib
 00000000:0000007100009990       _ZN7android6Parcel11writeObjectERK18flat_binder_objectb
 00000000:0000007100009B10       _ZN7android6Parcel25writeParcelFileDescriptorEii
 00000000:0000007100009D20       _ZN7android6Parcel9writeBlobEmPNS0_12WritableBlobE
 00000000:0000007100009FB0       _ZN7android6Parcel4Blob4initEbPvm
 00000000:0000007100009FC0       _ZN7android6Parcel5writeERKNS0_26FlattenableHelperInterfaceE
 00000000:000000710000A230       _ZN7android6Parcel16writeNoExceptionEv
 00000000:000000710000A2C0       _ZN7android6Parcel6removeEmm
 00000000:000000710000A2E0       _ZNK7android6Parcel4readEPvm
 00000000:000000710000A350       _ZNK7android6Parcel11readInplaceEm
 00000000:000000710000A390       _ZNK7android6Parcel9readInt32EPi
 00000000:000000710000A3D0       _ZNK7android6Parcel9readInt64EPl
 00000000:000000710000A410       _ZNK7android6Parcel9readInt64Ev
 00000000:000000710000A440       _ZNK7android6Parcel11readPointerEPm
 00000000:000000710000A480       _ZNK7android6Parcel11readPointerEv
 00000000:000000710000A4B0       _ZNK7android6Parcel9readFloatEPf
 00000000:000000710000A4F0       _ZNK7android6Parcel9readFloatEv
 00000000:000000710000A520       _ZNK7android6Parcel10readDoubleEPd
 00000000:000000710000A560       _ZNK7android6Parcel10readDoubleEv
 00000000:000000710000A590       _ZNK7android6Parcel10readIntPtrEPl
 00000000:000000710000A5D0       _ZNK7android6Parcel10readIntPtrEv
 00000000:000000710000A600       _ZNK7android6Parcel11readCStringEv
 00000000:000000710000A690       _ZNK7android6Parcel11readString8Ev
 00000000:000000710000A700       _ZNK7android6Parcel12readString16Ev
 00000000:000000710000A790       _ZNK7android6Parcel16readStrongBinderEv
 00000000:000000710000A7F0       _ZNK7android6Parcel14readWeakBinderEv
 00000000:000000710000A850       _ZNK7android6Parcel17readExceptionCodeEv
 00000000:000000710000A8C0       _ZNK7android6Parcel16readNativeHandleEv
 00000000:000000710000AAC0       _ZNK7android6Parcel18readFileDescriptorEv
 00000000:000000710000ABB0       _ZNK7android6Parcel24readParcelFileDescriptorERi
 00000000:000000710000AE00       _ZNK7android6Parcel8readBlobEmPNS0_12ReadableBlobE
 00000000:000000710000AFA0       _ZNK7android6Parcel4readERNS0_26FlattenableHelperInterfaceE
 00000000:000000710000B1E0       _ZN7android6Parcel20closeFileDescriptorsEv
 00000000:000000710000B240       _ZNK7android6Parcel7ipcDataEv
 00000000:000000710000B250       _ZNK7android6Parcel11ipcDataSizeEv
 00000000:000000710000B270       _ZNK7android6Parcel10ipcObjectsEv
 00000000:000000710000B280       _ZNK7android6Parcel15ipcObjectsCountEv
 00000000:000000710000B290       _ZN7android6Parcel19ipcSetDataReferenceEPKhmPKjmPFvPS0_S2_mS4_mPvES6_
 00000000:000000710000B380       _ZN7android6Parcel14releaseObjectsEv
 00000000:000000710000B410       _ZN7android6Parcel14acquireObjectsEv
 00000000:000000710000B550       _ZN7android6Parcel8freeDataEv
 00000000:000000710000B5A0       _ZN7android6Parcel4BlobC2Ev
 00000000:000000710000B5B0       _ZN7android6Parcel4BlobD1Ev
 00000000:000000710000B5F0       _ZN7android6Parcel4Blob7releaseEv
 00000000:000000710000B630       _ZN7android6Parcel4Blob5clearEv
 00000000:000000710000B640       _ZN7android12ProcessState4selfEv
 00000000:000000710000B790       _ZN7android12ProcessState16setContextObjectERKNS_2spINS_7IBinderEEE
 00000000:000000710000B7E0       _ZN7android12ProcessState16setContextObjectERKNS_2spINS_7IBinderEEERKNS_8String16E
 00000000:000000710000B8A0       _ZN7android12ProcessState16getContextObjectERKNS_2spINS_7IBinderEEE
 00000000:000000710000B9F0       _ZN7android12ProcessState16getContextObjectERKNS_8String16ERKNS_2spINS_7IBinderEEE
 00000000:000000710000BBC0       _ZN7android12ProcessState15startThreadPoolEv
 00000000:000000710000C940       nullsub_12
 00000000:000000710000C950       nullsub_13
 00000000:000000710000CBB0       j__ZN2nn2os5MutexD2Ev_0_0
 00000000:000000710000CC70       j__ZN7android10HeapObjectnwEm_0
 00000000:000000710000CC80       j__ZN7android10HeapObjectdlEPv_0
 00000000:000000710000CC90       j__ZN7android10HeapObjectnwEm_0_0
 00000000:000000710000CCA0       j__ZN7android10HeapObjectdlEPv_0_0
 00000000:000000710000CCB0       _ZN7android21defaultServiceManagerEv
 00000000:000000710000CD10       _ZN7android24defaultHOSServiceManagerEv
 00000000:000000710000D670       _ZN7android17HOSServiceManager15addServiceProxyERKNS_7String8EN2nn2sf13SharedPointerIN3nns9hosbinder16IHOSBinderDriverEEE
 00000000:000000710000D770       _ZN7android17HOSServiceManager18removeServiceProxyERKNS_7String8E
 00000000:000000710000DE00       nullsub_79
 00000000:000000710000DE10       _ZN7android14IPCThreadState4selfEv
 00000000:000000710000DF00       _ZN7android14IPCThreadState16threadDestructorEPv
 00000000:000000710000DF50       _ZN7android14IPCThreadState8shutdownEv
 00000000:000000710000E070       _ZN7android14IPCThreadState10selfOrNullEv
 00000000:000000710000E190       _ZN7android14IPCThreadState10freeBufferEPNS_6ParcelEPKhmPKjmPv
 00000000:000000710000E310       _ZN7android14IPCThreadState15getNativeHandleERNS_8BpBinderEjRjRb
 00000000:000000710000E580       _ZN7android14IPCThreadState22attemptIncStrongHandleEi
 00000000:000000710000E5D0       _ZN7android14IPCThreadStateC2Ev
 00000000:000000710000E610       _ZN7android14IPCThreadStateD2Ev
 00000000:000000710000FE70       ashmem_create_region
 00000000:000000710000FE80       ashmem_set_prot_region
 00000000:000000710000FE90       android_atomic_acquire_load
 00000000:000000710000FEA0       android_atomic_release_store
 00000000:000000710000FEB0       android_atomic_release_cas
 00000000:000000710000FEF0       android_atomic_add
 00000000:000000710000FF20       android_atomic_inc
 00000000:000000710000FF50       android_atomic_dec
 00000000:000000710000FF80       android_atomic_and
 00000000:000000710000FFB0       android_atomic_or
 00000000:000000710000FFE0       native_handle_create
 00000000:0000007100010020       native_handle_delete
 00000000:0000007100010050       native_handle_close
 00000000:0000007100010070       property_set
 00000000:0000007100010080       property_get
 00000000:0000007100010100       set_sched_policy
 00000000:0000007100010110       thread_store_get
 00000000:0000007100010140       thread_store_set
 00000000:00000071000101D0       _ZN7android22IGraphicBufferConsumer10BufferItemC2Ev
 00000000:0000007100010210       _ZNK7android22IGraphicBufferConsumer10BufferItem10getPodSizeEv
 00000000:0000007100010220       _ZNK7android22IGraphicBufferConsumer10BufferItem16getFlattenedSizeEv
 00000000:0000007100010280       _ZNK7android22IGraphicBufferConsumer10BufferItem10getFdCountEv
 00000000:00000071000102D0       _ZNK7android22IGraphicBufferConsumer10BufferItem7flattenERPvRmRPiS4_
 00000000:00000071000104F0       _ZN7android22IGraphicBufferConsumer10BufferItem9unflattenERPKvRmRPKiS5_
 00000000:0000007100010970       _ZN7android23BnGraphicBufferConsumer10onTransactEjRKNS_6ParcelEPS1_j
 00000000:0000007100010E9C       def_71000109B4
 00000000:0000007100010FA0       _ZThn8_N7android23BnGraphicBufferConsumer10onTransactEjRKNS_6ParcelEPS1_j
 00000000:0000007100010FB0       _ZN7android23BnGraphicBufferConsumer17onGetNativeHandleEjRjRb
 00000000:0000007100010FE0       _ZThn8_N7android23BnGraphicBufferConsumer17onGetNativeHandleEjRjRb
 00000000:00000071000129F0       _ZN7android18BnConsumerListener10onTransactEjRKNS_6ParcelEPS1_j
 00000000:0000007100012B00       _ZThn16_N7android18BnConsumerListener10onTransactEjRKNS_6ParcelEPS1_j
 00000000:0000007100012B30       nullsub_14
 00000000:0000007100013330       _ZN7android10BufferItemC2Ev
 00000000:0000007100013370       _ZN7android10BufferItemD1Ev
 00000000:00000071000133D0       _ZNK7android10BufferItemcvNS_22IGraphicBufferConsumer10BufferItemEEv
 00000000:00000071000134D0       _ZNK7android10BufferItem10getPodSizeEv
 00000000:00000071000134E0       _ZNK7android10BufferItem16getFlattenedSizeEv
 00000000:0000007100013530       _ZNK7android10BufferItem10getFdCountEv
 00000000:0000007100013580       _ZNK7android10BufferItem7flattenERPvRmRPiS3_
 00000000:0000007100013760       _ZN7android10BufferItem9unflattenERPKvRmRPKiS4_
 00000000:0000007100013970       _ZN7android10BufferItem15scalingModeNameEj
 00000000:00000071000139A0       _ZN7android18BufferItemConsumerC2ERKNS_2spINS_22IGraphicBufferConsumerEEEjib
 00000000:0000007100013A80       _ZN7android18BufferItemConsumerC1ERKNS_2spINS_22IGraphicBufferConsumerEEEjib
 00000000:0000007100013B90       _ZN7android18BufferItemConsumerD2Ev
 00000000:0000007100013BA0       _ZN7android18BufferItemConsumerD1Ev
 00000000:0000007100013C10       _ZN7android18BufferItemConsumerD0Ev
 00000000:0000007100013CA0       _ZN7android18BufferItemConsumer7setNameERKNS_7String8E
 00000000:0000007100013D00       _ZN7android18BufferItemConsumer13acquireBufferEPNS_22IGraphicBufferConsumer10BufferItemElb
 00000000:0000007100013DF0       _ZN7android18BufferItemConsumer13releaseBufferERKNS_22IGraphicBufferConsumer10BufferItemERKNS_2spINS_5FenceEEE
 00000000:0000007100013EE0       _ZN7android18BufferItemConsumer20setDefaultBufferSizeEjj
 00000000:0000007100013F40       _ZN7android18BufferItemConsumer22setDefaultBufferFormatEj
 00000000:0000007100013FA0       _ZN7android11BufferQueue21ProxyConsumerListenerC2ERKNS_2wpINS_16ConsumerListenerEEE
 00000000:0000007100014080       _ZN7android11BufferQueue21ProxyConsumerListenerC1ERKNS_2wpINS_16ConsumerListenerEEE
 00000000:00000071000145C0       _ZN7android11BufferQueue21ProxyConsumerListener16onFrameAvailableERKNS_10BufferItemE
 00000000:0000007100014750       _ZN7android11BufferQueue23createBufferQueueForAppEPNS_2spINS_22IGraphicBufferProducerEEEPNS1_INS_22IGraphicBufferConsumerEEERKNS1_INS_19IGraphicBufferAllocEEEi
 00000000:00000071000149C0       _ZN7android11BufferQueue17createBufferQueueEPNS_2spINS_22IGraphicBufferProducerEEEPNS1_INS_22IGraphicBufferConsumerEEERKNS1_INS_19IGraphicBufferAllocEEE
 00000000:0000007100015070       _ZN7android19BufferQueueConsumer13acquireBufferEPNS_22IGraphicBufferConsumer10BufferItemEl
 00000000:00000071000162E0       _ZN7android19BufferQueueConsumer28getFrameAvailableEventHandleERjRb
 00000000:00000071000167D0       _ZN7android15BufferQueueCoreC2ERKNS_2spINS_19IGraphicBufferAllocEEE
 00000000:0000007100016AB0       _ZN7android15BufferQueueCoreC1ERKNS_2spINS_19IGraphicBufferAllocEEE
 00000000:0000007100017510       _ZN7android15BufferQueueCore20freeAllBuffersLockedEv
 00000000:0000007100017830       _ZNK7android15BufferQueueCore13stillTrackingEPKNS_10BufferItemE
 00000000:0000007100019A3C       def_71000199EC
 00000000:000000710001A950       _ZN7android19BufferQueueProducer28getBufferReleasedEventHandleERjRb
 00000000:000000710001AE80       nullsub_15
 00000000:000000710001AE90       nullsub_16
 00000000:000000710001B210       _ZN7android12ConsumerBaseC2ERKNS_2spINS_22IGraphicBufferConsumerEEEb
 00000000:000000710001B570       _ZN7android12ConsumerBaseC1ERKNS_2spINS_22IGraphicBufferConsumerEEEb
 00000000:000000710001B8D0       _ZN7android12ConsumerBaseD2Ev
 00000000:000000710001B9F0       _ZN7android12ConsumerBaseD1Ev
 00000000:000000710001BA20       _ZTv0_n24_N7android12ConsumerBaseD1Ev
 00000000:000000710001BA60       _ZN7android12ConsumerBaseD0Ev
 00000000:000000710001BAA0       _ZTv0_n24_N7android12ConsumerBaseD0Ev
 00000000:000000710001BAE0       _ZN7android12ConsumerBase15onLastStrongRefEPKv
 00000000:000000710001BB40       _ZN7android12ConsumerBase7abandonEv
 00000000:000000710001BBA0       _ZTv0_n40_N7android12ConsumerBase15onLastStrongRefEPKv
 00000000:000000710001BC10       _ZN7android12ConsumerBase16freeBufferLockedEi
 00000000:000000710001BCC0       _ZN7android12ConsumerBase16onFrameAvailableERKNS_10BufferItemE
 00000000:000000710001BDD0       _ZN7android12ConsumerBase17onBuffersReleasedEv
 00000000:000000710001BF30       _ZN7android12ConsumerBase23onSidebandStreamChangedEv
 00000000:000000710001BF40       _ZN7android12ConsumerBase13abandonLockedEv
 00000000:000000710001BFC0       _ZN7android12ConsumerBase7setNameERKNS_7String8E
 00000000:000000710001C020       _ZN7android12ConsumerBase25setFrameAvailableListenerERKNS_2wpINS0_22FrameAvailableListenerEEE
 00000000:000000710001C0A0       _ZN7android12ConsumerBase26setBuffersReleasedListenerERKNS_2wpINS0_23BuffersReleasedListenerEEE
 00000000:000000710001C120       _ZNK7android12ConsumerBase4dumpERNS_7String8E
 00000000:000000710001C180       _ZNK7android12ConsumerBase4dumpERNS_7String8EPKc
 00000000:000000710001C1E0       _ZNK7android12ConsumerBase10dumpLockedERNS_7String8EPKc
 00000000:000000710001C250       _ZN7android12ConsumerBase19acquireBufferLockedEPNS_22IGraphicBufferConsumer10BufferItemEl
 00000000:000000710001C330       _ZN7android12ConsumerBase15addReleaseFenceEiNS_2spINS_13GraphicBufferEEERKNS1_INS_5FenceEEE
 00000000:000000710001C3C0       _ZN7android12ConsumerBase21addReleaseFenceLockedEiNS_2spINS_13GraphicBufferEEERKNS1_INS_5FenceEEE
 00000000:000000710001C5C0       _ZN7android12ConsumerBase13stillTrackingEiNS_2spINS_13GraphicBufferEEE
 00000000:000000710001C610       _ZN7android12ConsumerBase19releaseBufferLockedEiNS_2spINS_13GraphicBufferEEEPvS4_
 00000000:000000710001C750       _ZN7android18GraphicBufferAllocC2Ev
 00000000:000000710001C7E0       _ZN7android18GraphicBufferAllocC1Ev
 00000000:000000710001C840       _ZN7android18GraphicBufferAllocD2Ev
 00000000:000000710001C880       _ZN7android18GraphicBufferAllocD1Ev
 00000000:000000710001C8C0       _ZThn8_N7android18GraphicBufferAllocD1Ev
 00000000:000000710001C910       _ZTv0_n24_N7android18GraphicBufferAllocD1Ev
 00000000:000000710001C960       _ZN7android18GraphicBufferAllocD0Ev
 00000000:000000710001C9B0       _ZThn8_N7android18GraphicBufferAllocD0Ev
 00000000:000000710001CA00       _ZTv0_n24_N7android18GraphicBufferAllocD0Ev
 00000000:000000710001CA50       _ZN7android18GraphicBufferAlloc19createGraphicBufferEjjijPi
 00000000:000000710001CD80       _ZNK7android19IGraphicBufferAlloc22getInterfaceDescriptorEv
 00000000:000000710001CD90       _ZN7android19IGraphicBufferAlloc11asInterfaceERKNS_2spINS_7IBinderEEE
 00000000:000000710001CF10       _ZN7android19IGraphicBufferAllocC2Ev
 00000000:000000710001CF50       _ZN7android19IGraphicBufferAllocD2Ev
 00000000:000000710001CF60       _ZN7android19IGraphicBufferAllocD1Ev
 00000000:000000710001CF70       _ZTv0_n24_N7android19IGraphicBufferAllocD1Ev
 00000000:000000710001CF80       _ZN7android19IGraphicBufferAllocD0Ev
 00000000:000000710001CF90       _ZTv0_n24_N7android19IGraphicBufferAllocD0Ev
 00000000:000000710001CFA0       _ZN7android20BnGraphicBufferAlloc10onTransactEjRKNS_6ParcelEPS1_j
 00000000:000000710001D160       _ZThn8_N7android20BnGraphicBufferAlloc10onTransactEjRKNS_6ParcelEPS1_j
 00000000:000000710001D6B0       _ZN7android22IGraphicBufferProducer11asInterfaceERKNS_2spINS_7IBinderEEE
 00000000:000000710001D8C0       _ZN7android23BnGraphicBufferProducer10onTransactEjRKNS_6ParcelEPS1_j
 00000000:000000710001E1A8       def_710001D904
 00000000:000000710001E420       _ZThn8_N7android23BnGraphicBufferProducer10onTransactEjRKNS_6ParcelEPS1_j
 00000000:000000710001E430       _ZN7android23BnGraphicBufferProducer17onGetNativeHandleEjRjRb
 00000000:000000710001E460       _ZThn8_N7android23BnGraphicBufferProducer17onGetNativeHandleEjRjRb
 00000000:000000710001FBA0       _ZN7android18BnProducerListener10onTransactEjRKNS_6ParcelEPS1_j
 00000000:000000710001FC10       _ZThn16_N7android18BnProducerListener10onTransactEjRKNS_6ParcelEPS1_j
 00000000:0000007100020040       _ZNK7android16ISurfaceComposer22getInterfaceDescriptorEv
 00000000:0000007100020050       _ZN7android16ISurfaceComposer11asInterfaceERKNS_2spINS_7IBinderEEE
 00000000:00000071000201D0       _ZN7android16ISurfaceComposerC2Ev
 00000000:0000007100020210       _ZN7android16ISurfaceComposerD2Ev
 00000000:0000007100020220       _ZN7android16ISurfaceComposerD1Ev
 00000000:0000007100020230       _ZTv0_n24_N7android16ISurfaceComposerD1Ev
 00000000:0000007100020240       _ZN7android16ISurfaceComposerD0Ev
 00000000:0000007100020250       _ZTv0_n24_N7android16ISurfaceComposerD0Ev
 00000000:0000007100020260       _ZN7android17BnSurfaceComposer10onTransactEjRKNS_6ParcelEPS1_j
 00000000:0000007100020694       def_71000202A8
 00000000:00000071000211A0       _ZThn8_N7android17BnSurfaceComposer10onTransactEjRKNS_6ParcelEPS1_j
 00000000:0000007100022DB0       nullsub_17
 00000000:0000007100022DC0       nullsub_18
 00000000:00000071000237A0       nullsub_19
 00000000:00000071000237B0       nullsub_20
 00000000:0000007100023B00       _ZNK7android22ISurfaceComposerClient22getInterfaceDescriptorEv
 00000000:0000007100023B10       _ZN7android22ISurfaceComposerClient11asInterfaceERKNS_2spINS_7IBinderEEE
 00000000:0000007100023C90       _ZN7android22ISurfaceComposerClientC2Ev
 00000000:0000007100023CD0       _ZN7android22ISurfaceComposerClientD2Ev
 00000000:0000007100023CE0       _ZN7android22ISurfaceComposerClientD1Ev
 00000000:0000007100023CF0       _ZTv0_n24_N7android22ISurfaceComposerClientD1Ev
 00000000:0000007100023D00       _ZN7android22ISurfaceComposerClientD0Ev
 00000000:0000007100023D10       _ZTv0_n24_N7android22ISurfaceComposerClientD0Ev
 00000000:0000007100023D20       _ZN7android23BnSurfaceComposerClient10onTransactEjRKNS_6ParcelEPS1_j
 00000000:0000007100023F34       def_7100023D64
 00000000:0000007100024480       _ZThn8_N7android23BnSurfaceComposerClient10onTransactEjRKNS_6ParcelEPS1_j
 00000000:0000007100024490       _ZN7android23BnSurfaceComposerClient17onGetNativeHandleEjRjRb
 00000000:00000071000244F0       _ZThn8_N7android23BnSurfaceComposerClient17onGetNativeHandleEjRjRb
 00000000:0000007100025F70       _ZN7android14StreamSplitter16onFrameAvailableERKNS_10BufferItemE
 00000000:00000071000264C0       _ZN7android7SurfaceC1ERKNS_2spINS_22IGraphicBufferProducerEEEb
 00000000:0000007100026E20       _ZNK7android7Surface25getIGraphicBufferProducerEv
 00000000:0000007100026E50       _ZN7android7Surface20getQueuedFrameNumberERm
 00000000:0000007100027464       def_7100027458
 00000000:000000710002786C       def_71000275B4
 00000000:0000007100028C90       _ZN7android14SurfaceControlD1Ev
 00000000:0000007100028D30       _ZN7android14SurfaceControl7destroyEv
 00000000:0000007100028DD0       _ZN7android14SurfaceControlD0Ev
 00000000:0000007100028E00       _ZN7android14SurfaceControl5clearEv
 00000000:0000007100028E10       _ZN7android14SurfaceControl13isSameSurfaceERKNS_2spIS0_EES4_
 00000000:0000007100028E50       _ZN7android14SurfaceControl13setLayerStackEi
 00000000:0000007100028E80       _ZNK7android14SurfaceControl8validateEv
 00000000:0000007100028EA0       _ZN7android14SurfaceControl17setLayerStackMaskEi
 00000000:0000007100028ED0       _ZN7android14SurfaceControl8setLayerEi
 00000000:0000007100028F00       _ZN7android14SurfaceControl11setPositionEff
 00000000:0000007100028F30       _ZN7android14SurfaceControl7setSizeEjj
 00000000:0000007100028F70       _ZN7android14SurfaceControl4hideEv
 00000000:0000007100028FA0       _ZN7android14SurfaceControl4showEv
 00000000:0000007100028FD0       _ZN7android14SurfaceControl8setFlagsEjj
 00000000:0000007100029010       _ZN7android14SurfaceControl24setTransparentRegionHintERKNS_6RegionE
 00000000:0000007100029040       _ZN7android14SurfaceControl8setAlphaEf
 00000000:0000007100029070       _ZN7android14SurfaceControl9setMatrixEffff
 00000000:00000071000290A0       _ZN7android14SurfaceControl7setCropERKNS_4RectE
 00000000:00000071000290D0       _ZNK7android14SurfaceControl20clearLayerFrameStatsEv
 00000000:0000007100029100       _ZNK7android14SurfaceControl18getLayerFrameStatsEPNS_10FrameStatsE
 00000000:0000007100029130       _ZN7android14SurfaceControl20writeSurfaceToParcelERKNS_2spIS0_EEPNS_6ParcelE
 00000000:0000007100029200       _ZNK7android14SurfaceControl10getSurfaceEv
 00000000:00000071000292B0       _ZN7android14SurfaceControl10getSurfaceENS_2spINS_22IGraphicBufferProducerEEE
 00000000:0000007100029310       _ZNK7android14SurfaceControl13getLayerStateERNS_13layer_state_tE
 00000000:0000007100029540       _ZN7android21SurfaceComposerClient15releaseInstanceEv_0
 00000000:00000071000295E0       j__ZN2nn2os5MutexD2Ev_0_1
 00000000:0000007100029960       _ZN7android8Composer17getDisplaySurfaceERKNS_2spINS_7IBinderEEERNS1_INS_22IGraphicBufferProducerEEERNS1_INS_22IGraphicBufferConsumerEEE
 00000000:0000007100029D60       _ZN7android8Composer27setAnimationTransactionImplEv
 00000000:0000007100029D90       _ZN7android8Composer19getLayerStateLockedERKNS_2spINS_21SurfaceComposerClientEEERKNS1_INS_7IBinderEEE
 00000000:0000007100029F20       _ZN7android8Composer11setPositionERKNS_2spINS_21SurfaceComposerClientEEERKNS1_INS_7IBinderEEEff
 00000000:0000007100029F90       _ZN7android8Composer7setSizeERKNS_2spINS_21SurfaceComposerClientEEERKNS1_INS_7IBinderEEEjj
 00000000:000000710002A010       _ZN7android8Composer8setLayerERKNS_2spINS_21SurfaceComposerClientEEERKNS1_INS_7IBinderEEEi
 00000000:000000710002A070       _ZN7android8Composer8setFlagsERKNS_2spINS_21SurfaceComposerClientEEERKNS1_INS_7IBinderEEEjj
 00000000:000000710002A130       _ZN7android8Composer24setTransparentRegionHintERKNS_2spINS_21SurfaceComposerClientEEERKNS1_INS_7IBinderEEERKNS_6RegionE
 00000000:000000710002A1A0       _ZN7android8Composer8setAlphaERKNS_2spINS_21SurfaceComposerClientEEERKNS1_INS_7IBinderEEEf
 00000000:000000710002A210       _ZN7android8Composer13setLayerStackERKNS_2spINS_21SurfaceComposerClientEEERKNS1_INS_7IBinderEEEj
 00000000:000000710002A290       _ZN7android8Composer17setLayerStackMaskERKNS_2spINS_21SurfaceComposerClientEEERKNS1_INS_7IBinderEEEj
 00000000:000000710002A2F0       _ZN7android8Composer9setMatrixERKNS_2spINS_21SurfaceComposerClientEEERKNS1_INS_7IBinderEEEffff
 00000000:000000710002A380       _ZN7android8Composer7setCropERKNS_2spINS_21SurfaceComposerClientEEERKNS1_INS_7IBinderEEERKNS_4RectE
 00000000:000000710002A4F0       _ZN7android21SurfaceComposerClientC2Ev
 00000000:000000710002A550       _ZN7android21SurfaceComposerClient10onFirstRefEv
 00000000:000000710002A690       _ZN7android21SurfaceComposerClient14setClientARUIDERKN2nn6applet20AppletResourceUserIdE
 00000000:000000710002A6B0       _ZN7android21SurfaceComposerClientD1Ev
 00000000:000000710002A710       _ZN7android21SurfaceComposerClient7disposeEv
 00000000:000000710002A7E0       _ZN7android21SurfaceComposerClientD0Ev
 00000000:000000710002A840       _ZNK7android21SurfaceComposerClient9initCheckEv
 00000000:000000710002A850       _ZNK7android21SurfaceComposerClient10connectionEv
 00000000:000000710002A870       _ZN7android21SurfaceComposerClient19linkToComposerDeathERKNS_2spINS_7IBinder14DeathRecipientEEEPvj
 00000000:000000710002A970       _ZN7android21SurfaceComposerClient13createSurfaceERKNS_7String8Ejjij
 00000000:000000710002A9D0       _ZN7android21SurfaceComposerClient13createSurfaceERKNS_7String8EjjijRNS_2spINS_7IBinderEEERNS4_INS_22IGraphicBufferProducerEEE
 00000000:000000710002AAE0       _ZN7android21SurfaceComposerClient15setSurfaceARUIDERKNS_2spINS_7IBinderEEERKN2nn6applet20AppletResourceUserIdE
 00000000:000000710002AB00       _ZN7android21SurfaceComposerClient21getHotplugEventHandleERjRb
 00000000:000000710002AB20       _ZN7android21SurfaceComposerClient19getVsyncEventHandleERjRb
 00000000:000000710002AB40       _ZN7android21SurfaceComposerClient19getErrorEventHandleERjRb
 00000000:000000710002AB60       _ZN7android21SurfaceComposerClient17setConductorLayerERKNS_2spINS_7IBinderEEEb
 00000000:000000710002AB80       _ZN7android21SurfaceComposerClient15getClientLayersERKN2nn6applet20AppletResourceUserIdERNS_6VectorINS_2spINS_14SurfaceControlEEEEE
 00000000:000000710002AD10       _ZN7android21SurfaceComposerClient13getLayerStateERKNS_2spINS_7IBinderEEERNS_13layer_state_tE
 00000000:000000710002AD30       _ZN7android21SurfaceComposerClient12getErrorTextEiRNS_7String8E
 00000000:000000710002AD50       _ZN7android21SurfaceComposerClient13createDisplayERKNS_7String8Eb
 00000000:000000710002AD90       _ZN7android21SurfaceComposerClient17getDisplaySurfaceERKNS_2spINS_7IBinderEEERNS1_INS_22IGraphicBufferProducerEEERNS1_INS_22IGraphicBufferConsumerEEE
 00000000:000000710002ADD0       _ZN7android21SurfaceComposerClient14destroyDisplayERKNS_2spINS_7IBinderEEE
 00000000:000000710002AE00       _ZN7android21SurfaceComposerClient17getBuiltInDisplayEi
 00000000:000000710002AE30       _ZN7android21SurfaceComposerClient14destroySurfaceERKNS_2spINS_7IBinderEEE
 00000000:000000710002AE50       _ZNK7android21SurfaceComposerClient20clearLayerFrameStatsERKNS_2spINS_7IBinderEEE
 00000000:000000710002AE70       _ZNK7android21SurfaceComposerClient18getLayerFrameStatsERKNS_2spINS_7IBinderEEEPNS_10FrameStatsE
 00000000:000000710002AE90       _ZN7android21SurfaceComposerClient21openGlobalTransactionEv
 00000000:000000710002AED0       _ZN7android21SurfaceComposerClient22closeGlobalTransactionEb
 00000000:000000710002AF00       _ZN7android21SurfaceComposerClient23setAnimationTransactionEv
 00000000:000000710002AF30       _ZN7android21SurfaceComposerClient7setCropERKNS_2spINS_7IBinderEEERKNS_4RectE
 00000000:000000710002AFC0       _ZN7android21SurfaceComposerClient11setPositionERKNS_2spINS_7IBinderEEEff
 00000000:000000710002B050       _ZN7android21SurfaceComposerClient7setSizeERKNS_2spINS_7IBinderEEEjj
 00000000:000000710002B0F0       _ZN7android21SurfaceComposerClient8setLayerERKNS_2spINS_7IBinderEEEi
 00000000:000000710002B170       _ZN7android21SurfaceComposerClient4hideERKNS_2spINS_7IBinderEEE
 00000000:000000710002B200       _ZN7android21SurfaceComposerClient4showERKNS_2spINS_7IBinderEEE
 00000000:000000710002B290       _ZN7android21SurfaceComposerClient8setFlagsERKNS_2spINS_7IBinderEEEjj
 00000000:000000710002B370       _ZN7android21SurfaceComposerClient24setTransparentRegionHintERKNS_2spINS_7IBinderEEERKNS_6RegionE
 00000000:000000710002B400       _ZN7android21SurfaceComposerClient8setAlphaERKNS_2spINS_7IBinderEEEf
 00000000:000000710002B480       _ZN7android21SurfaceComposerClient13setLayerStackERKNS_2spINS_7IBinderEEEj
 00000000:000000710002B530       _ZN7android21SurfaceComposerClient17setLayerStackMaskERKNS_2spINS_7IBinderEEEj
 00000000:000000710002B5B0       _ZN7android21SurfaceComposerClient9setMatrixERKNS_2spINS_7IBinderEEEffff
 00000000:000000710002B650       _ZN7android21SurfaceComposerClient17setDisplaySurfaceERKNS_2spINS_7IBinderEEERKNS1_INS_22IGraphicBufferProducerEEE
 00000000:000000710002B6F0       _ZN7android21SurfaceComposerClient20setDisplayLayerStackERKNS_2spINS_7IBinderEEEj
 00000000:000000710002B750       _ZN7android21SurfaceComposerClient20setDisplayProjectionERKNS_2spINS_7IBinderEEEjRKNS_4RectES8_
 00000000:000000710002B7E0       _ZN7android21SurfaceComposerClient14setDisplaySizeERKNS_2spINS_7IBinderEEEjj
 00000000:000000710002B840       _ZN7android21SurfaceComposerClient17getDisplayConfigsERKNS_2spINS_7IBinderEEEPNS_6VectorINS_11DisplayInfoEEE
 00000000:000000710002B900       _ZN7android21SurfaceComposerClient14getDisplayInfoERKNS_2spINS_7IBinderEEEPNS_11DisplayInfoE
 00000000:000000710002B9C0       _ZN7android21SurfaceComposerClient15getActiveConfigERKNS_2spINS_7IBinderEEE
 00000000:000000710002BA70       _ZN7android21SurfaceComposerClient15setActiveConfigERKNS_2spINS_7IBinderEEEi
 00000000:000000710002BB30       _ZN7android21SurfaceComposerClient19setDisplayPowerModeERKNS_2spINS_7IBinderEEEi
 00000000:000000710002BBF0       _ZN7android21SurfaceComposerClient7getEDIDERKNS_2spINS_7IBinderEEERNS_11DisplayEDIDE
 00000000:000000710002BCB0       _ZN7android21SurfaceComposerClient9enableVRRERKNS_2spINS_7IBinderEEEb
 00000000:000000710002BD70       _ZN7android21SurfaceComposerClient6setCMUERKNS_2spINS_7IBinderEEEif
 00000000:000000710002BE40       _ZN7android21SurfaceComposerClient6getCMUERKNS_2spINS_7IBinderEEERiRf
 00000000:000000710002BF10       _ZN7android21SurfaceComposerClient13setBrightnessERKNS_2spINS_7IBinderEEEf
 00000000:000000710002BFE0       _ZN7android21SurfaceComposerClient13getBrightnessERKNS_2spINS_7IBinderEEERf
 00000000:000000710002C0A0       _ZN7android21SurfaceComposerClient11setRGBRangeERKNS_2spINS_7IBinderEEEi
 00000000:000000710002C160       _ZN7android21SurfaceComposerClient11getRGBRangeERKNS_2spINS_7IBinderEEERi
 00000000:000000710002C220       _ZN7android21SurfaceComposerClient14setContentTypeERKNS_2spINS_7IBinderEEEi
 00000000:000000710002C2E0       _ZN7android21SurfaceComposerClient14getContentTypeERKNS_2spINS_7IBinderEEERi
 00000000:000000710002C3A0       _ZN7android21SurfaceComposerClient12setUnderscanERKNS_2spINS_7IBinderEEEi
 00000000:000000710002C460       _ZN7android21SurfaceComposerClient12getUnderscanERKNS_2spINS_7IBinderEEERi
 00000000:000000710002C520       _ZN7android21SurfaceComposerClient24clearAnimationFrameStatsEv
 00000000:000000710002C5D0       _ZN7android21SurfaceComposerClient22getAnimationFrameStatsEPNS_10FrameStatsE
 00000000:000000710002C680       _ZN7android21SurfaceComposerClient15releaseInstanceEv
 00000000:000000710002CF30       __android_log_write
 00000000:000000710002CFB0       __android_log_print
 00000000:000000710002D090       __android_log_assert
 00000000:000000710002D1B0       sync_wait
 00000000:000000710002D3D0       sync_get_nvrm_mapping
 00000000:000000710002D450       sync_merge
 00000000:000000710002D860       sync_fence_info
 00000000:000000710002D870       sync_fence_info_free
 00000000:000000710002D880       sync_pt_info
 00000000:000000710002D890       sync_close
 00000000:000000710002D970       sync_dup
 00000000:000000710002D980       sync_create_nvrm_mapping
 00000000:000000710002DBC0       sync_print
 00000000:000000710002DCE0       sync_usage
 00000000:000000710002DD40       _ZN7android11DisplayEDIDC2Ev
 00000000:000000710002DD50       _ZN7android11DisplayEDIDD2Ev
 00000000:000000710002DD80       _ZN7android11DisplayEDID5clearEv
 00000000:000000710002DDB0       _ZN7android11DisplayEDID7setDataEPKvm
 00000000:000000710002DE20       _ZNK7android11DisplayEDID7getDataEv
 00000000:000000710002DE30       _ZNK7android11DisplayEDID7getSizeEv
 00000000:000000710002DE90       _ZN7android5FenceC2Ev
 00000000:000000710002DEA0       _ZN7android5FenceC2Ei
 00000000:000000710002DEB0       _ZN7android5FenceD2Ev
 00000000:000000710002DEC0       _ZN7android5Fence4waitEj
 00000000:000000710002DEE0       _ZN7android5Fence11waitForeverEPKc
 00000000:000000710002DF40       _ZN7android5Fence5mergeERKNS_7String8ERKNS_2spIS0_EES7_
 00000000:000000710002DFF0       _ZNK7android5Fence3dupEv
 00000000:000000710002E010       _ZNK7android5Fence13getSignalTimeEv
 00000000:000000710002E0D0       _ZNK7android5Fence16getFlattenedSizeEv
 00000000:000000710002E0E0       _ZNK7android5Fence10getFdCountEv
 00000000:000000710002E0F0       _ZNK7android5Fence7flattenERPvRmRPiS3_
 00000000:000000710002E1E0       _ZN7android5Fence9unflattenERPKvRmRPKiS4_
 00000000:000000710002E420       _ZNK7android10FrameStats11isFixedSizeEv
 00000000:000000710002E430       _ZNK7android10FrameStats16getFlattenedSizeEv
 00000000:000000710002E450       _ZNK7android10FrameStats7flattenEPvm
 00000000:000000710002E500       _ZN7android10FrameStats9unflattenEPKvm
 00000000:000000710002E5E0       _ZN7android13GraphicBufferC2Ev
 00000000:000000710002E6E0       _ZN7android13GraphicBufferC2Ejjij
 00000000:000000710002E820       _ZN7android13GraphicBuffer8initSizeEjjij
 00000000:000000710002E8F0       _ZN7android13GraphicBufferC2EjjijjP13native_handleb
 00000000:000000710002EA30       _ZN7android13GraphicBufferC2EP19ANativeWindowBufferb
 00000000:000000710002EB70       _ZN7android13GraphicBufferD2Ev
 00000000:000000710002EBC0       _ZN7android13GraphicBuffer11free_handleEv
 00000000:000000710002ECA0       _ZN7android13GraphicBufferD0Ev
 00000000:000000710002ED00       _ZNK7android13GraphicBuffer9initCheckEv
 00000000:000000710002ED10       _ZN7android13GraphicBuffer26dumpAllocationsToSystemLogEv
 00000000:000000710002ED20       _ZNK7android13GraphicBuffer15getNativeBufferEv
 00000000:000000710002ED70       _ZN7android13GraphicBuffer10reallocateEjjij
 00000000:000000710002EEA0       _ZN7android13GraphicBuffer4lockEjPPv
 00000000:000000710002EEF0       _ZN7android13GraphicBuffer4lockEjRKNS_4RectEPPv
 00000000:000000710002EF50       _ZN7android13GraphicBuffer9lockYCbCrEjP13android_ycbcr
 00000000:000000710002EFA0       _ZN7android13GraphicBuffer9lockYCbCrEjRKNS_4RectEP13android_ycbcr
 00000000:000000710002F000       _ZN7android13GraphicBuffer6unlockEv
 00000000:000000710002F010       _ZN7android13GraphicBuffer9lockAsyncEjPPvi
 00000000:000000710002F060       _ZN7android13GraphicBuffer9lockAsyncEjRKNS_4RectEPPvi
 00000000:000000710002F0D0       _ZN7android13GraphicBuffer14lockAsyncYCbCrEjP13android_ycbcri
 00000000:000000710002F120       _ZN7android13GraphicBuffer14lockAsyncYCbCrEjRKNS_4RectEP13android_ycbcri
 00000000:000000710002F190       _ZN7android13GraphicBuffer11unlockAsyncEPi
 00000000:000000710002F1B0       _ZNK7android13GraphicBuffer16getFlattenedSizeEv
 00000000:000000710002F1D0       _ZNK7android13GraphicBuffer10getFdCountEv
 00000000:000000710002F1F0       _ZNK7android13GraphicBuffer7flattenERPvRmRPiS3_
 00000000:000000710002F380       _ZN7android13GraphicBuffer9unflattenERPKvRmRPKiS4_
 00000000:000000710002F650       j__ZN2nn2os5MutexD2Ev_0_2
 00000000:000000710002F6A0       _ZN7android22GraphicBufferAllocatorC2Ev
 00000000:000000710002F6D0       _ZN7android22GraphicBufferAllocatorD2Ev
 00000000:000000710002F6E0       _ZNK7android22GraphicBufferAllocator4dumpERNS_7String8E
 00000000:000000710002F890       _ZN7android22GraphicBufferAllocator15dumpToSystemLogEv
 00000000:000000710002F940       _ZN7android22GraphicBufferAllocator5allocEjjiiPPK13native_handlePi
 00000000:000000710002FA30       _ZN7android22GraphicBufferAllocator4freeEPK13native_handle
 00000000:000000710002FB30       nullsub_21
 00000000:000000710002FB40       nullsub_22
 00000000:000000710002FE80       _ZN7android19GraphicBufferMapperC2Ev
 00000000:000000710002FE90       _ZN7android19GraphicBufferMapper14registerBufferEPK13native_handle
 00000000:000000710002FEE0       _ZN7android19GraphicBufferMapper16unregisterBufferEPK13native_handle
 00000000:000000710002FF30       _ZN7android19GraphicBufferMapper4lockEPK13native_handleiRKNS_4RectEPPv
 00000000:000000710002FFA0       _ZN7android19GraphicBufferMapper9lockYCbCrEPK13native_handleiRKNS_4RectEP13android_ycbcr
 00000000:0000007100030020       _ZN7android19GraphicBufferMapper6unlockEPK13native_handle
 00000000:0000007100030070       _ZN7android19GraphicBufferMapper9lockAsyncEPK13native_handleiRKNS_4RectEPPvi
 00000000:0000007100030140       _ZN7android19GraphicBufferMapper14lockAsyncYCbCrEPK13native_handleiRKNS_4RectEP13android_ycbcri
 00000000:0000007100030220       _ZN7android19GraphicBufferMapper11unlockAsyncEPK13native_handlePi
 00000000:0000007100030290       _ZN7android19GraphicBufferMapper10copyBufferEPK13native_handleS3_Pi
 00000000:0000007100030300       _ZN7android19GraphicBufferMapper10apiVersionEv
 00000000:0000007100030310       _ZN7android13bytesPerPixelEi
 00000000:0000007100030340       _ZN7android4Rect11makeInvalidEv
 00000000:0000007100030350       _ZNK7android4RectltERKS0_
 00000000:00000071000303D0       _ZN7android4Rect8offsetToEii
 00000000:0000007100030400       _ZN7android4Rect8offsetByEii
 00000000:0000007100030430       _ZNK7android4RectplERKNS_5PointE
 00000000:0000007100030460       _ZNK7android4RectmiERKNS_5PointE
 00000000:0000007100030490       _ZNK7android4Rect9intersectERKS0_PS0_
 00000000:0000007100030500       _ZNK7android4Rect9transformEjii
 00000000:0000007100030570       _ZNK7android4Rect6reduceERKS0_
 00000000:0000007100030640       _ZN7android6RegionC2Ev
 00000000:0000007100030690       _ZN7android6RegionC2ERKS0_
 00000000:00000071000306C0       _ZN7android6RegionC1ERKNS_4RectE
 00000000:0000007100030710       _ZN7android6RegionD2Ev
 00000000:0000007100030790       _ZN7android6Region25createTJunctionFreeRegionERKS0_
 00000000:0000007100030B80       _ZNK7android6Region5beginEv
 00000000:0000007100030B90       _ZNK7android6Region3endEv
 00000000:0000007100030BB0       _ZN7android6RegionaSERKS0_
 00000000:0000007100030BE0       _ZN7android6Region14makeBoundsSelfEv
 00000000:0000007100030C40       _ZNK7android6Region8containsERKNS_5PointE
 00000000:0000007100030CB0       _ZNK7android6Region8containsEii
 00000000:0000007100030D20       _ZN7android6Region5clearEv
 00000000:0000007100030D60       _ZN7android6Region3setERKNS_4RectE
 00000000:0000007100030D90       _ZN7android6Region3setEjj
 00000000:0000007100030DE0       _ZNK7android6Region16isTriviallyEqualERKS0_
 00000000:0000007100030E00       _ZN7android6Region16addRectUncheckedEiiii
 00000000:0000007100030E40       _ZN7android6Region6orSelfERKNS_4RectE
 00000000:0000007100030EC0       _ZN7android6Region13operationSelfERKNS_4RectEi
 00000000:0000007100030F50       _ZN7android6Region7xorSelfERKNS_4RectE
 00000000:0000007100030FD0       _ZN7android6Region7andSelfERKNS_4RectE
 00000000:0000007100031050       _ZN7android6Region12subtractSelfERKNS_4RectE
 00000000:00000071000310D0       _ZN7android6Region17boolean_operationEiRS0_RKS0_RKNS_4RectE
 00000000:00000071000310E0       _ZN7android6Region6orSelfERKS0_
 00000000:0000007100031160       _ZN7android6Region13operationSelfERKS0_i
 00000000:00000071000311F0       _ZN7android6Region7xorSelfERKS0_
 00000000:0000007100031270       _ZN7android6Region7andSelfERKS0_
 00000000:00000071000312F0       _ZN7android6Region12subtractSelfERKS0_
 00000000:0000007100031370       _ZN7android6Region17boolean_operationEiRS0_RKS0_S3_
 00000000:0000007100031380       _ZN7android6Region13translateSelfEii
 00000000:0000007100031410       _ZN7android6Region9translateERS0_ii
 00000000:0000007100031490       _ZNK7android6Region5mergeERKNS_4RectE
 00000000:0000007100031510       _ZNK7android6Region9operationERKNS_4RectEi
 00000000:00000071000315A0       _ZNK7android6Region14mergeExclusiveERKNS_4RectE
 00000000:0000007100031620       _ZNK7android6Region9intersectERKNS_4RectE
 00000000:00000071000316A0       _ZNK7android6Region8subtractERKNS_4RectE
 00000000:0000007100031720       _ZNK7android6Region5mergeERKS0_
 00000000:00000071000317A0       _ZNK7android6Region9operationERKS0_i
 00000000:0000007100031830       _ZNK7android6Region14mergeExclusiveERKS0_
 00000000:00000071000318B0       _ZNK7android6Region9intersectERKS0_
 00000000:0000007100031930       _ZNK7android6Region8subtractERKS0_
 00000000:00000071000319B0       _ZNK7android6Region9translateEii
 00000000:0000007100031A80       _ZN7android6Region9translateERS0_RKS0_ii
 00000000:0000007100031B00       _ZN7android6Region6orSelfERKS0_ii
 00000000:0000007100031B90       _ZN7android6Region13operationSelfERKS0_iii
 00000000:0000007100031C30       _ZN7android6Region7xorSelfERKS0_ii
 00000000:0000007100031CC0       _ZN7android6Region7andSelfERKS0_ii
 00000000:0000007100031D50       _ZN7android6Region12subtractSelfERKS0_ii
 00000000:0000007100031DE0       _ZN7android6Region17boolean_operationEiRS0_RKS0_S3_ii
 00000000:0000007100031F60       _ZNK7android6Region5mergeERKS0_ii
 00000000:0000007100031FF0       _ZNK7android6Region9operationERKS0_iii
 00000000:0000007100032090       _ZNK7android6Region14mergeExclusiveERKS0_ii
 00000000:0000007100032120       _ZNK7android6Region9intersectERKS0_ii
 00000000:00000071000321B0       _ZNK7android6Region8subtractERKS0_ii
 00000000:0000007100032240       _ZN7android6Region8validateERKS0_PKcb
 00000000:0000007100032530       _ZNK7android6Region4dumpEPKcj
 00000000:0000007100032540       _ZNK7android6Region8getArrayEPm
 00000000:0000007100032B10       _ZN7android6Region17boolean_operationEiRS0_RKS0_RKNS_4RectEii
 00000000:0000007100032C90       _ZNK7android6Region16getFlattenedSizeEv
 00000000:0000007100032CA0       _ZNK7android6Region7flattenEPvm
 00000000:0000007100032CE0       _ZN7android6Region9unflattenEPKvm
 00000000:0000007100032DE0       _ZNK7android6Region15getSharedBufferEPm
 00000000:0000007100032E30       _ZNK7android6Region4dumpERNS_7String8EPKcj
 00000000:0000007100033200       nullsub_23
 00000000:0000007100033210       nullsub_24
 00000000:0000007100033330       _ZN7android21report_sysprop_changeEv
 00000000:0000007100033340       _ZN7android12NativeHandle6createEP13native_handleb
 00000000:00000071000333C0       _ZN7android12NativeHandleC2EP13native_handleb
 00000000:00000071000333F0       _ZN7android12NativeHandleD2Ev
 00000000:0000007100033440       _ZN7android12NativeHandleD0Ev
 00000000:0000007100033490       _ZNK7android7RefBase9incStrongEPKv
 00000000:00000071000334F0       _ZN7android7RefBase12weakref_type7incWeakEPKv
 00000000:0000007100033500       _ZNK7android7RefBase9decStrongEPKv
 00000000:00000071000335E0       _ZN7android7RefBase12weakref_type7decWeakEPKv
 00000000:0000007100033670       _ZNK7android7RefBase14forceIncStrongEPKv
 00000000:00000071000336D0       _ZNK7android7RefBase14getStrongCountEv
 00000000:00000071000336E0       _ZNK7android7RefBase12weakref_type7refBaseEv
 00000000:00000071000336F0       _ZN7android7RefBase12weakref_type16attemptIncStrongEPKv
 00000000:00000071000338C0       _ZN7android7RefBase12weakref_type14attemptIncWeakEPKv
 00000000:0000007100033930       _ZNK7android7RefBase12weakref_type12getWeakCountEv
 00000000:0000007100033940       _ZNK7android7RefBase12weakref_type9printRefsEv
 00000000:0000007100033950       _ZN7android7RefBase12weakref_type7trackMeEbb
 00000000:0000007100033960       _ZNK7android7RefBase10createWeakEPKv
 00000000:0000007100033990       _ZNK7android7RefBase11getWeakRefsEv
 00000000:00000071000339A0       _ZN7android7RefBaseC2Ev
 00000000:00000071000339F0       _ZN7android7RefBaseD2Ev
 00000000:0000007100033A60       _ZN7android7RefBaseD0Ev
 00000000:0000007100033AD0       _ZN7android10HeapObjectdlEPv
 00000000:0000007100033AE0       _ZN7android7RefBase20extendObjectLifetimeEi
 00000000:0000007100033B00       _ZN7android7RefBase10onFirstRefEv
 00000000:0000007100033B10       _ZN7android7RefBase15onLastStrongRefEPKv
 00000000:0000007100033B20       _ZN7android7RefBase20onIncStrongAttemptedEjPKv
 00000000:0000007100033B30       _ZN7android7RefBase13onLastWeakRefEPKv
 00000000:0000007100033B40       _ZN7android7RefBase10renameRefsEmRKNS_16ReferenceRenamerE
 00000000:0000007100033B50       _ZN7android7RefBase11renameRefIdEPNS0_12weakref_typeEPKvS4_
 00000000:0000007100033B60       _ZN7android7RefBase11renameRefIdEPS0_PKvS3_
 00000000:0000007100033B70       _ZN7android10HeapObjectnwEm
 00000000:0000007100033B80       _ZN7android12SharedBuffer5allocEm
 00000000:0000007100033BF0       _ZN7android12SharedBuffer7deallocEPKS0_
 00000000:0000007100033C20       _ZNK7android12SharedBuffer4editEv
 00000000:0000007100033CF0       _ZNK7android12SharedBuffer7releaseEj
 00000000:0000007100033D40       _ZNK7android12SharedBuffer10editResizeEm
 00000000:0000007100033E70       _ZNK7android12SharedBuffer11attemptEditEv
 00000000:0000007100033E80       _ZNK7android12SharedBuffer5resetEm
 00000000:0000007100033F30       _ZNK7android12SharedBuffer7acquireEv
 00000000:0000007100033F90       _ZN7android19initialize_string16Ev
 00000000:0000007100033FC0       _ZN7android18terminate_string16Ev
 00000000:0000007100034000       _ZN7android8String16C1Ev
 00000000:0000007100034040       _ZN7android8String16C2ENS0_13StaticLinkageE
 00000000:0000007100034070       _ZN7android8String16C2ERKS0_
 00000000:0000007100034090       _ZN7android8String16C1ERKS0_mm
 00000000:00000071000340F0       _ZN7android8String165setToERKS0_mm
 00000000:0000007100034240       _ZN7android8String16C1EPKDs
 00000000:00000071000342C0       _ZN7android8String16C2EPKDsm
 00000000:0000007100034350       _ZN7android8String16C1ERKNS_7String8E
 00000000:00000071000343F0       _ZN7android8String16C2EPKc
 00000000:0000007100034480       _ZN7android8String16C1EPKcm
 00000000:0000007100034510       _ZN7android8String16D2Ev
 00000000:0000007100034530       _ZN7android8String165setToERKS0_
 00000000:0000007100034590       _ZN7android8String165setToEPKDsm
 00000000:0000007100034640       _ZN7android8String165setToEPKDs
 00000000:00000071000346F0       _ZN7android8String166appendERKS0_
 00000000:00000071000347F0       _ZN7android8String166appendEPKDsm
 00000000:0000007100034900       _ZN7android8String166insertEmPKDs
 00000000:0000007100034990       _ZN7android8String166insertEmPKDsm
 00000000:0000007100034AD0       _ZNK7android8String169findFirstEDs
 00000000:0000007100034B30       _ZNK7android8String168findLastEDs
 00000000:0000007100034B90       _ZNK7android8String1610startsWithERKS0_
 00000000:0000007100034C00       _ZNK7android8String1610startsWithEPKDs
 00000000:0000007100034C90       _ZN7android8String169makeLowerEv
 00000000:0000007100034D50       _ZN7android8String1610replaceAllEDsDs
 00000000:0000007100034E00       _ZN7android8String166removeEmm
 00000000:0000007100034F20       _ZN7android18initialize_string8Ev
 00000000:0000007100034F70       _ZN7android17terminate_string8Ev
 00000000:0000007100034FB0       _ZN7android7String8C2Ev
 00000000:0000007100034FF0       _ZN7android7String8C2ENS0_13StaticLinkageE
 00000000:0000007100035020       _ZN7android7String8C1ERKS0_
 00000000:0000007100035040       _ZN7android7String8C1EPKc
 00000000:0000007100035110       _ZN7android7String8C2EPKcm
 00000000:00000071000351D0       _ZN7android7String8C2ERKNS_8String16E
 00000000:0000007100035280       _ZN7android7String8C1EPKDs
 00000000:0000007100035320       _ZN7android7String8C2EPKDsm
 00000000:00000071000353B0       _ZN7android7String8C1EPKDi
 00000000:0000007100035450       _ZN7android7String8C2EPKDim
 00000000:00000071000354E0       _ZN7android7String8D2Ev
 00000000:0000007100035500       _ZN7android7String86formatEPKcz
 00000000:0000007100035580       _ZN7android7String87formatVEPKcSt9__va_list
 00000000:00000071000356A0       _ZN7android7String813appendFormatVEPKcSt9__va_list
 00000000:00000071000357A0       _ZN7android7String85clearEv
 00000000:00000071000357F0       _ZN7android7String85setToERKS0_
 00000000:0000007100035850       _ZN7android7String85setToEPKc
 00000000:0000007100035940       _ZN7android7String85setToEPKcm
 00000000:0000007100035A10       _ZN7android7String85setToEPKDsm
 00000000:0000007100035B00       _ZN7android7String85setToEPKDim
 00000000:0000007100035BF0       _ZN7android7String86appendERKS0_
 00000000:0000007100035D00       _ZN7android7String811real_appendEPKcm
 00000000:0000007100035DB0       _ZN7android7String86appendEPKc
 00000000:0000007100035F00       _ZN7android7String86appendEPKcm
 00000000:0000007100035FD0       _ZN7android7String812appendFormatEPKcz
 00000000:0000007100036100       _ZN7android7String810lockBufferEm
 00000000:0000007100036140       _ZN7android7String812unlockBufferEv
 00000000:00000071000361C0       _ZN7android7String812unlockBufferEm
 00000000:0000007100036250       _ZNK7android7String84findEPKcm
 00000000:00000071000362E0       _ZN7android7String89removeAllEPKc
 00000000:0000007100036490       _ZN7android7String87toLowerEv
 00000000:0000007100036570       _ZN7android7String87toLowerEmm
 00000000:0000007100036690       _ZN7android7String87toUpperEv
 00000000:0000007100036770       _ZN7android7String87toUpperEmm
 00000000:0000007100036890       _ZNK7android7String814getUtf32LengthEv
 00000000:00000071000368B0       _ZNK7android7String810getUtf32AtEmPm
 00000000:00000071000368F0       _ZNK7android7String88getUtf32EPDi
 00000000:0000007100036920       _ZN7android7String811setPathNameEPKc
 00000000:0000007100036980       _ZN7android7String811setPathNameEPKcm
 00000000:0000007100036A70       _ZNK7android7String811getPathLeafEv
 00000000:0000007100036B70       _ZNK7android7String810getPathDirEv
 00000000:0000007100036CA0       _ZNK7android7String88walkPathEPS0_
 00000000:0000007100036F50       _ZNK7android7String814find_extensionEv
 00000000:0000007100036F90       _ZNK7android7String816getPathExtensionEv
 00000000:00000071000370D0       _ZNK7android7String811getBasePathEv
 00000000:00000071000371E0       _ZN7android7String810appendPathEPKc
 00000000:0000007100037330       _ZN7android7String816convertToResPathEv
 00000000:0000007100037340       _ZN7android12uptimeMillisEv
 00000000:0000007100037380       androidGetTid
 00000000:0000007100037390       androidGetThreadId
 00000000:00000071000373A0       androidSetThreadName
 00000000:00000071000373B0       _ZN7android6ThreadC2Eb
 00000000:0000007100037410       _ZN7android6ThreadD2Ev
 00000000:0000007100037470       _ZN7android6ThreadD1Ev
 00000000:0000007100037480       _ZTv0_n24_N7android6ThreadD1Ev
 00000000:0000007100037490       _ZN7android6ThreadD0Ev
 00000000:00000071000374A0       _ZTv0_n24_N7android6ThreadD0Ev
 00000000:00000071000374B0       _ZN7android6Thread3runEPKcim
 00000000:0000007100037670       _ZN7android6Thread11_threadLoopEPv
 00000000:00000071000378B0       _ZN7android6Thread11requestExitEv
 00000000:00000071000378F0       _ZN7android6Thread10readyToRunEv
 00000000:0000007100037900       _ZN7android6Thread18requestExitAndWaitEv
 00000000:0000007100037930       _ZN7android6Thread4joinEv
 00000000:00000071000379D0       _ZNK7android6Thread9isRunningEv
 00000000:0000007100037A10       _ZNK7android6Thread11exitPendingEv
 00000000:0000007100037A50       systemTime
 00000000:0000007100037D04       def_7100037CC0
 00000000:0000007100037D60       strcmp16
 00000000:0000007100037E20       strzcmp16
 00000000:000000710003802C       def_7100037FE8
 00000000:0000007100038398       def_7100038378
 00000000:0000007100038450       j__ZN7android10HeapObjectnwEm_0_1
 00000000:0000007100038460       j__ZN7android10HeapObjectdlEPv_0_1
 00000000:0000007100038470       _ZN7android10VectorImplC2Emj
 00000000:0000007100038490       _ZN7android10VectorImplC2ERKS0_
 00000000:00000071000384D0       _ZN7android10VectorImplD1Ev
 00000000:00000071000384F0       _ZN7android10VectorImplD0Ev
 00000000:0000007100038500       _ZN7android10VectorImplaSERKS0_
 00000000:00000071000385E0       _ZN7android10VectorImpl15release_storageEv
 00000000:0000007100038650       _ZN7android10VectorImpl13editArrayImplEv
 00000000:0000007100038760       _ZNK7android10VectorImpl8capacityEv
 00000000:0000007100038780       _ZN7android10VectorImpl14insertVectorAtERKS0_m
 00000000:0000007100038830       _ZN7android10VectorImpl13insertArrayAtEPKvmm
 00000000:00000071000388E0       _ZN7android10VectorImpl12appendVectorERKS0_
 00000000:0000007100038970       _ZN7android10VectorImpl5_growEmm
 00000000:0000007100038C80       _ZN7android10VectorImpl11appendArrayEPKvm
 00000000:0000007100038D10       _ZN7android10VectorImpl8insertAtEmm
 00000000:0000007100038DA0       _ZN7android10VectorImpl8insertAtEPKvmm
 00000000:0000007100038E60       _ZN7android10VectorImpl4sortEPFiPKvS2_E
 00000000:0000007100038E80       _ZN7android10VectorImpl4sortEPFiPKvS2_PvES3_
 00000000:0000007100039100       _ZN7android10VectorImpl3popEv
 00000000:0000007100039120       _ZN7android10VectorImpl13removeItemsAtEmm
 00000000:0000007100039170       _ZN7android10VectorImpl4pushEv
 00000000:00000071000391D0       _ZN7android10VectorImpl4pushEPKv
 00000000:0000007100039260       _ZN7android10VectorImpl3addEv
 00000000:00000071000392D0       _ZN7android10VectorImpl3addEPKv
 00000000:0000007100039360       _ZN7android10VectorImpl9replaceAtEm
 00000000:0000007100039410       _ZN7android10VectorImpl9replaceAtEPKvm
 00000000:0000007100039530       _ZN7android10VectorImpl16editItemLocationEm
 00000000:00000071000395A0       _ZN7android10VectorImpl7_shrinkEmm
 00000000:0000007100039800       _ZN7android10VectorImpl13finish_vectorEv
 00000000:0000007100039870       _ZN7android10VectorImpl5clearEv
 00000000:0000007100039880       _ZNK7android10VectorImpl12itemLocationEm
 00000000:00000071000398C0       _ZN7android10VectorImpl11setCapacityEm
 00000000:0000007100039A00       _ZN7android10VectorImpl6resizeEm
 00000000:0000007100039AA0       _ZNK7android10VectorImpl8itemSizeEv
 00000000:0000007100039AB0       _ZN7android16SortedVectorImplC2Emj
 00000000:0000007100039AD0       _ZN7android16SortedVectorImplC2ERKNS_10VectorImplE
 00000000:0000007100039B40       _ZN7android16SortedVectorImplD0Ev
 00000000:0000007100039B50       _ZN7android16SortedVectorImplaSERKS0_
 00000000:0000007100039B70       _ZNK7android16SortedVectorImpl7indexOfEPKv
 00000000:0000007100039C10       _ZNK7android16SortedVectorImpl7orderOfEPKv
 00000000:0000007100039CB0       _ZN7android16SortedVectorImpl3addEPKv
 00000000:0000007100039DF0       _ZN7android16SortedVectorImpl5mergeERKNS_10VectorImplE
 00000000:0000007100039E60       _ZN7android16SortedVectorImpl5mergeERKS0_
 00000000:000000710003A050       _ZN7android16SortedVectorImpl6removeEPKv
 00000000:000000710003A120       _ZNK2nn7account10UiSettings9GetUiModeEv
 00000000:000000710003A150       _ZNK2nn7account10UiSettings35GetNintendoAccountStartupDialogTypeEv
 00000000:000000710003A180       _ZNK2nn7account10UiSettings14GetLicenseTypeEv
 00000000:000000710003A1B0       _ZN2nn7account25ShowUserSelectorForSystemEPNS0_3UidERKNS0_21UserSelectionSettingsERKNS0_37UserSelectionSettingsForSystemServiceE
 00000000:000000710003A2A0       _ZN2nn7account27ShowUserSelectorForLauncherEPNS0_3UidERKNS0_21UserSelectionSettingsERKNS_13ApplicationIdE
 00000000:000000710003A390       _ZN2nn7account16ShowUserSelectorEPNS0_3UidERKNS0_21UserSelectionSettingsE
 00000000:000000710003A470       _ZN2nn7account15ShowUserCreatorEv
 00000000:000000710003A4F0       _ZN2nn7account18ShowUserIconEditorERKNS0_3UidE
 00000000:000000710003A550       _ZN2nn7account22ShowUserNicknameEditorERKNS0_3UidE
 00000000:000000710003A5B0       _ZN2nn7account25ShowUserCreatorForStarterEv
 00000000:000000710003A5F0       _ZN2nn7account29ShowNintendoAccountNnidLinkerERKNS0_3UidE
 00000000:000000710003A650       _ZN2nn7account27GetUiResultFromContextStackEPNS0_11UiReturnArgENS_6applet13StorageHandleE
 00000000:000000710003A690       _ZN2nn7account61ShowUiToIntroduceExternalNetworkServiceAccountForRegistrationERKNS0_9SessionIdE
 00000000:000000710003A6F0       _ZN2nn7account40ShowLicenseRequirementsForNetworkServiceERKNS0_3UidE
 00000000:000000710003A760       _ZN2nn7account40ShowLicenseRequirementsForNetworkServiceERKNS0_3UidERKNS_3err9ErrorCodeE
 00000000:000000710003A7D0       _ZN2nn7account40ShowLicenseRequirementsForNetworkServiceERKNS0_10UserHandleE
 00000000:000000710003A850       _ZN2nn7account40ShowLicenseRequirementsForNetworkServiceERKNS0_10UserHandleERKNS_3err9ErrorCodeE
 00000000:000000710003A8D0       _ZN2nn7account23TrySelectUserImplicitlyEPNS0_3UidERKNS0_29ImplicitUserSelectionSettingsE
 00000000:000000710003A960       _ZN2nn7account6detail18OAuthProcedureBaseC2Ev
 00000000:000000710003A980       _ZN2nn7account6detail18OAuthProcedureBaseC2ERKNS0_3UidEPNS0_4http15IOAuthProcedureE
 00000000:000000710003A9B0       _ZN2nn7account6detail18OAuthProcedureBaseC2EOS2_
 00000000:000000710003A9F0       _ZN2nn7account6detail18OAuthProcedureBaseD0Ev
 00000000:000000710003AA40       _ZN2nn7account6detail18OAuthProcedureBaseaSEOS2_
 00000000:000000710003AAD0       _ZN2nn7account6detail18OAuthProcedureBase4SwapERS2_
 00000000:000000710003AB20       _ZNK2nn7account6detail18OAuthProcedureBase6GetPtrEv
 00000000:000000710003AB30       _ZN2nn7account6detail18OAuthProcedureBase12PrepareAsyncEPNS0_12AsyncContextE
 00000000:000000710003ABF0       _ZN2nn7account6detail18OAuthProcedureBase10GetRequestEPNS0_10RequestUrlEPNS0_11CallbackUriE
 00000000:000000710003AC20       _ZN2nn7account6detail18OAuthProcedureBase13ApplyResponseEPKcm
 00000000:000000710003AC60       _ZN2nn7account6detail18OAuthProcedureBase18ApplyResponseAsyncEPNS0_12AsyncContextEPKcm
 00000000:000000710003AD20       _ZN2nn7account6detail18OAuthProcedureBase7SuspendEPNS0_9SessionIdE
 00000000:000000710003AD90       _ZN2nn7account6detail24SimpleOAuthProcedureBaseC2Ev
 00000000:000000710003ADB0       _ZN2nn7account6detail24SimpleOAuthProcedureBaseC2ERKNS0_3UidEPNS0_4http15IOAuthProcedureE
 00000000:000000710003ADF0       _ZN2nn7account6detail24SimpleOAuthProcedureBaseC1EOS2_
 00000000:000000710003AE40       _ZN2nn7account6detail24SimpleOAuthProcedureBaseaSEOS2_
 00000000:000000710003AED0       _ZN2nn7account6detail24SimpleOAuthProcedureBase4SwapERS2_
 00000000:000000710003AF20       _ZN2nn7account6detail18OAuthProcedureBaseD2Ev
 00000000:000000710003AF50       _ZN2nn7account6detail24SimpleOAuthProcedureBaseD0Ev
 00000000:000000710003AFA0       _ZN2nn7account6detail21TryPopPreselectedUserEv
 00000000:000000710003B080       _ZN2nn7account6detail25CheckInternetAvailabilityEv
 00000000:000000710003B0B0       _ZN2nn7account6detail15StartPselAppletERKNS0_10UiSettingsE
 00000000:000000710003B200       _ZN2nn7account6detail15StartPselAppletERKNS0_10UiSettingsEPKvm
 00000000:000000710003B240       _ZN2nn7account6detail22ShowUserSelectorCommonEPNS0_3UidERKNS0_10UiSettingsE
 00000000:000000710003B310       _ZN2nn7account6detail12ObjectHolderD2Ev
 00000000:000000710003B3C0       _ZN2nn7account6detail13IsInitializedEv
 00000000:000000710003B410       _ZN2nn7account6detail31TrySelectUserWithoutInteractionEPNS0_3UidEb
 00000000:000000710003B450       _ZN2nn7account10InitializeEv
 00000000:000000710003B5C0       _ZN2nn7account26InitializeForSystemServiceEv
 00000000:000000710003B680       _ZN2nn7account26InitializeForAdministratorEv
 00000000:000000710003B740       _ZN2nn7account14InitializeWithEONS_2sf13SharedPointerINS0_31IAccountServiceForAdministratorEEE
 00000000:000000710003B7C0       _ZN2nn7account8FinalizeEv
 00000000:000000710003B8A0       _ZN2nn7account12GetUserCountEPi
 00000000:000000710003B900       _ZN2nn7account16GetUserExistenceEPbRKNS0_3UidE
 00000000:000000710003B940       _ZN2nn7account12ListAllUsersEPiPNS0_3UidEi
 00000000:000000710003BB70       _ZN2nn7account13ListOpenUsersEPiPNS0_3UidEi
 00000000:000000710003BDA0       _ZN2nn7account17GetLastOpenedUserEPNS0_3UidE
 00000000:000000710003BDE0       _ZN2nn7account16GetProfileDigestEPNS0_13ProfileDigestERKNS0_3UidE
 00000000:000000710003BE20       _ZN2nn7account11GetNicknameEPNS0_8NicknameERKNS0_3UidE
 00000000:000000710003BEF0       _ZN2nn7account16LoadProfileImageEPmPvmRKNS0_3UidE
 00000000:000000710003BFD0       _ZN2nn7account34IsUserRegistrationRequestPermittedEPb
 00000000:000000710003C010       _ZN2nn7account18ListQualifiedUsersEPiPNS0_3UidEi
 00000000:000000710003C240       _ZN2nn7account8OpenUserEPNS0_10UserHandleERKNS0_3UidE
 00000000:000000710003C3D0       _ZN2nn7account19OpenPreselectedUserEPNS0_10UserHandleE
 00000000:000000710003C420       _ZN2nn7account9CloseUserERKNS0_10UserHandleE
 00000000:000000710003C580       _ZN2nn7account9GetUserIdEPNS0_3UidERKNS0_10UserHandleE
 00000000:000000710003C590       _ZN2nn7account36CheckNetworkServiceAvailabilityAsyncEPNS0_12AsyncContextE
 00000000:000000710003C630       _ZN2nn7account38IntroduceExternalNetworkServiceAccountEPNS0_33ExternalNetworkServiceAccountInfoEPvm
 00000000:000000710003C7D0       _ZN2nn7account43DebugIntroduceExternalNetworkServiceAccountEPmmPNS0_33ExternalNetworkServiceAccountInfoEPvm
 00000000:000000710003C960       _ZN2nn7account27StoreSaveDataThumbnailImageERKNS0_3UidEPKvm
 00000000:000000710003C9C0       _ZN2nn7account28DeleteSaveDataThumbnailImageERKNS0_3UidE
 00000000:000000710003CA00       _ZN2nn7account13PushOpenUsersEv
 00000000:000000710003CBE0       _ZN2nn7account12PopOpenUsersEPiPNS0_10UserHandleEi
 00000000:000000710003CD70       _ZN2nn7account19ListPushedOpenUsersEPNS0_3UidEi
 00000000:000000710003CFB0       _ZN2nn7account18ListQualifiedUsersEPiPNS0_3UidEiRKNS_13ApplicationIdE
 00000000:000000710003D1E0       _ZN2nn7account27GetUserRegistrationNotifierEPNS0_8NotifierE
 00000000:000000710003D280       _ZN2nn7account26GetUserStateChangeNotifierEPNS0_8NotifierE
 00000000:000000710003D320       _ZN2nn7account24GetProfileUpdateNotifierEPNS0_8NotifierE
 00000000:000000710003D3C0       _ZN2nn7account50GetNetworkServiceAccountAvailabilityChangeNotifierEPNS0_8NotifierE
 00000000:000000710003D460       _ZN2nn7account28GetUserLastOpenedApplicationEPNS_13ApplicationIdEPjRKNS0_3UidE
 00000000:000000710003D4B0       _ZN2nn7account31GetNetworkServiceAccountManagerEPNS0_28NetworkServiceAccountManagerERKNS0_3UidE
 00000000:000000710003D560       _ZN2nn7account36CheckNetworkServiceAvailabilityAsyncEPNS0_12AsyncContextERKNS0_27SystemProgramIdentificationE
 00000000:000000710003D610       _ZN2nn7account27StoreSaveDataThumbnailImageERKNS0_3UidERKNS_13ApplicationIdEPKvm
 00000000:000000710003D670       _ZN2nn7account28DeleteSaveDataThumbnailImageERKNS0_3UidERKNS_13ApplicationIdE
 00000000:000000710003D6B0       _ZN2nn7account26LoadSaveDataThumbnailImageEPvmRKNS0_3UidERKNS_13ApplicationIdE
 00000000:000000710003D710       _ZN2nn7account34GetSaveDataThumbnailImageExistenceEPbRKNS0_3UidERKNS_13ApplicationIdE
 00000000:000000710003D750       _ZN2nn7account35EnableInterprogramOpenUserRetentionERKNS_13ApplicationIdE
 00000000:000000710003D7D0       _ZN2nn7account21BeginUserRegistrationEPNS0_3UidE
 00000000:000000710003D810       _ZN2nn7account24CompleteUserRegistrationERKNS0_3UidE
 00000000:000000710003D850       _ZN2nn7account32CompleteUserRegistrationForciblyERKNS0_3UidE
 00000000:000000710003D890       _ZN2nn7account22CancelUserRegistrationERKNS0_3UidE
 00000000:000000710003D8D0       _ZN2nn7account10DeleteUserERKNS0_3UidE
 00000000:000000710003D910       _ZN2nn7account15SetUserPositionERKNS0_3UidEi
 00000000:000000710003D950       _ZN2nn7account16GetProfileEditorEPNS0_13ProfileEditorERKNS0_3UidE
 00000000:000000710003DA10       _ZN2nn7account24AuthenticateServiceAsyncEPNS0_12AsyncContextE
 00000000:000000710003DAB0       _ZN2nn7account37GetNetworkServiceAccountAdministratorEPNS0_34NetworkServiceAccountAdministratorERKNS0_3UidE
 00000000:000000710003DB60       _ZN2nn7account44CreateExternalNetworkServiceAccountRegistrarEPNS0_38ExternalNetworkServiceAccountRegistrarEPvm
 00000000:000000710003DC90       _ZN2nn7account69ProxyProcedureToIntroduceExternalNetworkServiceAccountForRegistrationEPNS0_49ExternalNetworkServiceAccountIntroducingProcedureERKNS0_9SessionIdE
 00000000:000000710003DD50       _ZN2nn7account54ProxyProcedureToIntroduceExternalNetworkServiceAccountEPNS0_49ExternalNetworkServiceAccountIntroducingProcedureERKNS0_9SessionIdE
 00000000:000000710003DE10       _ZN2nn7account11Declaration4SwapERS1_
 00000000:000000710003DE30       _ZN2nn7account11DeclarationD1Ev
 00000000:000000710003DE50       _ZN2nn7account32DebugInvalidateUserResourceCacheERKNS0_3UidE
 00000000:000000710003DEB0       _ZN2nn7account21DebugSetUserStateOpenERKNS0_3UidE
 00000000:000000710003DEF0       _ZN2nn7account22DebugSetUserStateCloseERKNS0_3UidE
 00000000:000000710003DF30       _ZN2nn7account40DebugEnableInterprogramOpenUserRetentionEv
 00000000:000000710003DFB0       _ZN2nn7account25SuspendBackgroundActivityEv
 00000000:000000710003E030       _ZN2nn7account6detail12ObjectHolder11AcquireImplINS0_29IAccountServiceForApplicationEEENS_6ResultEPPT_PKc
 00000000:000000710003E140       _ZN2nn2sf4hipc6client34HipcSimpleClientSessionManagerBaseINS2_29DefaultSessionResourceManagerEE4Impl18InitializeByHandleINS_7account29IAccountServiceForApplicationENS0_25StatelessAllocationPolicyINS0_22ExpHeapStaticAllocatorILm2048ENS8_6detail12ObjectHolder24ObjectHolderAllocatorTagEEEEEEENS_6ResultEPNS0_13SharedPointerIT_EENS_3svc6HandleE
 00000000:000000710003E260       _ZN2nn2sf6detail39ObjectImplFactoryWithStatelessAllocatorINS0_4cmif6client16CmifProxyFactoryINS_7account29IAccountServiceForApplicationENS4_15CmifDomainProxyINS0_4hipc6client38Hipc2ClientSessionManagedProxyKindBaseINSA_18Hipc2ProxyKindBaseILNS9_6detail11MessageTypeE6EEEEEEENS0_25StatelessAllocationPolicyINS0_22ExpHeapStaticAllocatorILm2048ENS6_6detail12ObjectHolder24ObjectHolderAllocatorTagEEEEEE13ServiceObjectESO_E6Object12AddReferenceEv
 00000000:000000710003E270       _ZN2nn2sf6detail39ObjectImplFactoryWithStatelessAllocatorINS0_4cmif6client16CmifProxyFactoryINS_7account29IAccountServiceForApplicationENS4_15CmifDomainProxyINS0_4hipc6client38Hipc2ClientSessionManagedProxyKindBaseINSA_18Hipc2ProxyKindBaseILNS9_6detail11MessageTypeE6EEEEEEENS0_25StatelessAllocationPolicyINS0_22ExpHeapStaticAllocatorILm2048ENS6_6detail12ObjectHolder24ObjectHolderAllocatorTagEEEEEE13ServiceObjectESO_E6Object7ReleaseEv
 00000000:000000710003E2E0       _ZN2nn2sf4cmif6client6detail13CmifProxyImplINS_7account19IAccountServiceBaseENS2_15CmifDomainProxyINS0_4hipc6client38Hipc2ClientSessionManagedProxyKindBaseINS9_18Hipc2ProxyKindBaseILNS8_6detail11MessageTypeE6EEEEEEENS0_25StatelessAllocationPolicyINS0_22ExpHeapStaticAllocatorILm2048ENS5_6detail12ObjectHolder24ObjectHolderAllocatorTagEEEEENS5_29IAccountServiceForApplicationEE12GetProxyInfoEv
 00000000:000000710003E2F0       _ZN2nn2sf4cmif6client6detail13CmifProxyImplINS_7account19IAccountServiceBaseENS2_15CmifDomainProxyINS0_4hipc6client38Hipc2ClientSessionManagedProxyKindBaseINS9_18Hipc2ProxyKindBaseILNS8_6detail11MessageTypeE6EEEEEEENS0_25StatelessAllocationPolicyINS0_22ExpHeapStaticAllocatorILm2048ENS5_6detail12ObjectHolder24ObjectHolderAllocatorTagEEEEENS5_29IAccountServiceForApplicationEE24_nn_sf_sync_GetUserCountENS0_3OutIivEE
 00000000:000000710003E310       _ZN2nn2sf4cmif6client6detail13CmifProxyImplINS_7account19IAccountServiceBaseENS2_15CmifDomainProxyINS0_4hipc6client38Hipc2ClientSessionManagedProxyKindBaseINS9_18Hipc2ProxyKindBaseILNS8_6detail11MessageTypeE6EEEEEEENS0_25StatelessAllocationPolicyINS0_22ExpHeapStaticAllocatorILm2048ENS5_6detail12ObjectHolder24ObjectHolderAllocatorTagEEEEENS5_29IAccountServiceForApplicationEE28_nn_sf_sync_GetUserExistenceENS0_3OutIbvEERKNS5_3UidE
 00000000:000000710003E330       _ZN2nn2sf4cmif6client6detail13CmifProxyImplINS_7account19IAccountServiceBaseENS2_15CmifDomainProxyINS0_4hipc6client38Hipc2ClientSessionManagedProxyKindBaseINS9_18Hipc2ProxyKindBaseILNS8_6detail11MessageTypeE6EEEEEEENS0_25StatelessAllocationPolicyINS0_22ExpHeapStaticAllocatorILm2048ENS5_6detail12ObjectHolder24ObjectHolderAllocatorTagEEEEENS5_29IAccountServiceForApplicationEE24_nn_sf_sync_ListAllUsersERKNS0_8OutArrayINS5_3UidEEE
 00000000:000000710003E360       _ZN2nn2sf4cmif6client6detail13CmifProxyImplINS_7account19IAccountServiceBaseENS2_15CmifDomainProxyINS0_4hipc6client38Hipc2ClientSessionManagedProxyKindBaseINS9_18Hipc2ProxyKindBaseILNS8_6detail11MessageTypeE6EEEEEEENS0_25StatelessAllocationPolicyINS0_22ExpHeapStaticAllocatorILm2048ENS5_6detail12ObjectHolder24ObjectHolderAllocatorTagEEEEENS5_29IAccountServiceForApplicationEE25_nn_sf_sync_ListOpenUsersERKNS0_8OutArrayINS5_3UidEEE
 00000000:000000710003E390       _ZN2nn2sf4cmif6client6detail13CmifProxyImplINS_7account19IAccountServiceBaseENS2_15CmifDomainProxyINS0_4hipc6client38Hipc2ClientSessionManagedProxyKindBaseINS9_18Hipc2ProxyKindBaseILNS8_6detail11MessageTypeE6EEEEEEENS0_25StatelessAllocationPolicyINS0_22ExpHeapStaticAllocatorILm2048ENS5_6detail12ObjectHolder24ObjectHolderAllocatorTagEEEEENS5_29IAccountServiceForApplicationEE29_nn_sf_sync_GetLastOpenedUserENS0_3OutINS5_3UidEvEE
 00000000:000000710003E3B0       _ZN2nn2sf4cmif6client6detail13CmifProxyImplINS_7account19IAccountServiceBaseENS2_15CmifDomainProxyINS0_4hipc6client38Hipc2ClientSessionManagedProxyKindBaseINS9_18Hipc2ProxyKindBaseILNS8_6detail11MessageTypeE6EEEEEEENS0_25StatelessAllocationPolicyINS0_22ExpHeapStaticAllocatorILm2048ENS5_6detail12ObjectHolder24ObjectHolderAllocatorTagEEEEENS5_29IAccountServiceForApplicationEE22_nn_sf_sync_GetProfileENS0_3OutINS0_13SharedPointerINS5_7profile8IProfileEEEvEERKNS5_3UidE
 00000000:000000710003E450       _ZN2nn2sf4cmif6client6detail13CmifProxyImplINS_7account19IAccountServiceBaseENS2_15CmifDomainProxyINS0_4hipc6client38Hipc2ClientSessionManagedProxyKindBaseINS9_18Hipc2ProxyKindBaseILNS8_6detail11MessageTypeE6EEEEEEENS0_25StatelessAllocationPolicyINS0_22ExpHeapStaticAllocatorILm2048ENS5_6detail12ObjectHolder24ObjectHolderAllocatorTagEEEEENS5_29IAccountServiceForApplicationEE28_nn_sf_sync_GetProfileDigestENS0_3OutINS5_13ProfileDigestEvEERKNS5_3UidE
 00000000:000000710003E470       _ZN2nn2sf4cmif6client6detail13CmifProxyImplINS_7account19IAccountServiceBaseENS2_15CmifDomainProxyINS0_4hipc6client38Hipc2ClientSessionManagedProxyKindBaseINS9_18Hipc2ProxyKindBaseILNS8_6detail11MessageTypeE6EEEEEEENS0_25StatelessAllocationPolicyINS0_22ExpHeapStaticAllocatorILm2048ENS5_6detail12ObjectHolder24ObjectHolderAllocatorTagEEEEENS5_29IAccountServiceForApplicationEE46_nn_sf_sync_IsUserRegistrationRequestPermittedENS0_3OutIbvEEm
 00000000:000000710003E490       _ZN2nn2sf4cmif6client6detail13CmifProxyImplINS_7account19IAccountServiceBaseENS2_15CmifDomainProxyINS0_4hipc6client38Hipc2ClientSessionManagedProxyKindBaseINS9_18Hipc2ProxyKindBaseILNS8_6detail11MessageTypeE6EEEEEEENS0_25StatelessAllocationPolicyINS0_22ExpHeapStaticAllocatorILm2048ENS5_6detail12ObjectHolder24ObjectHolderAllocatorTagEEEEENS5_29IAccountServiceForApplicationEE43_nn_sf_sync_TrySelectUserWithoutInteractionENS0_3OutINS5_3UidEvEEb
 00000000:000000710003E4C0       _ZN2nn2sf4cmif6client6detail13CmifProxyImplINS_7account19IAccountServiceBaseENS2_15CmifDomainProxyINS0_4hipc6client38Hipc2ClientSessionManagedProxyKindBaseINS9_18Hipc2ProxyKindBaseILNS8_6detail11MessageTypeE6EEEEEEENS0_25StatelessAllocationPolicyINS0_22ExpHeapStaticAllocatorILm2048ENS5_6detail12ObjectHolder24ObjectHolderAllocatorTagEEEEENS5_29IAccountServiceForApplicationEE45_nn_sf_sync_DebugActivateOpenContextRetentionENS0_3OutINS0_13SharedPointerINSJ_14ISessionObjectEEEvEE
 00000000:000000710003E550       _ZN2nn2sf4cmif6client6detail13CmifProxyImplINS_7account29IAccountServiceForApplicationENS2_15CmifDomainProxyINS0_4hipc6client38Hipc2ClientSessionManagedProxyKindBaseINS9_18Hipc2ProxyKindBaseILNS8_6detail11MessageTypeE6EEEEEEENS0_25StatelessAllocationPolicyINS0_22ExpHeapStaticAllocatorILm2048ENS5_6detail12ObjectHolder24ObjectHolderAllocatorTagEEEEES6_E39_nn_sf_sync_InitializeApplicationInfoV0Em
 00000000:000000710003E570       _ZN2nn2sf4cmif6client6detail13CmifProxyImplINS_7account29IAccountServiceForApplicationENS2_15CmifDomainProxyINS0_4hipc6client38Hipc2ClientSessionManagedProxyKindBaseINS9_18Hipc2ProxyKindBaseILNS8_6detail11MessageTypeE6EEEEEEENS0_25StatelessAllocationPolicyINS0_22ExpHeapStaticAllocatorILm2048ENS5_6detail12ObjectHolder24ObjectHolderAllocatorTagEEEEES6_E47_nn_sf_sync_GetBaasAccountManagerForApplicationENS0_3OutINS0_13SharedPointerINS5_4baas22IManagerForApplicationEEEvEERKNS5_3UidE
 00000000:000000710003E610       _ZN2nn2sf4cmif6client6detail13CmifProxyImplINS_7account29IAccountServiceForApplicationENS2_15CmifDomainProxyINS0_4hipc6client38Hipc2ClientSessionManagedProxyKindBaseINS9_18Hipc2ProxyKindBaseILNS8_6detail11MessageTypeE6EEEEEEENS0_25StatelessAllocationPolicyINS0_22ExpHeapStaticAllocatorILm2048ENS5_6detail12ObjectHolder24ObjectHolderAllocatorTagEEEEES6_E40_nn_sf_sync_AuthenticateApplicationAsyncENS0_3OutINS0_13SharedPointerINSJ_13IAsyncContextEEEvEE
 00000000:000000710003E6A0       _ZN2nn2sf4cmif6client6detail13CmifProxyImplINS_7account29IAccountServiceForApplicationENS2_15CmifDomainProxyINS0_4hipc6client38Hipc2ClientSessionManagedProxyKindBaseINS9_18Hipc2ProxyKindBaseILNS8_6detail11MessageTypeE6EEEEEEENS0_25StatelessAllocationPolicyINS0_22ExpHeapStaticAllocatorILm2048ENS5_6detail12ObjectHolder24ObjectHolderAllocatorTagEEEEES6_E48_nn_sf_sync_CheckNetworkServiceAvailabilityAsyncENS0_3OutINS0_13SharedPointerINSJ_13IAsyncContextEEEvEE
 00000000:000000710003E730       _ZN2nn2sf4cmif6client6detail13CmifProxyImplINS_7account29IAccountServiceForApplicationENS2_15CmifDomainProxyINS0_4hipc6client38Hipc2ClientSessionManagedProxyKindBaseINS9_18Hipc2ProxyKindBaseILNS8_6detail11MessageTypeE6EEEEEEENS0_25StatelessAllocationPolicyINS0_22ExpHeapStaticAllocatorILm2048ENS5_6detail12ObjectHolder24ObjectHolderAllocatorTagEEEEES6_E34_nn_sf_sync_StoreSaveDataThumbnailERKNS5_3UidERKNS0_8InBufferE
 00000000:000000710003E760       _ZN2nn2sf4cmif6client6detail13CmifProxyImplINS_7account29IAccountServiceForApplicationENS2_15CmifDomainProxyINS0_4hipc6client38Hipc2ClientSessionManagedProxyKindBaseINS9_18Hipc2ProxyKindBaseILNS8_6detail11MessageTypeE6EEEEEEENS0_25StatelessAllocationPolicyINS0_22ExpHeapStaticAllocatorILm2048ENS5_6detail12ObjectHolder24ObjectHolderAllocatorTagEEEEES6_E34_nn_sf_sync_ClearSaveDataThumbnailERKNS5_3UidE
 00000000:000000710003E780       _ZN2nn2sf4cmif6client6detail13CmifProxyImplINS_7account29IAccountServiceForApplicationENS2_15CmifDomainProxyINS0_4hipc6client38Hipc2ClientSessionManagedProxyKindBaseINS9_18Hipc2ProxyKindBaseILNS8_6detail11MessageTypeE6EEEEEEENS0_25StatelessAllocationPolicyINS0_22ExpHeapStaticAllocatorILm2048ENS5_6detail12ObjectHolder24ObjectHolderAllocatorTagEEEEES6_E35_nn_sf_sync_CreateGuestLoginRequestENS0_3OutINS0_13SharedPointerINS5_4baas18IGuestLoginRequestEEEvEEONS0_12NativeHandleEj
 00000000:000000710003E830       _ZN2nn2sf4cmif6client6detail13CmifProxyImplINS_7account29IAccountServiceForApplicationENS2_15CmifDomainProxyINS0_4hipc6client38Hipc2ClientSessionManagedProxyKindBaseINS9_18Hipc2ProxyKindBaseILNS8_6detail11MessageTypeE6EEEEEEENS0_25StatelessAllocationPolicyINS0_22ExpHeapStaticAllocatorILm2048ENS5_6detail12ObjectHolder24ObjectHolderAllocatorTagEEEEES6_E27_nn_sf_sync_LoadOpenContextENS0_3OutINS0_13SharedPointerINS5_4baas22IManagerForApplicationEEEvEERKNS5_3UidE
 00000000:000000710003E8D0       _ZN2nn2sf4cmif6client6detail13CmifProxyImplINS_7account29IAccountServiceForApplicationENS2_15CmifDomainProxyINS0_4hipc6client38Hipc2ClientSessionManagedProxyKindBaseINS9_18Hipc2ProxyKindBaseILNS8_6detail11MessageTypeE6EEEEEEENS0_25StatelessAllocationPolicyINS0_22ExpHeapStaticAllocatorILm2048ENS5_6detail12ObjectHolder24ObjectHolderAllocatorTagEEEEES6_E38_nn_sf_sync_ListOpenContextStoredUsersERKNS0_8OutArrayINS5_3UidEEE
 00000000:000000710003E900       _ZN2nn2sf4cmif6client6detail13CmifProxyImplINS_7account29IAccountServiceForApplicationENS2_15CmifDomainProxyINS0_4hipc6client38Hipc2ClientSessionManagedProxyKindBaseINS9_18Hipc2ProxyKindBaseILNS8_6detail11MessageTypeE6EEEEEEENS0_25StatelessAllocationPolicyINS0_22ExpHeapStaticAllocatorILm2048ENS5_6detail12ObjectHolder24ObjectHolderAllocatorTagEEEEES6_E37_nn_sf_sync_InitializeApplicationInfoEm
 00000000:000000710003E920       _ZN2nn2sf4cmif6client6detail13CmifProxyImplINS_7account29IAccountServiceForApplicationENS2_15CmifDomainProxyINS0_4hipc6client38Hipc2ClientSessionManagedProxyKindBaseINS9_18Hipc2ProxyKindBaseILNS8_6detail11MessageTypeE6EEEEEEENS0_25StatelessAllocationPolicyINS0_22ExpHeapStaticAllocatorILm2048ENS5_6detail12ObjectHolder24ObjectHolderAllocatorTagEEEEES6_E30_nn_sf_sync_ListQualifiedUsersERKNS0_8OutArrayINS5_3UidEEE
 00000000:000000710003E950       _ZN2nn2sf4cmif6client6detail13CmifProxyImplINS_7account29IAccountServiceForApplicationENS2_15CmifDomainProxyINS0_4hipc6client38Hipc2ClientSessionManagedProxyKindBaseINS9_18Hipc2ProxyKindBaseILNS8_6detail11MessageTypeE6EEEEEEENS0_25StatelessAllocationPolicyINS0_22ExpHeapStaticAllocatorILm2048ENS5_6detail12ObjectHolder24ObjectHolderAllocatorTagEEEEES6_E37_nn_sf_sync_IsUserAccountSwitchLockedENS0_3OutIbvEE
 00000000:000000710003E970       _ZN2nn2sf4cmif6client6detail13CmifProxyImplINS_7account19IAccountServiceBaseENS2_15CmifDomainProxyINS0_4hipc6client38Hipc2ClientSessionManagedProxyKindBaseINS9_18Hipc2ProxyKindBaseILNS8_6detail11MessageTypeE6EEEEEEENS0_25StatelessAllocationPolicyINS0_22ExpHeapStaticAllocatorILm2048ENS5_6detail12ObjectHolder24ObjectHolderAllocatorTagEEEEENS5_29IAccountServiceForApplicationEE17GetCmifBaseObjectEv
 00000000:000000710003E980       _ZThn32_N2nn2sf4cmif6client6detail13CmifProxyImplINS_7account19IAccountServiceBaseENS2_15CmifDomainProxyINS0_4hipc6client38Hipc2ClientSessionManagedProxyKindBaseINS9_18Hipc2ProxyKindBaseILNS8_6detail11MessageTypeE6EEEEEEENS0_25StatelessAllocationPolicyINS0_22ExpHeapStaticAllocatorILm2048ENS5_6detail12ObjectHolder24ObjectHolderAllocatorTagEEEEENS5_29IAccountServiceForApplicationEE17GetCmifBaseObjectEv
 00000000:000000710003E990       _ZN2nn2sf4cmif6client34CmifDomainProxyClientCoreProcessorINS0_4hipc6client38Hipc2ClientSessionManagedProxyKindBaseINS5_18Hipc2ProxyKindBaseILNS4_6detail11MessageTypeE6EEEEENS1_6detail14CoreMethodInfoINSt3__15tupleIJNSC_18OutRawArgumentInfoILm1ELm1ELl0EEENSC_17InRawArgumentInfoILm16ELm8ELl0EEEEEELm16ELm1ELb0EEESK_E7ProcessEPNS2_23CmifDomainClientMessageISB_E15ProxyBaseObjectENS2_24OutRawClientArgumentTypeILm1ELm1EEENS2_23InRawClientArgumentTypeILm16ELm8EvEEj
 00000000:000000710003EB00       _ZN2nn2sf4cmif6client34CmifDomainProxyClientCoreProcessorINS0_4hipc6client38Hipc2ClientSessionManagedProxyKindBaseINS5_18Hipc2ProxyKindBaseILNS4_6detail11MessageTypeE6EEEEENS1_6detail14CoreMethodInfoINSt3__15tupleIJNSC_18BufferArgumentInfoILi0ELi10ELm0EEEEEELm0ELm0ELb0EEESI_E7ProcessEPNS2_23CmifDomainClientMessageISB_E15ProxyBaseObjectENS2_24BufferClientArgumentTypeEj
 00000000:000000710003ECF0       _ZN2nn2sf4cmif6client34CmifDomainProxyClientCoreProcessorINS0_4hipc6client38Hipc2ClientSessionManagedProxyKindBaseINS5_18Hipc2ProxyKindBaseILNS4_6detail11MessageTypeE6EEEEENS1_6detail14CoreMethodInfoINSt3__15tupleIJNSC_18OutRawArgumentInfoILm16ELm8ELl0EEEEEELm0ELm16ELb0EEESI_E7ProcessEPNS2_23CmifDomainClientMessageISB_E15ProxyBaseObjectENS2_24OutRawClientArgumentTypeILm16ELm8EEEj
 00000000:000000710003EE50       _ZN2nn2sf4cmif6client34CmifDomainProxyClientCoreProcessorINS0_4hipc6client38Hipc2ClientSessionManagedProxyKindBaseINS5_18Hipc2ProxyKindBaseILNS4_6detail11MessageTypeE6EEEEENS1_6detail14CoreMethodInfoINSt3__15tupleIJNSC_21OutObjectArgumentInfoILi0ELi0EEENSC_17InRawArgumentInfoILm16ELm8ELl0EEEEEELm16ELm0ELb0EEESK_E21ProcessWithOutObjectsEPNS2_23CmifDomainClientMessageISB_E15ProxyBaseObjectENS2_27OutObjectClientArgumentTypeENS2_23InRawClientArgumentTypeILm16ELm8EvEEjPNS0_13SharedPointerINS0_14IServiceObjectEEE
 00000000:000000710003F030       _ZN2nn2sf4cmif6client32GetClientProcessorWithObjectBaseINS2_15CmifDomainProxyINS0_4hipc6client38Hipc2ClientSessionManagedProxyKindBaseINS6_18Hipc2ProxyKindBaseILNS5_6detail11MessageTypeE6EEEEEEEE14ObjectAssignerINS0_25StatelessAllocationPolicyINS0_22ExpHeapStaticAllocatorILm2048ENS_7account6detail12ObjectHolder24ObjectHolderAllocatorTagEEEEENS0_6detail23StatelessDummyAllocatorEE14AllocateObjectINSI_7profile8IProfileEEEvi
 00000000:000000710003F0F0       _ZN2nn2sf6detail39ObjectImplFactoryWithStatelessAllocatorINS0_4cmif6client16CmifProxyFactoryINS_7account7profile8IProfileENS4_15CmifDomainProxyINS0_4hipc6client38Hipc2ClientSessionManagedProxyKindBaseINSB_18Hipc2ProxyKindBaseILNSA_6detail11MessageTypeE6EEEEEEENS0_25StatelessAllocationPolicyINS0_22ExpHeapStaticAllocatorILm2048ENS6_6detail12ObjectHolder24ObjectHolderAllocatorTagEEEEEE13ServiceObjectESP_E6Object12AddReferenceEv
 00000000:000000710003F100       _ZN2nn2sf6detail39ObjectImplFactoryWithStatelessAllocatorINS0_4cmif6client16CmifProxyFactoryINS_7account7profile8IProfileENS4_15CmifDomainProxyINS0_4hipc6client38Hipc2ClientSessionManagedProxyKindBaseINSB_18Hipc2ProxyKindBaseILNSA_6detail11MessageTypeE6EEEEEEENS0_25StatelessAllocationPolicyINS0_22ExpHeapStaticAllocatorILm2048ENS6_6detail12ObjectHolder24ObjectHolderAllocatorTagEEEEEE13ServiceObjectESP_E6Object7ReleaseEv
 00000000:000000710003F170       _ZN2nn2sf4cmif6client6detail13CmifProxyImplINS_7account7profile8IProfileENS2_15CmifDomainProxyINS0_4hipc6client38Hipc2ClientSessionManagedProxyKindBaseINSA_18Hipc2ProxyKindBaseILNS9_6detail11MessageTypeE6EEEEEEENS0_25StatelessAllocationPolicyINS0_22ExpHeapStaticAllocatorILm2048ENS5_6detail12ObjectHolder24ObjectHolderAllocatorTagEEEEES7_E12GetProxyInfoEv
 00000000:000000710003F180       _ZN2nn2sf4cmif6client6detail13CmifProxyImplINS_7account7profile8IProfileENS2_15CmifDomainProxyINS0_4hipc6client38Hipc2ClientSessionManagedProxyKindBaseINSA_18Hipc2ProxyKindBaseILNS9_6detail11MessageTypeE6EEEEEEENS0_25StatelessAllocationPolicyINS0_22ExpHeapStaticAllocatorILm2048ENS5_6detail12ObjectHolder24ObjectHolderAllocatorTagEEEEES7_E15_nn_sf_sync_GetENS0_3OutINS6_11ProfileBaseEvEENSQ_INS6_8UserDataEvEE
 00000000:000000710003F1B0       _ZN2nn2sf4cmif6client6detail13CmifProxyImplINS_7account7profile8IProfileENS2_15CmifDomainProxyINS0_4hipc6client38Hipc2ClientSessionManagedProxyKindBaseINSA_18Hipc2ProxyKindBaseILNS9_6detail11MessageTypeE6EEEEEEENS0_25StatelessAllocationPolicyINS0_22ExpHeapStaticAllocatorILm2048ENS5_6detail12ObjectHolder24ObjectHolderAllocatorTagEEEEES7_E19_nn_sf_sync_GetBaseENS0_3OutINS6_11ProfileBaseEvEE
 00000000:000000710003F1D0       _ZN2nn2sf4cmif6client6detail13CmifProxyImplINS_7account7profile8IProfileENS2_15CmifDomainProxyINS0_4hipc6client38Hipc2ClientSessionManagedProxyKindBaseINSA_18Hipc2ProxyKindBaseILNS9_6detail11MessageTypeE6EEEEEEENS0_25StatelessAllocationPolicyINS0_22ExpHeapStaticAllocatorILm2048ENS5_6detail12ObjectHolder24ObjectHolderAllocatorTagEEEEES7_E24_nn_sf_sync_GetImageSizeENS0_3OutIjvEE
 00000000:000000710003F1F0       _ZN2nn2sf4cmif6client6detail13CmifProxyImplINS_7account7profile8IProfileENS2_15CmifDomainProxyINS0_4hipc6client38Hipc2ClientSessionManagedProxyKindBaseINSA_18Hipc2ProxyKindBaseILNS9_6detail11MessageTypeE6EEEEEEENS0_25StatelessAllocationPolicyINS0_22ExpHeapStaticAllocatorILm2048ENS5_6detail12ObjectHolder24ObjectHolderAllocatorTagEEEEES7_E21_nn_sf_sync_LoadImageENS0_3OutIjvEERKNS0_9OutBufferE
 00000000:000000710003F220       _ZN2nn2sf4cmif6client6detail13CmifProxyImplINS_7account7profile8IProfileENS2_15CmifDomainProxyINS0_4hipc6client38Hipc2ClientSessionManagedProxyKindBaseINSA_18Hipc2ProxyKindBaseILNS9_6detail11MessageTypeE6EEEEEEENS0_25StatelessAllocationPolicyINS0_22ExpHeapStaticAllocatorILm2048ENS5_6detail12ObjectHolder24ObjectHolderAllocatorTagEEEEES7_E17GetCmifBaseObjectEv
 00000000:000000710003F230       _ZThn32_N2nn2sf4cmif6client6detail13CmifProxyImplINS_7account7profile8IProfileENS2_15CmifDomainProxyINS0_4hipc6client38Hipc2ClientSessionManagedProxyKindBaseINSA_18Hipc2ProxyKindBaseILNS9_6detail11MessageTypeE6EEEEEEENS0_25StatelessAllocationPolicyINS0_22ExpHeapStaticAllocatorILm2048ENS5_6detail12ObjectHolder24ObjectHolderAllocatorTagEEEEES7_E17GetCmifBaseObjectEv
 00000000:000000710003F240       _ZN2nn2sf4cmif6client34CmifDomainProxyClientCoreProcessorINS0_4hipc6client38Hipc2ClientSessionManagedProxyKindBaseINS5_18Hipc2ProxyKindBaseILNS4_6detail11MessageTypeE6EEEEENS1_6detail14CoreMethodInfoINSt3__15tupleIJNSC_18OutRawArgumentInfoILm56ELm8ELl0EEENSC_18BufferArgumentInfoILi0ELi26ELm128EEEEEELm0ELm56ELb0EEESK_E7ProcessEPNS2_23CmifDomainClientMessageISB_E15ProxyBaseObjectENS2_24OutRawClientArgumentTypeILm56ELm8EEENS2_24BufferClientArgumentTypeEj
 00000000:000000710003F450       _ZN2nn2sf4cmif6client34CmifDomainProxyClientCoreProcessorINS0_4hipc6client38Hipc2ClientSessionManagedProxyKindBaseINS5_18Hipc2ProxyKindBaseILNS4_6detail11MessageTypeE6EEEEENS1_6detail14CoreMethodInfoINSt3__15tupleIJNSC_18OutRawArgumentInfoILm56ELm8ELl0EEEEEELm0ELm56ELb0EEESI_E7ProcessEPNS2_23CmifDomainClientMessageISB_E15ProxyBaseObjectENS2_24OutRawClientArgumentTypeILm56ELm8EEEj
 00000000:000000710003F5B0       _ZN2nn2sf4cmif6client34CmifDomainProxyClientCoreProcessorINS0_4hipc6client38Hipc2ClientSessionManagedProxyKindBaseINS5_18Hipc2ProxyKindBaseILNS4_6detail11MessageTypeE6EEEEENS1_6detail14CoreMethodInfoINSt3__15tupleIJNSC_18OutRawArgumentInfoILm4ELm4ELl0EEENSC_18BufferArgumentInfoILi0ELi6ELm0EEEEEELm0ELm4ELb0EEESK_E7ProcessEPNS2_23CmifDomainClientMessageISB_E15ProxyBaseObjectENS2_24OutRawClientArgumentTypeILm4ELm4EEENS2_24BufferClientArgumentTypeEj
 00000000:000000710003F7D0       _ZN2nn2sf4cmif6client34CmifDomainProxyClientCoreProcessorINS0_4hipc6client38Hipc2ClientSessionManagedProxyKindBaseINS5_18Hipc2ProxyKindBaseILNS4_6detail11MessageTypeE6EEEEENS1_6detail14CoreMethodInfoINSt3__15tupleIJNSC_18OutRawArgumentInfoILm16ELm1ELl0EEENSC_17InRawArgumentInfoILm16ELm8ELl0EEEEEELm16ELm16ELb0EEESK_E7ProcessEPNS2_23CmifDomainClientMessageISB_E15ProxyBaseObjectENS2_24OutRawClientArgumentTypeILm16ELm1EEENS2_23InRawClientArgumentTypeILm16ELm8EvEEj
 00000000:000000710003F940       _ZN2nn2sf4cmif6client34CmifDomainProxyClientCoreProcessorINS0_4hipc6client38Hipc2ClientSessionManagedProxyKindBaseINS5_18Hipc2ProxyKindBaseILNS4_6detail11MessageTypeE6EEEEENS1_6detail14CoreMethodInfoINSt3__15tupleIJNSC_18OutRawArgumentInfoILm1ELm1ELl0EEENSC_17InRawArgumentInfoILm8ELm8ELl0EEEEEELm8ELm1ELb1EEESK_E7ProcessEPNS2_23CmifDomainClientMessageISB_E15ProxyBaseObjectENS2_24OutRawClientArgumentTypeILm1ELm1EEENS2_23InRawClientArgumentTypeILm8ELm8EvEEj
 00000000:000000710003FAA0       _ZN2nn2sf4cmif6client34CmifDomainProxyClientCoreProcessorINS0_4hipc6client38Hipc2ClientSessionManagedProxyKindBaseINS5_18Hipc2ProxyKindBaseILNS4_6detail11MessageTypeE6EEEEENS1_6detail14CoreMethodInfoINSt3__15tupleIJNSC_18OutRawArgumentInfoILm16ELm8ELl0EEENSC_17InRawArgumentInfoILm1ELm1ELl0EEEEEELm1ELm16ELb0EEESK_E7ProcessEPNS2_23CmifDomainClientMessageISB_E15ProxyBaseObjectENS2_24OutRawClientArgumentTypeILm16ELm8EEENS2_23InRawClientArgumentTypeILm1ELm1EvEEj
 00000000:000000710003FC00       _ZN2nn2sf4cmif6client32GetClientProcessorWithObjectBaseINS2_15CmifDomainProxyINS0_4hipc6client38Hipc2ClientSessionManagedProxyKindBaseINS6_18Hipc2ProxyKindBaseILNS5_6detail11MessageTypeE6EEEEEEEE14ObjectAssignerINS0_25StatelessAllocationPolicyINS0_22ExpHeapStaticAllocatorILm2048ENS_7account6detail12ObjectHolder24ObjectHolderAllocatorTagEEEEENS0_6detail23StatelessDummyAllocatorEE14AllocateObjectINSJ_14ISessionObjectEEEvi
 00000000:000000710003FCC0       _ZN2nn2sf6detail39ObjectImplFactoryWithStatelessAllocatorINS0_4cmif6client16CmifProxyFactoryINS_7account6detail14ISessionObjectENS4_15CmifDomainProxyINS0_4hipc6client38Hipc2ClientSessionManagedProxyKindBaseINSB_18Hipc2ProxyKindBaseILNSA_6detail11MessageTypeE6EEEEEEENS0_25StatelessAllocationPolicyINS0_22ExpHeapStaticAllocatorILm2048ENS7_12ObjectHolder24ObjectHolderAllocatorTagEEEEEE13ServiceObjectESO_E6Object12AddReferenceEv
 00000000:000000710003FCD0       _ZN2nn2sf6detail39ObjectImplFactoryWithStatelessAllocatorINS0_4cmif6client16CmifProxyFactoryINS_7account6detail14ISessionObjectENS4_15CmifDomainProxyINS0_4hipc6client38Hipc2ClientSessionManagedProxyKindBaseINSB_18Hipc2ProxyKindBaseILNSA_6detail11MessageTypeE6EEEEEEENS0_25StatelessAllocationPolicyINS0_22ExpHeapStaticAllocatorILm2048ENS7_12ObjectHolder24ObjectHolderAllocatorTagEEEEEE13ServiceObjectESO_E6Object7ReleaseEv
 00000000:000000710003FD40       _ZN2nn2sf4cmif6client6detail13CmifProxyImplINS_7account6detail14ISessionObjectENS2_15CmifDomainProxyINS0_4hipc6client38Hipc2ClientSessionManagedProxyKindBaseINSA_18Hipc2ProxyKindBaseILNS9_6detail11MessageTypeE6EEEEEEENS0_25StatelessAllocationPolicyINS0_22ExpHeapStaticAllocatorILm2048ENS6_12ObjectHolder24ObjectHolderAllocatorTagEEEEES7_E12GetProxyInfoEv
 00000000:000000710003FD50       _ZN2nn2sf4cmif6client6detail13CmifProxyImplINS_7account6detail14ISessionObjectENS2_15CmifDomainProxyINS0_4hipc6client38Hipc2ClientSessionManagedProxyKindBaseINSA_18Hipc2ProxyKindBaseILNS9_6detail11MessageTypeE6EEEEEEENS0_25StatelessAllocationPolicyINS0_22ExpHeapStaticAllocatorILm2048ENS6_12ObjectHolder24ObjectHolderAllocatorTagEEEEES7_E17_nn_sf_sync_DummyEv
 00000000:000000710003FD70       _ZN2nn2sf4cmif6client6detail13CmifProxyImplINS_7account6detail14ISessionObjectENS2_15CmifDomainProxyINS0_4hipc6client38Hipc2ClientSessionManagedProxyKindBaseINSA_18Hipc2ProxyKindBaseILNS9_6detail11MessageTypeE6EEEEEEENS0_25StatelessAllocationPolicyINS0_22ExpHeapStaticAllocatorILm2048ENS6_12ObjectHolder24ObjectHolderAllocatorTagEEEEES7_E17GetCmifBaseObjectEv
 00000000:000000710003FD80       _ZThn32_N2nn2sf4cmif6client6detail13CmifProxyImplINS_7account6detail14ISessionObjectENS2_15CmifDomainProxyINS0_4hipc6client38Hipc2ClientSessionManagedProxyKindBaseINSA_18Hipc2ProxyKindBaseILNS9_6detail11MessageTypeE6EEEEEEENS0_25StatelessAllocationPolicyINS0_22ExpHeapStaticAllocatorILm2048ENS6_12ObjectHolder24ObjectHolderAllocatorTagEEEEES7_E17GetCmifBaseObjectEv
 00000000:000000710003FD90       _ZN2nn2sf4cmif6client32GetClientProcessorWithObjectBaseINS2_15CmifDomainProxyINS0_4hipc6client38Hipc2ClientSessionManagedProxyKindBaseINS6_18Hipc2ProxyKindBaseILNS5_6detail11MessageTypeE6EEEEEEEE14ObjectAssignerINS0_25StatelessAllocationPolicyINS0_22ExpHeapStaticAllocatorILm2048ENS_7account6detail12ObjectHolder24ObjectHolderAllocatorTagEEEEENS0_6detail23StatelessDummyAllocatorEE14AllocateObjectINSI_4baas22IManagerForApplicationEEEvi
 00000000:000000710003FE50       _ZN2nn2sf6detail39ObjectImplFactoryWithStatelessAllocatorINS0_4cmif6client16CmifProxyFactoryINS_7account4baas22IManagerForApplicationENS4_15CmifDomainProxyINS0_4hipc6client38Hipc2ClientSessionManagedProxyKindBaseINSB_18Hipc2ProxyKindBaseILNSA_6detail11MessageTypeE6EEEEEEENS0_25StatelessAllocationPolicyINS0_22ExpHeapStaticAllocatorILm2048ENS6_6detail12ObjectHolder24ObjectHolderAllocatorTagEEEEEE13ServiceObjectESP_E6Object12AddReferenceEv
 00000000:000000710003FE60       _ZN2nn2sf6detail39ObjectImplFactoryWithStatelessAllocatorINS0_4cmif6client16CmifProxyFactoryINS_7account4baas22IManagerForApplicationENS4_15CmifDomainProxyINS0_4hipc6client38Hipc2ClientSessionManagedProxyKindBaseINSB_18Hipc2ProxyKindBaseILNSA_6detail11MessageTypeE6EEEEEEENS0_25StatelessAllocationPolicyINS0_22ExpHeapStaticAllocatorILm2048ENS6_6detail12ObjectHolder24ObjectHolderAllocatorTagEEEEEE13ServiceObjectESP_E6Object7ReleaseEv
 00000000:000000710003FED0       _ZN2nn2sf4cmif6client6detail13CmifProxyImplINS_7account4baas12IManagerBaseENS2_15CmifDomainProxyINS0_4hipc6client38Hipc2ClientSessionManagedProxyKindBaseINSA_18Hipc2ProxyKindBaseILNS9_6detail11MessageTypeE6EEEEEEENS0_25StatelessAllocationPolicyINS0_22ExpHeapStaticAllocatorILm2048ENS5_6detail12ObjectHolder24ObjectHolderAllocatorTagEEEEENS6_22IManagerForApplicationEE12GetProxyInfoEv
 00000000:000000710003FEE0       _ZN2nn2sf4cmif6client6detail13CmifProxyImplINS_7account4baas12IManagerBaseENS2_15CmifDomainProxyINS0_4hipc6client38Hipc2ClientSessionManagedProxyKindBaseINSA_18Hipc2ProxyKindBaseILNS9_6detail11MessageTypeE6EEEEEEENS0_25StatelessAllocationPolicyINS0_22ExpHeapStaticAllocatorILm2048ENS5_6detail12ObjectHolder24ObjectHolderAllocatorTagEEEEENS6_22IManagerForApplicationEE29_nn_sf_sync_CheckAvailabilityEv
 00000000:000000710003FF00       _ZN2nn2sf4cmif6client6detail13CmifProxyImplINS_7account4baas12IManagerBaseENS2_15CmifDomainProxyINS0_4hipc6client38Hipc2ClientSessionManagedProxyKindBaseINSA_18Hipc2ProxyKindBaseILNS9_6detail11MessageTypeE6EEEEEEENS0_25StatelessAllocationPolicyINS0_22ExpHeapStaticAllocatorILm2048ENS5_6detail12ObjectHolder24ObjectHolderAllocatorTagEEEEENS6_22IManagerForApplicationEE24_nn_sf_sync_GetAccountIdENS0_3OutINS5_23NetworkServiceAccountIdEvEE
 00000000:000000710003FF20       _ZN2nn2sf4cmif6client6detail13CmifProxyImplINS_7account4baas12IManagerBaseENS2_15CmifDomainProxyINS0_4hipc6client38Hipc2ClientSessionManagedProxyKindBaseINSA_18Hipc2ProxyKindBaseILNS9_6detail11MessageTypeE6EEEEEEENS0_25StatelessAllocationPolicyINS0_22ExpHeapStaticAllocatorILm2048ENS5_6detail12ObjectHolder24ObjectHolderAllocatorTagEEEEENS6_22IManagerForApplicationEE35_nn_sf_sync_EnsureIdTokenCacheAsyncENS0_3OutINS0_13SharedPointerINSK_13IAsyncContextEEEvEE
 00000000:000000710003FFB0       _ZN2nn2sf4cmif6client6detail13CmifProxyImplINS_7account4baas12IManagerBaseENS2_15CmifDomainProxyINS0_4hipc6client38Hipc2ClientSessionManagedProxyKindBaseINSA_18Hipc2ProxyKindBaseILNS9_6detail11MessageTypeE6EEEEEEENS0_25StatelessAllocationPolicyINS0_22ExpHeapStaticAllocatorILm2048ENS5_6detail12ObjectHolder24ObjectHolderAllocatorTagEEEEENS6_22IManagerForApplicationEE28_nn_sf_sync_LoadIdTokenCacheENS0_3OutIjvEERKNS0_9OutBufferE
 00000000:000000710003FFE0       _ZN2nn2sf4cmif6client6detail13CmifProxyImplINS_7account4baas22IManagerForApplicationENS2_15CmifDomainProxyINS0_4hipc6client38Hipc2ClientSessionManagedProxyKindBaseINSA_18Hipc2ProxyKindBaseILNS9_6detail11MessageTypeE6EEEEEEENS0_25StatelessAllocationPolicyINS0_22ExpHeapStaticAllocatorILm2048ENS5_6detail12ObjectHolder24ObjectHolderAllocatorTagEEEEES7_E61_nn_sf_sync_GetNintendoAccountUserResourceCacheForApplicationENS0_3OutINS5_17NintendoAccountIdEvEENSQ_INS5_3nas25NasUserBaseForApplicationEvEERKNS0_9OutBufferE
 00000000:0000007100040010       _ZN2nn2sf4cmif6client6detail13CmifProxyImplINS_7account4baas22IManagerForApplicationENS2_15CmifDomainProxyINS0_4hipc6client38Hipc2ClientSessionManagedProxyKindBaseINSA_18Hipc2ProxyKindBaseILNS9_6detail11MessageTypeE6EEEEEEENS0_25StatelessAllocationPolicyINS0_22ExpHeapStaticAllocatorILm2048ENS5_6detail12ObjectHolder24ObjectHolderAllocatorTagEEEEES7_E38_nn_sf_sync_CreateAuthorizationRequestENS0_3OutINS0_13SharedPointerINS5_3nas21IAuthorizationRequestEEEvEERKNS5_45NintendoAccountAuthorizationRequestParametersEONS0_12NativeHandleEj
 00000000:00000071000400D0       _ZN2nn2sf4cmif6client6detail13CmifProxyImplINS_7account4baas22IManagerForApplicationENS2_15CmifDomainProxyINS0_4hipc6client38Hipc2ClientSessionManagedProxyKindBaseINSA_18Hipc2ProxyKindBaseILNS9_6detail11MessageTypeE6EEEEEEENS0_25StatelessAllocationPolicyINS0_22ExpHeapStaticAllocatorILm2048ENS5_6detail12ObjectHolder24ObjectHolderAllocatorTagEEEEES7_E28_nn_sf_sync_StoreOpenContextEv
 00000000:00000071000400F0       _ZN2nn2sf4cmif6client6detail13CmifProxyImplINS_7account4baas22IManagerForApplicationENS2_15CmifDomainProxyINS0_4hipc6client38Hipc2ClientSessionManagedProxyKindBaseINSA_18Hipc2ProxyKindBaseILNS9_6detail11MessageTypeE6EEEEEEENS0_25StatelessAllocationPolicyINS0_22ExpHeapStaticAllocatorILm2048ENS5_6detail12ObjectHolder24ObjectHolderAllocatorTagEEEEES7_E46_nn_sf_sync_LoadNetworkServiceLicenseKindAsyncENS0_3OutINS0_13SharedPointerINSK_38IAsyncNetworkServiceLicenseKindContextEEEvEE
 00000000:0000007100040180       _ZN2nn2sf4cmif6client6detail13CmifProxyImplINS_7account4baas12IManagerBaseENS2_15CmifDomainProxyINS0_4hipc6client38Hipc2ClientSessionManagedProxyKindBaseINSA_18Hipc2ProxyKindBaseILNS9_6detail11MessageTypeE6EEEEEEENS0_25StatelessAllocationPolicyINS0_22ExpHeapStaticAllocatorILm2048ENS5_6detail12ObjectHolder24ObjectHolderAllocatorTagEEEEENS6_22IManagerForApplicationEE17GetCmifBaseObjectEv
 00000000:0000007100040190       _ZThn32_N2nn2sf4cmif6client6detail13CmifProxyImplINS_7account4baas12IManagerBaseENS2_15CmifDomainProxyINS0_4hipc6client38Hipc2ClientSessionManagedProxyKindBaseINSA_18Hipc2ProxyKindBaseILNS9_6detail11MessageTypeE6EEEEEEENS0_25StatelessAllocationPolicyINS0_22ExpHeapStaticAllocatorILm2048ENS5_6detail12ObjectHolder24ObjectHolderAllocatorTagEEEEENS6_22IManagerForApplicationEE17GetCmifBaseObjectEv
 00000000:00000071000401A0       _ZN2nn2sf4cmif6client32GetClientProcessorWithObjectBaseINS2_15CmifDomainProxyINS0_4hipc6client38Hipc2ClientSessionManagedProxyKindBaseINS6_18Hipc2ProxyKindBaseILNS5_6detail11MessageTypeE6EEEEEEEE14ObjectAssignerINS0_25StatelessAllocationPolicyINS0_22ExpHeapStaticAllocatorILm2048ENS_7account6detail12ObjectHolder24ObjectHolderAllocatorTagEEEEENS0_6detail23StatelessDummyAllocatorEE14AllocateObjectINSJ_13IAsyncContextEEEvi
 00000000:0000007100040260       _ZN2nn2sf6detail39ObjectImplFactoryWithStatelessAllocatorINS0_4cmif6client16CmifProxyFactoryINS_7account6detail13IAsyncContextENS4_15CmifDomainProxyINS0_4hipc6client38Hipc2ClientSessionManagedProxyKindBaseINSB_18Hipc2ProxyKindBaseILNSA_6detail11MessageTypeE6EEEEEEENS0_25StatelessAllocationPolicyINS0_22ExpHeapStaticAllocatorILm2048ENS7_12ObjectHolder24ObjectHolderAllocatorTagEEEEEE13ServiceObjectESO_E6Object12AddReferenceEv
 00000000:0000007100040270       _ZN2nn2sf6detail39ObjectImplFactoryWithStatelessAllocatorINS0_4cmif6client16CmifProxyFactoryINS_7account6detail13IAsyncContextENS4_15CmifDomainProxyINS0_4hipc6client38Hipc2ClientSessionManagedProxyKindBaseINSB_18Hipc2ProxyKindBaseILNSA_6detail11MessageTypeE6EEEEEEENS0_25StatelessAllocationPolicyINS0_22ExpHeapStaticAllocatorILm2048ENS7_12ObjectHolder24ObjectHolderAllocatorTagEEEEEE13ServiceObjectESO_E6Object7ReleaseEv
 00000000:00000071000402E0       _ZN2nn2sf4cmif6client6detail13CmifProxyImplINS_7account6detail13IAsyncContextENS2_15CmifDomainProxyINS0_4hipc6client38Hipc2ClientSessionManagedProxyKindBaseINSA_18Hipc2ProxyKindBaseILNS9_6detail11MessageTypeE6EEEEEEENS0_25StatelessAllocationPolicyINS0_22ExpHeapStaticAllocatorILm2048ENS6_12ObjectHolder24ObjectHolderAllocatorTagEEEEES7_E12GetProxyInfoEv
 00000000:00000071000402F0       _ZN2nn2sf4cmif6client6detail13CmifProxyImplINS_7account6detail13IAsyncContextENS2_15CmifDomainProxyINS0_4hipc6client38Hipc2ClientSessionManagedProxyKindBaseINSA_18Hipc2ProxyKindBaseILNS9_6detail11MessageTypeE6EEEEEEENS0_25StatelessAllocationPolicyINS0_22ExpHeapStaticAllocatorILm2048ENS6_12ObjectHolder24ObjectHolderAllocatorTagEEEEES7_E26_nn_sf_sync_GetSystemEventENS0_3OutINS0_12NativeHandleEvEE
 00000000:0000007100040310       _ZN2nn2sf4cmif6client6detail13CmifProxyImplINS_7account6detail13IAsyncContextENS2_15CmifDomainProxyINS0_4hipc6client38Hipc2ClientSessionManagedProxyKindBaseINSA_18Hipc2ProxyKindBaseILNS9_6detail11MessageTypeE6EEEEEEENS0_25StatelessAllocationPolicyINS0_22ExpHeapStaticAllocatorILm2048ENS6_12ObjectHolder24ObjectHolderAllocatorTagEEEEES7_E18_nn_sf_sync_CancelEv
 00000000:0000007100040330       _ZN2nn2sf4cmif6client6detail13CmifProxyImplINS_7account6detail13IAsyncContextENS2_15CmifDomainProxyINS0_4hipc6client38Hipc2ClientSessionManagedProxyKindBaseINSA_18Hipc2ProxyKindBaseILNS9_6detail11MessageTypeE6EEEEEEENS0_25StatelessAllocationPolicyINS0_22ExpHeapStaticAllocatorILm2048ENS6_12ObjectHolder24ObjectHolderAllocatorTagEEEEES7_E19_nn_sf_sync_HasDoneENS0_3OutIbvEE
 00000000:0000007100040350       _ZN2nn2sf4cmif6client6detail13CmifProxyImplINS_7account6detail13IAsyncContextENS2_15CmifDomainProxyINS0_4hipc6client38Hipc2ClientSessionManagedProxyKindBaseINSA_18Hipc2ProxyKindBaseILNS9_6detail11MessageTypeE6EEEEEEENS0_25StatelessAllocationPolicyINS0_22ExpHeapStaticAllocatorILm2048ENS6_12ObjectHolder24ObjectHolderAllocatorTagEEEEES7_E21_nn_sf_sync_GetResultEv
 00000000:0000007100040370       _ZN2nn2sf4cmif6client6detail13CmifProxyImplINS_7account6detail13IAsyncContextENS2_15CmifDomainProxyINS0_4hipc6client38Hipc2ClientSessionManagedProxyKindBaseINSA_18Hipc2ProxyKindBaseILNS9_6detail11MessageTypeE6EEEEEEENS0_25StatelessAllocationPolicyINS0_22ExpHeapStaticAllocatorILm2048ENS6_12ObjectHolder24ObjectHolderAllocatorTagEEEEES7_E17GetCmifBaseObjectEv
 00000000:0000007100040380       _ZThn32_N2nn2sf4cmif6client6detail13CmifProxyImplINS_7account6detail13IAsyncContextENS2_15CmifDomainProxyINS0_4hipc6client38Hipc2ClientSessionManagedProxyKindBaseINSA_18Hipc2ProxyKindBaseILNS9_6detail11MessageTypeE6EEEEEEENS0_25StatelessAllocationPolicyINS0_22ExpHeapStaticAllocatorILm2048ENS6_12ObjectHolder24ObjectHolderAllocatorTagEEEEES7_E17GetCmifBaseObjectEv
 00000000:0000007100040390       _ZN2nn2sf4cmif6client34CmifDomainProxyClientCoreProcessorINS0_4hipc6client38Hipc2ClientSessionManagedProxyKindBaseINS5_18Hipc2ProxyKindBaseILNS4_6detail11MessageTypeE6EEEEENS1_6detail14CoreMethodInfoINSt3__15tupleIJNSC_18OutRawArgumentInfoILm8ELm8ELl0EEENSC_18BufferArgumentInfoILi0ELi26ELm104EEENSI_ILi1ELi6ELm0EEEEEELm0ELm8ELb0EEESL_E7ProcessEPNS2_23CmifDomainClientMessageISB_E15ProxyBaseObjectENS2_24OutRawClientArgumentTypeILm8ELm8EEENS2_24BufferClientArgumentTypeESU_j
 00000000:0000007100040590       _ZN2nn2sf4cmif6client34CmifDomainProxyClientCoreProcessorINS0_4hipc6client38Hipc2ClientSessionManagedProxyKindBaseINS5_18Hipc2ProxyKindBaseILNS4_6detail11MessageTypeE6EEEEENS1_6detail14CoreMethodInfoINSt3__15tupleIJNSC_21OutObjectArgumentInfoILi0ELi0EEENSC_18BufferArgumentInfoILi0ELi25ELm512EEENSC_20InHandleArgumentInfoILi0ELi1EEENSC_17InRawArgumentInfoILm4ELm4ELl0EEEEEELm4ELm0ELb0EEESO_E21ProcessWithOutObjectsEPNS2_23CmifDomainClientMessageISB_E15ProxyBaseObjectENS2_27OutObjectClientArgumentTypeENS2_24BufferClientArgumentTypeENS2_26InHandleClientArgumentTypeENS2_23InRawClientArgumentTypeILm4ELm4EvEEjPNS0_13SharedPointerINS0_14IServiceObjectEEE
 00000000:0000007100040840       _ZN2nn2sf4cmif6client32GetClientProcessorWithObjectBaseINS2_15CmifDomainProxyINS0_4hipc6client38Hipc2ClientSessionManagedProxyKindBaseINS6_18Hipc2ProxyKindBaseILNS5_6detail11MessageTypeE6EEEEEEEE14ObjectAssignerINS0_25StatelessAllocationPolicyINS0_22ExpHeapStaticAllocatorILm2048ENS_7account6detail12ObjectHolder24ObjectHolderAllocatorTagEEEEENS0_6detail23StatelessDummyAllocatorEE14AllocateObjectINSI_3nas21IAuthorizationRequestEEEvi
 00000000:0000007100040900       _ZN2nn2sf6detail39ObjectImplFactoryWithStatelessAllocatorINS0_4cmif6client16CmifProxyFactoryINS_7account3nas21IAuthorizationRequestENS4_15CmifDomainProxyINS0_4hipc6client38Hipc2ClientSessionManagedProxyKindBaseINSB_18Hipc2ProxyKindBaseILNSA_6detail11MessageTypeE6EEEEEEENS0_25StatelessAllocationPolicyINS0_22ExpHeapStaticAllocatorILm2048ENS6_6detail12ObjectHolder24ObjectHolderAllocatorTagEEEEEE13ServiceObjectESP_E6Object12AddReferenceEv
 00000000:0000007100040910       _ZN2nn2sf6detail39ObjectImplFactoryWithStatelessAllocatorINS0_4cmif6client16CmifProxyFactoryINS_7account3nas21IAuthorizationRequestENS4_15CmifDomainProxyINS0_4hipc6client38Hipc2ClientSessionManagedProxyKindBaseINSB_18Hipc2ProxyKindBaseILNSA_6detail11MessageTypeE6EEEEEEENS0_25StatelessAllocationPolicyINS0_22ExpHeapStaticAllocatorILm2048ENS6_6detail12ObjectHolder24ObjectHolderAllocatorTagEEEEEE13ServiceObjectESP_E6Object7ReleaseEv
 00000000:0000007100040980       _ZN2nn2sf4cmif6client6detail13CmifProxyImplINS_7account3nas21IAuthorizationRequestENS2_15CmifDomainProxyINS0_4hipc6client38Hipc2ClientSessionManagedProxyKindBaseINSA_18Hipc2ProxyKindBaseILNS9_6detail11MessageTypeE6EEEEEEENS0_25StatelessAllocationPolicyINS0_22ExpHeapStaticAllocatorILm2048ENS5_6detail12ObjectHolder24ObjectHolderAllocatorTagEEEEES7_E12GetProxyInfoEv
 00000000:0000007100040990       _ZN2nn2sf4cmif6client6detail13CmifProxyImplINS_7account3nas21IAuthorizationRequestENS2_15CmifDomainProxyINS0_4hipc6client38Hipc2ClientSessionManagedProxyKindBaseINSA_18Hipc2ProxyKindBaseILNS9_6detail11MessageTypeE6EEEEEEENS0_25StatelessAllocationPolicyINS0_22ExpHeapStaticAllocatorILm2048ENS5_6detail12ObjectHolder24ObjectHolderAllocatorTagEEEEES7_E24_nn_sf_sync_GetSessionIdENS0_3OutINSK_4UuidEvEE
 00000000:00000071000409B0       _ZN2nn2sf4cmif6client6detail13CmifProxyImplINS_7account3nas21IAuthorizationRequestENS2_15CmifDomainProxyINS0_4hipc6client38Hipc2ClientSessionManagedProxyKindBaseINSA_18Hipc2ProxyKindBaseILNS9_6detail11MessageTypeE6EEEEEEENS0_25StatelessAllocationPolicyINS0_22ExpHeapStaticAllocatorILm2048ENS5_6detail12ObjectHolder24ObjectHolderAllocatorTagEEEEES7_E41_nn_sf_sync_InvokeWithoutInteractionAsyncENS0_3OutINS0_13SharedPointerINSK_13IAsyncContextEEEvEE
 00000000:0000007100040A40       _ZN2nn2sf4cmif6client6detail13CmifProxyImplINS_7account3nas21IAuthorizationRequestENS2_15CmifDomainProxyINS0_4hipc6client38Hipc2ClientSessionManagedProxyKindBaseINSA_18Hipc2ProxyKindBaseILNS9_6detail11MessageTypeE6EEEEEEENS0_25StatelessAllocationPolicyINS0_22ExpHeapStaticAllocatorILm2048ENS5_6detail12ObjectHolder24ObjectHolderAllocatorTagEEEEES7_E24_nn_sf_sync_IsAuthorizedENS0_3OutIbvEE
 00000000:0000007100040A60       _ZN2nn2sf4cmif6client6detail13CmifProxyImplINS_7account3nas21IAuthorizationRequestENS2_15CmifDomainProxyINS0_4hipc6client38Hipc2ClientSessionManagedProxyKindBaseINSA_18Hipc2ProxyKindBaseILNS9_6detail11MessageTypeE6EEEEEEENS0_25StatelessAllocationPolicyINS0_22ExpHeapStaticAllocatorILm2048ENS5_6detail12ObjectHolder24ObjectHolderAllocatorTagEEEEES7_E32_nn_sf_sync_GetAuthorizationCodeENS0_3OutIjvEERKNS0_9OutBufferE
 00000000:0000007100040A90       _ZN2nn2sf4cmif6client6detail13CmifProxyImplINS_7account3nas21IAuthorizationRequestENS2_15CmifDomainProxyINS0_4hipc6client38Hipc2ClientSessionManagedProxyKindBaseINSA_18Hipc2ProxyKindBaseILNS9_6detail11MessageTypeE6EEEEEEENS0_25StatelessAllocationPolicyINS0_22ExpHeapStaticAllocatorILm2048ENS5_6detail12ObjectHolder24ObjectHolderAllocatorTagEEEEES7_E22_nn_sf_sync_GetIdTokenENS0_3OutIjvEERKNS0_9OutBufferE
 00000000:0000007100040AC0       _ZN2nn2sf4cmif6client6detail13CmifProxyImplINS_7account3nas21IAuthorizationRequestENS2_15CmifDomainProxyINS0_4hipc6client38Hipc2ClientSessionManagedProxyKindBaseINSA_18Hipc2ProxyKindBaseILNS9_6detail11MessageTypeE6EEEEEEENS0_25StatelessAllocationPolicyINS0_22ExpHeapStaticAllocatorILm2048ENS5_6detail12ObjectHolder24ObjectHolderAllocatorTagEEEEES7_E20_nn_sf_sync_GetStateENS0_3OutINS6_5StateEvEE
 00000000:0000007100040AF0       _ZN2nn2sf4cmif6client6detail13CmifProxyImplINS_7account3nas21IAuthorizationRequestENS2_15CmifDomainProxyINS0_4hipc6client38Hipc2ClientSessionManagedProxyKindBaseINSA_18Hipc2ProxyKindBaseILNS9_6detail11MessageTypeE6EEEEEEENS0_25StatelessAllocationPolicyINS0_22ExpHeapStaticAllocatorILm2048ENS5_6detail12ObjectHolder24ObjectHolderAllocatorTagEEEEES7_E17GetCmifBaseObjectEv
 00000000:0000007100040B00       _ZThn32_N2nn2sf4cmif6client6detail13CmifProxyImplINS_7account3nas21IAuthorizationRequestENS2_15CmifDomainProxyINS0_4hipc6client38Hipc2ClientSessionManagedProxyKindBaseINSA_18Hipc2ProxyKindBaseILNS9_6detail11MessageTypeE6EEEEEEENS0_25StatelessAllocationPolicyINS0_22ExpHeapStaticAllocatorILm2048ENS5_6detail12ObjectHolder24ObjectHolderAllocatorTagEEEEES7_E17GetCmifBaseObjectEv
 00000000:0000007100040B10       _ZN2nn2sf4cmif6client34CmifDomainProxyClientCoreProcessorINS0_4hipc6client38Hipc2ClientSessionManagedProxyKindBaseINS5_18Hipc2ProxyKindBaseILNS4_6detail11MessageTypeE6EEEEENS1_6detail14CoreMethodInfoINSt3__15tupleIJNSC_18OutRawArgumentInfoILm16ELm4ELl0EEEEEELm0ELm16ELb0EEESI_E7ProcessEPNS2_23CmifDomainClientMessageISB_E15ProxyBaseObjectENS2_24OutRawClientArgumentTypeILm16ELm4EEEj
 00000000:0000007100040C70       _ZN2nn2sf4cmif6client34CmifDomainProxyClientCoreProcessorINS0_4hipc6client38Hipc2ClientSessionManagedProxyKindBaseINS5_18Hipc2ProxyKindBaseILNS4_6detail11MessageTypeE6EEEEENS1_6detail14CoreMethodInfoINSt3__15tupleIJNSC_18BufferArgumentInfoILi0ELi26ELm128EEEEEELm0ELm0ELb0EEESI_E7ProcessEPNS2_23CmifDomainClientMessageISB_E15ProxyBaseObjectENS2_24BufferClientArgumentTypeEj
 00000000:0000007100040E60       _ZN2nn2sf4cmif6client32GetClientProcessorWithObjectBaseINS2_15CmifDomainProxyINS0_4hipc6client38Hipc2ClientSessionManagedProxyKindBaseINS6_18Hipc2ProxyKindBaseILNS5_6detail11MessageTypeE6EEEEEEEE14ObjectAssignerINS0_25StatelessAllocationPolicyINS0_22ExpHeapStaticAllocatorILm2048ENS_7account6detail12ObjectHolder24ObjectHolderAllocatorTagEEEEENS0_6detail23StatelessDummyAllocatorEE14AllocateObjectINSJ_38IAsyncNetworkServiceLicenseKindContextEEEvi
 00000000:0000007100040F20       _ZN2nn2sf6detail39ObjectImplFactoryWithStatelessAllocatorINS0_4cmif6client16CmifProxyFactoryINS_7account6detail38IAsyncNetworkServiceLicenseKindContextENS4_15CmifDomainProxyINS0_4hipc6client38Hipc2ClientSessionManagedProxyKindBaseINSB_18Hipc2ProxyKindBaseILNSA_6detail11MessageTypeE6EEEEEEENS0_25StatelessAllocationPolicyINS0_22ExpHeapStaticAllocatorILm2048ENS7_12ObjectHolder24ObjectHolderAllocatorTagEEEEEE13ServiceObjectESO_E6Object12AddReferenceEv
 00000000:0000007100040F30       _ZN2nn2sf6detail39ObjectImplFactoryWithStatelessAllocatorINS0_4cmif6client16CmifProxyFactoryINS_7account6detail38IAsyncNetworkServiceLicenseKindContextENS4_15CmifDomainProxyINS0_4hipc6client38Hipc2ClientSessionManagedProxyKindBaseINSB_18Hipc2ProxyKindBaseILNSA_6detail11MessageTypeE6EEEEEEENS0_25StatelessAllocationPolicyINS0_22ExpHeapStaticAllocatorILm2048ENS7_12ObjectHolder24ObjectHolderAllocatorTagEEEEEE13ServiceObjectESO_E6Object7ReleaseEv
 00000000:0000007100040FA0       _ZN2nn2sf4cmif6client6detail13CmifProxyImplINS_7account6detail13IAsyncContextENS2_15CmifDomainProxyINS0_4hipc6client38Hipc2ClientSessionManagedProxyKindBaseINSA_18Hipc2ProxyKindBaseILNS9_6detail11MessageTypeE6EEEEEEENS0_25StatelessAllocationPolicyINS0_22ExpHeapStaticAllocatorILm2048ENS6_12ObjectHolder24ObjectHolderAllocatorTagEEEEENS6_38IAsyncNetworkServiceLicenseKindContextEE12GetProxyInfoEv
 00000000:0000007100040FB0       _ZN2nn2sf4cmif6client6detail13CmifProxyImplINS_7account6detail13IAsyncContextENS2_15CmifDomainProxyINS0_4hipc6client38Hipc2ClientSessionManagedProxyKindBaseINSA_18Hipc2ProxyKindBaseILNS9_6detail11MessageTypeE6EEEEEEENS0_25StatelessAllocationPolicyINS0_22ExpHeapStaticAllocatorILm2048ENS6_12ObjectHolder24ObjectHolderAllocatorTagEEEEENS6_38IAsyncNetworkServiceLicenseKindContextEE26_nn_sf_sync_GetSystemEventENS0_3OutINS0_12NativeHandleEvEE
 00000000:0000007100040FD0       _ZN2nn2sf4cmif6client6detail13CmifProxyImplINS_7account6detail13IAsyncContextENS2_15CmifDomainProxyINS0_4hipc6client38Hipc2ClientSessionManagedProxyKindBaseINSA_18Hipc2ProxyKindBaseILNS9_6detail11MessageTypeE6EEEEEEENS0_25StatelessAllocationPolicyINS0_22ExpHeapStaticAllocatorILm2048ENS6_12ObjectHolder24ObjectHolderAllocatorTagEEEEENS6_38IAsyncNetworkServiceLicenseKindContextEE18_nn_sf_sync_CancelEv
 00000000:0000007100040FF0       _ZN2nn2sf4cmif6client6detail13CmifProxyImplINS_7account6detail13IAsyncContextENS2_15CmifDomainProxyINS0_4hipc6client38Hipc2ClientSessionManagedProxyKindBaseINSA_18Hipc2ProxyKindBaseILNS9_6detail11MessageTypeE6EEEEEEENS0_25StatelessAllocationPolicyINS0_22ExpHeapStaticAllocatorILm2048ENS6_12ObjectHolder24ObjectHolderAllocatorTagEEEEENS6_38IAsyncNetworkServiceLicenseKindContextEE19_nn_sf_sync_HasDoneENS0_3OutIbvEE
 00000000:0000007100041010       _ZN2nn2sf4cmif6client6detail13CmifProxyImplINS_7account6detail13IAsyncContextENS2_15CmifDomainProxyINS0_4hipc6client38Hipc2ClientSessionManagedProxyKindBaseINSA_18Hipc2ProxyKindBaseILNS9_6detail11MessageTypeE6EEEEEEENS0_25StatelessAllocationPolicyINS0_22ExpHeapStaticAllocatorILm2048ENS6_12ObjectHolder24ObjectHolderAllocatorTagEEEEENS6_38IAsyncNetworkServiceLicenseKindContextEE21_nn_sf_sync_GetResultEv
 00000000:0000007100041030       _ZN2nn2sf4cmif6client6detail13CmifProxyImplINS_7account6detail38IAsyncNetworkServiceLicenseKindContextENS2_15CmifDomainProxyINS0_4hipc6client38Hipc2ClientSessionManagedProxyKindBaseINSA_18Hipc2ProxyKindBaseILNS9_6detail11MessageTypeE6EEEEEEENS0_25StatelessAllocationPolicyINS0_22ExpHeapStaticAllocatorILm2048ENS6_12ObjectHolder24ObjectHolderAllocatorTagEEEEES7_E40_nn_sf_sync_GetNetworkServiceLicenseKindENS0_3OutIivEE
 00000000:0000007100041050       _ZN2nn2sf4cmif6client6detail13CmifProxyImplINS_7account6detail13IAsyncContextENS2_15CmifDomainProxyINS0_4hipc6client38Hipc2ClientSessionManagedProxyKindBaseINSA_18Hipc2ProxyKindBaseILNS9_6detail11MessageTypeE6EEEEEEENS0_25StatelessAllocationPolicyINS0_22ExpHeapStaticAllocatorILm2048ENS6_12ObjectHolder24ObjectHolderAllocatorTagEEEEENS6_38IAsyncNetworkServiceLicenseKindContextEE17GetCmifBaseObjectEv
 00000000:0000007100041060       _ZThn32_N2nn2sf4cmif6client6detail13CmifProxyImplINS_7account6detail13IAsyncContextENS2_15CmifDomainProxyINS0_4hipc6client38Hipc2ClientSessionManagedProxyKindBaseINSA_18Hipc2ProxyKindBaseILNS9_6detail11MessageTypeE6EEEEEEENS0_25StatelessAllocationPolicyINS0_22ExpHeapStaticAllocatorILm2048ENS6_12ObjectHolder24ObjectHolderAllocatorTagEEEEENS6_38IAsyncNetworkServiceLicenseKindContextEE17GetCmifBaseObjectEv
 00000000:0000007100041070       _ZN2nn2sf4cmif6client34CmifDomainProxyClientCoreProcessorINS0_4hipc6client38Hipc2ClientSessionManagedProxyKindBaseINS5_18Hipc2ProxyKindBaseILNS4_6detail11MessageTypeE6EEEEENS1_6detail14CoreMethodInfoINSt3__15tupleIJNSC_17InRawArgumentInfoILm16ELm8ELl0EEENSC_18BufferArgumentInfoILi0ELi5ELm0EEEEEELm16ELm0ELb0EEESK_E7ProcessEPNS2_23CmifDomainClientMessageISB_E15ProxyBaseObjectENS2_23InRawClientArgumentTypeILm16ELm8EvEENS2_24BufferClientArgumentTypeEj
 00000000:0000007100041280       _ZN2nn2sf4cmif6client34CmifDomainProxyClientCoreProcessorINS0_4hipc6client38Hipc2ClientSessionManagedProxyKindBaseINS5_18Hipc2ProxyKindBaseILNS4_6detail11MessageTypeE6EEEEENS1_6detail14CoreMethodInfoINSt3__15tupleIJNSC_17InRawArgumentInfoILm16ELm8ELl0EEEEEELm16ELm0ELb0EEESI_E7ProcessEPNS2_23CmifDomainClientMessageISB_E15ProxyBaseObjectENS2_23InRawClientArgumentTypeILm16ELm8EvEEj
 00000000:00000071000413D0       _ZN2nn2sf4cmif6client34CmifDomainProxyClientCoreProcessorINS0_4hipc6client38Hipc2ClientSessionManagedProxyKindBaseINS5_18Hipc2ProxyKindBaseILNS4_6detail11MessageTypeE6EEEEENS1_6detail14CoreMethodInfoINSt3__15tupleIJNSC_21OutObjectArgumentInfoILi0ELi0EEENSC_20InHandleArgumentInfoILi0ELi1EEENSC_17InRawArgumentInfoILm4ELm4ELl0EEEEEELm4ELm0ELb0EEESM_E21ProcessWithOutObjectsEPNS2_23CmifDomainClientMessageISB_E15ProxyBaseObjectENS2_27OutObjectClientArgumentTypeENS2_26InHandleClientArgumentTypeENS2_23InRawClientArgumentTypeILm4ELm4EvEEjPNS0_13SharedPointerINS0_14IServiceObjectEEE
 00000000:00000071000415E0       _ZN2nn2sf4cmif6client32GetClientProcessorWithObjectBaseINS2_15CmifDomainProxyINS0_4hipc6client38Hipc2ClientSessionManagedProxyKindBaseINS6_18Hipc2ProxyKindBaseILNS5_6detail11MessageTypeE6EEEEEEEE14ObjectAssignerINS0_25StatelessAllocationPolicyINS0_22ExpHeapStaticAllocatorILm2048ENS_7account6detail12ObjectHolder24ObjectHolderAllocatorTagEEEEENS0_6detail23StatelessDummyAllocatorEE14AllocateObjectINSI_4baas18IGuestLoginRequestEEEvi
 00000000:00000071000416A0       _ZN2nn2sf6detail39ObjectImplFactoryWithStatelessAllocatorINS0_4cmif6client16CmifProxyFactoryINS_7account4baas18IGuestLoginRequestENS4_15CmifDomainProxyINS0_4hipc6client38Hipc2ClientSessionManagedProxyKindBaseINSB_18Hipc2ProxyKindBaseILNSA_6detail11MessageTypeE6EEEEEEENS0_25StatelessAllocationPolicyINS0_22ExpHeapStaticAllocatorILm2048ENS6_6detail12ObjectHolder24ObjectHolderAllocatorTagEEEEEE13ServiceObjectESP_E6Object12AddReferenceEv
 00000000:00000071000416B0       _ZN2nn2sf6detail39ObjectImplFactoryWithStatelessAllocatorINS0_4cmif6client16CmifProxyFactoryINS_7account4baas18IGuestLoginRequestENS4_15CmifDomainProxyINS0_4hipc6client38Hipc2ClientSessionManagedProxyKindBaseINSB_18Hipc2ProxyKindBaseILNSA_6detail11MessageTypeE6EEEEEEENS0_25StatelessAllocationPolicyINS0_22ExpHeapStaticAllocatorILm2048ENS6_6detail12ObjectHolder24ObjectHolderAllocatorTagEEEEEE13ServiceObjectESP_E6Object7ReleaseEv
 00000000:0000007100041720       _ZN2nn2sf4cmif6client6detail13CmifProxyImplINS_7account4baas18IGuestLoginRequestENS2_15CmifDomainProxyINS0_4hipc6client38Hipc2ClientSessionManagedProxyKindBaseINSA_18Hipc2ProxyKindBaseILNS9_6detail11MessageTypeE6EEEEEEENS0_25StatelessAllocationPolicyINS0_22ExpHeapStaticAllocatorILm2048ENS5_6detail12ObjectHolder24ObjectHolderAllocatorTagEEEEES7_E12GetProxyInfoEv
 00000000:0000007100041730       _ZN2nn2sf4cmif6client6detail13CmifProxyImplINS_7account4baas18IGuestLoginRequestENS2_15CmifDomainProxyINS0_4hipc6client38Hipc2ClientSessionManagedProxyKindBaseINSA_18Hipc2ProxyKindBaseILNS9_6detail11MessageTypeE6EEEEEEENS0_25StatelessAllocationPolicyINS0_22ExpHeapStaticAllocatorILm2048ENS5_6detail12ObjectHolder24ObjectHolderAllocatorTagEEEEES7_E24_nn_sf_sync_GetSessionIdENS0_3OutINSK_4UuidEvEE
 00000000:0000007100041750       _ZN2nn2sf4cmif6client6detail13CmifProxyImplINS_7account4baas18IGuestLoginRequestENS2_15CmifDomainProxyINS0_4hipc6client38Hipc2ClientSessionManagedProxyKindBaseINSA_18Hipc2ProxyKindBaseILNS9_6detail11MessageTypeE6EEEEEEENS0_25StatelessAllocationPolicyINS0_22ExpHeapStaticAllocatorILm2048ENS5_6detail12ObjectHolder24ObjectHolderAllocatorTagEEEEES7_E24_nn_sf_sync_GetAccountIdENS0_3OutINS5_23NetworkServiceAccountIdEvEE
 00000000:0000007100041770       _ZN2nn2sf4cmif6client6detail13CmifProxyImplINS_7account4baas18IGuestLoginRequestENS2_15CmifDomainProxyINS0_4hipc6client38Hipc2ClientSessionManagedProxyKindBaseINSA_18Hipc2ProxyKindBaseILNS9_6detail11MessageTypeE6EEEEEEENS0_25StatelessAllocationPolicyINS0_22ExpHeapStaticAllocatorILm2048ENS5_6detail12ObjectHolder24ObjectHolderAllocatorTagEEEEES7_E38_nn_sf_sync_GetLinkedNintendoAccountIdENS0_3OutINS5_17NintendoAccountIdEvEE
 00000000:0000007100041790       _ZN2nn2sf4cmif6client6detail13CmifProxyImplINS_7account4baas18IGuestLoginRequestENS2_15CmifDomainProxyINS0_4hipc6client38Hipc2ClientSessionManagedProxyKindBaseINSA_18Hipc2ProxyKindBaseILNS9_6detail11MessageTypeE6EEEEEEENS0_25StatelessAllocationPolicyINS0_22ExpHeapStaticAllocatorILm2048ENS5_6detail12ObjectHolder24ObjectHolderAllocatorTagEEEEES7_E23_nn_sf_sync_GetNicknameERKNS0_8OutArrayIcEE
 00000000:00000071000417C0       _ZN2nn2sf4cmif6client6detail13CmifProxyImplINS_7account4baas18IGuestLoginRequestENS2_15CmifDomainProxyINS0_4hipc6client38Hipc2ClientSessionManagedProxyKindBaseINSA_18Hipc2ProxyKindBaseILNS9_6detail11MessageTypeE6EEEEEEENS0_25StatelessAllocationPolicyINS0_22ExpHeapStaticAllocatorILm2048ENS5_6detail12ObjectHolder24ObjectHolderAllocatorTagEEEEES7_E27_nn_sf_sync_GetProfileImageENS0_3OutIjvEERKNS0_9OutBufferE
 00000000:00000071000417F0       _ZN2nn2sf4cmif6client6detail13CmifProxyImplINS_7account4baas18IGuestLoginRequestENS2_15CmifDomainProxyINS0_4hipc6client38Hipc2ClientSessionManagedProxyKindBaseINSA_18Hipc2ProxyKindBaseILNS9_6detail11MessageTypeE6EEEEEEENS0_25StatelessAllocationPolicyINS0_22ExpHeapStaticAllocatorILm2048ENS5_6detail12ObjectHolder24ObjectHolderAllocatorTagEEEEES7_E28_nn_sf_sync_LoadIdTokenCacheENS0_3OutIjvEERKNS0_9OutBufferE
 00000000:0000007100041820       _ZN2nn2sf4cmif6client6detail13CmifProxyImplINS_7account4baas18IGuestLoginRequestENS2_15CmifDomainProxyINS0_4hipc6client38Hipc2ClientSessionManagedProxyKindBaseINSA_18Hipc2ProxyKindBaseILNS9_6detail11MessageTypeE6EEEEEEENS0_25StatelessAllocationPolicyINS0_22ExpHeapStaticAllocatorILm2048ENS5_6detail12ObjectHolder24ObjectHolderAllocatorTagEEEEES7_E17GetCmifBaseObjectEv
 00000000:0000007100041830       _ZThn32_N2nn2sf4cmif6client6detail13CmifProxyImplINS_7account4baas18IGuestLoginRequestENS2_15CmifDomainProxyINS0_4hipc6client38Hipc2ClientSessionManagedProxyKindBaseINSA_18Hipc2ProxyKindBaseILNS9_6detail11MessageTypeE6EEEEEEENS0_25StatelessAllocationPolicyINS0_22ExpHeapStaticAllocatorILm2048ENS5_6detail12ObjectHolder24ObjectHolderAllocatorTagEEEEES7_E17GetCmifBaseObjectEv
 00000000:0000007100041840       _ZN2nn7account6detail12ObjectHolder11AcquireImplINS0_31IAccountServiceForSystemServiceEEENS_6ResultEPPT_PKc
 00000000:0000007100041950       _ZN2nn2sf4hipc6client34HipcSimpleClientSessionManagerBaseINS2_29DefaultSessionResourceManagerEE4Impl18InitializeByHandleINS_7account31IAccountServiceForSystemServiceENS0_25StatelessAllocationPolicyINS0_22ExpHeapStaticAllocatorILm2048ENS8_6detail12ObjectHolder24ObjectHolderAllocatorTagEEEEEEENS_6ResultEPNS0_13SharedPointerIT_EENS_3svc6HandleE
 00000000:0000007100041A70       _ZN2nn2sf6detail39ObjectImplFactoryWithStatelessAllocatorINS0_4cmif6client16CmifProxyFactoryINS_7account31IAccountServiceForSystemServiceENS4_15CmifDomainProxyINS0_4hipc6client38Hipc2ClientSessionManagedProxyKindBaseINSA_18Hipc2ProxyKindBaseILNS9_6detail11MessageTypeE6EEEEEEENS0_25StatelessAllocationPolicyINS0_22ExpHeapStaticAllocatorILm2048ENS6_6detail12ObjectHolder24ObjectHolderAllocatorTagEEEEEE13ServiceObjectESO_E6Object12AddReferenceEv
 00000000:0000007100041A80       _ZN2nn2sf6detail39ObjectImplFactoryWithStatelessAllocatorINS0_4cmif6client16CmifProxyFactoryINS_7account31IAccountServiceForSystemServiceENS4_15CmifDomainProxyINS0_4hipc6client38Hipc2ClientSessionManagedProxyKindBaseINSA_18Hipc2ProxyKindBaseILNS9_6detail11MessageTypeE6EEEEEEENS0_25StatelessAllocationPolicyINS0_22ExpHeapStaticAllocatorILm2048ENS6_6detail12ObjectHolder24ObjectHolderAllocatorTagEEEEEE13ServiceObjectESO_E6Object7ReleaseEv
 00000000:0000007100041AF0       _ZN2nn2sf4cmif6client6detail13CmifProxyImplINS_7account19IAccountServiceBaseENS2_15CmifDomainProxyINS0_4hipc6client38Hipc2ClientSessionManagedProxyKindBaseINS9_18Hipc2ProxyKindBaseILNS8_6detail11MessageTypeE6EEEEEEENS0_25StatelessAllocationPolicyINS0_22ExpHeapStaticAllocatorILm2048ENS5_6detail12ObjectHolder24ObjectHolderAllocatorTagEEEEENS5_31IAccountServiceForSystemServiceEE12GetProxyInfoEv
 00000000:0000007100041B00       _ZN2nn2sf4cmif6client6detail13CmifProxyImplINS_7account19IAccountServiceBaseENS2_15CmifDomainProxyINS0_4hipc6client38Hipc2ClientSessionManagedProxyKindBaseINS9_18Hipc2ProxyKindBaseILNS8_6detail11MessageTypeE6EEEEEEENS0_25StatelessAllocationPolicyINS0_22ExpHeapStaticAllocatorILm2048ENS5_6detail12ObjectHolder24ObjectHolderAllocatorTagEEEEENS5_31IAccountServiceForSystemServiceEE24_nn_sf_sync_GetUserCountENS0_3OutIivEE
 00000000:0000007100041B20       _ZN2nn2sf4cmif6client6detail13CmifProxyImplINS_7account19IAccountServiceBaseENS2_15CmifDomainProxyINS0_4hipc6client38Hipc2ClientSessionManagedProxyKindBaseINS9_18Hipc2ProxyKindBaseILNS8_6detail11MessageTypeE6EEEEEEENS0_25StatelessAllocationPolicyINS0_22ExpHeapStaticAllocatorILm2048ENS5_6detail12ObjectHolder24ObjectHolderAllocatorTagEEEEENS5_31IAccountServiceForSystemServiceEE28_nn_sf_sync_GetUserExistenceENS0_3OutIbvEERKNS5_3UidE
 00000000:0000007100041B40       _ZN2nn2sf4cmif6client6detail13CmifProxyImplINS_7account19IAccountServiceBaseENS2_15CmifDomainProxyINS0_4hipc6client38Hipc2ClientSessionManagedProxyKindBaseINS9_18Hipc2ProxyKindBaseILNS8_6detail11MessageTypeE6EEEEEEENS0_25StatelessAllocationPolicyINS0_22ExpHeapStaticAllocatorILm2048ENS5_6detail12ObjectHolder24ObjectHolderAllocatorTagEEEEENS5_31IAccountServiceForSystemServiceEE24_nn_sf_sync_ListAllUsersERKNS0_8OutArrayINS5_3UidEEE
 00000000:0000007100041B70       _ZN2nn2sf4cmif6client6detail13CmifProxyImplINS_7account19IAccountServiceBaseENS2_15CmifDomainProxyINS0_4hipc6client38Hipc2ClientSessionManagedProxyKindBaseINS9_18Hipc2ProxyKindBaseILNS8_6detail11MessageTypeE6EEEEEEENS0_25StatelessAllocationPolicyINS0_22ExpHeapStaticAllocatorILm2048ENS5_6detail12ObjectHolder24ObjectHolderAllocatorTagEEEEENS5_31IAccountServiceForSystemServiceEE25_nn_sf_sync_ListOpenUsersERKNS0_8OutArrayINS5_3UidEEE
 00000000:0000007100041BA0       _ZN2nn2sf4cmif6client6detail13CmifProxyImplINS_7account19IAccountServiceBaseENS2_15CmifDomainProxyINS0_4hipc6client38Hipc2ClientSessionManagedProxyKindBaseINS9_18Hipc2ProxyKindBaseILNS8_6detail11MessageTypeE6EEEEEEENS0_25StatelessAllocationPolicyINS0_22ExpHeapStaticAllocatorILm2048ENS5_6detail12ObjectHolder24ObjectHolderAllocatorTagEEEEENS5_31IAccountServiceForSystemServiceEE29_nn_sf_sync_GetLastOpenedUserENS0_3OutINS5_3UidEvEE
 00000000:0000007100041BC0       _ZN2nn2sf4cmif6client6detail13CmifProxyImplINS_7account19IAccountServiceBaseENS2_15CmifDomainProxyINS0_4hipc6client38Hipc2ClientSessionManagedProxyKindBaseINS9_18Hipc2ProxyKindBaseILNS8_6detail11MessageTypeE6EEEEEEENS0_25StatelessAllocationPolicyINS0_22ExpHeapStaticAllocatorILm2048ENS5_6detail12ObjectHolder24ObjectHolderAllocatorTagEEEEENS5_31IAccountServiceForSystemServiceEE22_nn_sf_sync_GetProfileENS0_3OutINS0_13SharedPointerINS5_7profile8IProfileEEEvEERKNS5_3UidE
 00000000:0000007100041C60       _ZN2nn2sf4cmif6client6detail13CmifProxyImplINS_7account19IAccountServiceBaseENS2_15CmifDomainProxyINS0_4hipc6client38Hipc2ClientSessionManagedProxyKindBaseINS9_18Hipc2ProxyKindBaseILNS8_6detail11MessageTypeE6EEEEEEENS0_25StatelessAllocationPolicyINS0_22ExpHeapStaticAllocatorILm2048ENS5_6detail12ObjectHolder24ObjectHolderAllocatorTagEEEEENS5_31IAccountServiceForSystemServiceEE28_nn_sf_sync_GetProfileDigestENS0_3OutINS5_13ProfileDigestEvEERKNS5_3UidE
 00000000:0000007100041C80       _ZN2nn2sf4cmif6client6detail13CmifProxyImplINS_7account19IAccountServiceBaseENS2_15CmifDomainProxyINS0_4hipc6client38Hipc2ClientSessionManagedProxyKindBaseINS9_18Hipc2ProxyKindBaseILNS8_6detail11MessageTypeE6EEEEEEENS0_25StatelessAllocationPolicyINS0_22ExpHeapStaticAllocatorILm2048ENS5_6detail12ObjectHolder24ObjectHolderAllocatorTagEEEEENS5_31IAccountServiceForSystemServiceEE46_nn_sf_sync_IsUserRegistrationRequestPermittedENS0_3OutIbvEEm
 00000000:0000007100041CA0       _ZN2nn2sf4cmif6client6detail13CmifProxyImplINS_7account19IAccountServiceBaseENS2_15CmifDomainProxyINS0_4hipc6client38Hipc2ClientSessionManagedProxyKindBaseINS9_18Hipc2ProxyKindBaseILNS8_6detail11MessageTypeE6EEEEEEENS0_25StatelessAllocationPolicyINS0_22ExpHeapStaticAllocatorILm2048ENS5_6detail12ObjectHolder24ObjectHolderAllocatorTagEEEEENS5_31IAccountServiceForSystemServiceEE43_nn_sf_sync_TrySelectUserWithoutInteractionENS0_3OutINS5_3UidEvEEb
 00000000:0000007100041CD0       _ZN2nn2sf4cmif6client6detail13CmifProxyImplINS_7account19IAccountServiceBaseENS2_15CmifDomainProxyINS0_4hipc6client38Hipc2ClientSessionManagedProxyKindBaseINS9_18Hipc2ProxyKindBaseILNS8_6detail11MessageTypeE6EEEEEEENS0_25StatelessAllocationPolicyINS0_22ExpHeapStaticAllocatorILm2048ENS5_6detail12ObjectHolder24ObjectHolderAllocatorTagEEEEENS5_31IAccountServiceForSystemServiceEE45_nn_sf_sync_DebugActivateOpenContextRetentionENS0_3OutINS0_13SharedPointerINSJ_14ISessionObjectEEEvEE
 00000000:0000007100041D60       _ZN2nn2sf4cmif6client6detail13CmifProxyImplINS_7account31IAccountServiceForSystemServiceENS2_15CmifDomainProxyINS0_4hipc6client38Hipc2ClientSessionManagedProxyKindBaseINS9_18Hipc2ProxyKindBaseILNS8_6detail11MessageTypeE6EEEEEEENS0_25StatelessAllocationPolicyINS0_22ExpHeapStaticAllocatorILm2048ENS5_6detail12ObjectHolder24ObjectHolderAllocatorTagEEEEES6_E39_nn_sf_sync_GetUserRegistrationNotifierENS0_3OutINS0_13SharedPointerINSJ_9INotifierEEEvEE
 00000000:0000007100041DF0       _ZN2nn2sf4cmif6client6detail13CmifProxyImplINS_7account31IAccountServiceForSystemServiceENS2_15CmifDomainProxyINS0_4hipc6client38Hipc2ClientSessionManagedProxyKindBaseINS9_18Hipc2ProxyKindBaseILNS8_6detail11MessageTypeE6EEEEEEENS0_25StatelessAllocationPolicyINS0_22ExpHeapStaticAllocatorILm2048ENS5_6detail12ObjectHolder24ObjectHolderAllocatorTagEEEEES6_E38_nn_sf_sync_GetUserStateChangeNotifierENS0_3OutINS0_13SharedPointerINSJ_9INotifierEEEvEE
 00000000:0000007100041E80       _ZN2nn2sf4cmif6client6detail13CmifProxyImplINS_7account31IAccountServiceForSystemServiceENS2_15CmifDomainProxyINS0_4hipc6client38Hipc2ClientSessionManagedProxyKindBaseINS9_18Hipc2ProxyKindBaseILNS8_6detail11MessageTypeE6EEEEEEENS0_25StatelessAllocationPolicyINS0_22ExpHeapStaticAllocatorILm2048ENS5_6detail12ObjectHolder24ObjectHolderAllocatorTagEEEEES6_E49_nn_sf_sync_GetBaasAccountManagerForSystemServiceENS0_3OutINS0_13SharedPointerINS5_4baas24IManagerForSystemServiceEEEvEERKNS5_3UidE
 00000000:0000007100041F20       _ZN2nn2sf4cmif6client6detail13CmifProxyImplINS_7account31IAccountServiceForSystemServiceENS2_15CmifDomainProxyINS0_4hipc6client38Hipc2ClientSessionManagedProxyKindBaseINS9_18Hipc2ProxyKindBaseILNS8_6detail11MessageTypeE6EEEEEEENS0_25StatelessAllocationPolicyINS0_22ExpHeapStaticAllocatorILm2048ENS5_6detail12ObjectHolder24ObjectHolderAllocatorTagEEEEES6_E49_nn_sf_sync_GetBaasUserAvailabilityChangeNotifierENS0_3OutINS0_13SharedPointerINSJ_9INotifierEEEvEE
 00000000:0000007100041FB0       _ZN2nn2sf4cmif6client6detail13CmifProxyImplINS_7account31IAccountServiceForSystemServiceENS2_15CmifDomainProxyINS0_4hipc6client38Hipc2ClientSessionManagedProxyKindBaseINS9_18Hipc2ProxyKindBaseILNS8_6detail11MessageTypeE6EEEEEEENS0_25StatelessAllocationPolicyINS0_22ExpHeapStaticAllocatorILm2048ENS5_6detail12ObjectHolder24ObjectHolderAllocatorTagEEEEES6_E36_nn_sf_sync_GetProfileUpdateNotifierENS0_3OutINS0_13SharedPointerINSJ_9INotifierEEEvEE
 00000000:0000007100042040       _ZN2nn2sf4cmif6client6detail13CmifProxyImplINS_7account31IAccountServiceForSystemServiceENS2_15CmifDomainProxyINS0_4hipc6client38Hipc2ClientSessionManagedProxyKindBaseINS9_18Hipc2ProxyKindBaseILNS8_6detail11MessageTypeE6EEEEEEENS0_25StatelessAllocationPolicyINS0_22ExpHeapStaticAllocatorILm2048ENS5_6detail12ObjectHolder24ObjectHolderAllocatorTagEEEEES6_E48_nn_sf_sync_CheckNetworkServiceAvailabilityAsyncENS0_3OutINS0_13SharedPointerINSJ_13IAsyncContextEEEvEERKNS5_27SystemProgramIdentificationEm
 00000000:00000071000420F0       _ZN2nn2sf4cmif6client6detail13CmifProxyImplINS_7account31IAccountServiceForSystemServiceENS2_15CmifDomainProxyINS0_4hipc6client38Hipc2ClientSessionManagedProxyKindBaseINS9_18Hipc2ProxyKindBaseILNS8_6detail11MessageTypeE6EEEEEEENS0_25StatelessAllocationPolicyINS0_22ExpHeapStaticAllocatorILm2048ENS5_6detail12ObjectHolder24ObjectHolderAllocatorTagEEEEES6_E34_nn_sf_sync_StoreSaveDataThumbnailERKNS5_3UidENS_13ApplicationIdERKNS0_8InBufferE
 00000000:0000007100042120       _ZN2nn2sf4cmif6client6detail13CmifProxyImplINS_7account31IAccountServiceForSystemServiceENS2_15CmifDomainProxyINS0_4hipc6client38Hipc2ClientSessionManagedProxyKindBaseINS9_18Hipc2ProxyKindBaseILNS8_6detail11MessageTypeE6EEEEEEENS0_25StatelessAllocationPolicyINS0_22ExpHeapStaticAllocatorILm2048ENS5_6detail12ObjectHolder24ObjectHolderAllocatorTagEEEEES6_E34_nn_sf_sync_ClearSaveDataThumbnailERKNS5_3UidENS_13ApplicationIdE
 00000000:0000007100042140       _ZN2nn2sf4cmif6client6detail13CmifProxyImplINS_7account31IAccountServiceForSystemServiceENS2_15CmifDomainProxyINS0_4hipc6client38Hipc2ClientSessionManagedProxyKindBaseINS9_18Hipc2ProxyKindBaseILNS8_6detail11MessageTypeE6EEEEEEENS0_25StatelessAllocationPolicyINS0_22ExpHeapStaticAllocatorILm2048ENS5_6detail12ObjectHolder24ObjectHolderAllocatorTagEEEEES6_E33_nn_sf_sync_LoadSaveDataThumbnailENS0_3OutIjvEERKNS0_9OutBufferERKNS5_3UidENS_13ApplicationIdE
 00000000:0000007100042180       _ZN2nn2sf4cmif6client6detail13CmifProxyImplINS_7account31IAccountServiceForSystemServiceENS2_15CmifDomainProxyINS0_4hipc6client38Hipc2ClientSessionManagedProxyKindBaseINS9_18Hipc2ProxyKindBaseILNS8_6detail11MessageTypeE6EEEEEEENS0_25StatelessAllocationPolicyINS0_22ExpHeapStaticAllocatorILm2048ENS5_6detail12ObjectHolder24ObjectHolderAllocatorTagEEEEES6_E41_nn_sf_sync_GetSaveDataThumbnailExistenceENS0_3OutIbvEERKNS5_3UidENS_13ApplicationIdE
 00000000:00000071000421A0       _ZN2nn2sf4cmif6client6detail13CmifProxyImplINS_7account31IAccountServiceForSystemServiceENS2_15CmifDomainProxyINS0_4hipc6client38Hipc2ClientSessionManagedProxyKindBaseINS9_18Hipc2ProxyKindBaseILNS8_6detail11MessageTypeE6EEEEEEENS0_25StatelessAllocationPolicyINS0_22ExpHeapStaticAllocatorILm2048ENS5_6detail12ObjectHolder24ObjectHolderAllocatorTagEEEEES6_E40_nn_sf_sync_ActivateOpenContextRetentionENS0_3OutINS0_13SharedPointerINSJ_14ISessionObjectEEEvEENS_13ApplicationIdE
 00000000:0000007100042240       _ZN2nn2sf4cmif6client6detail13CmifProxyImplINS_7account31IAccountServiceForSystemServiceENS2_15CmifDomainProxyINS0_4hipc6client38Hipc2ClientSessionManagedProxyKindBaseINS9_18Hipc2ProxyKindBaseILNS8_6detail11MessageTypeE6EEEEEEENS0_25StatelessAllocationPolicyINS0_22ExpHeapStaticAllocatorILm2048ENS5_6detail12ObjectHolder24ObjectHolderAllocatorTagEEEEES6_E30_nn_sf_sync_ListQualifiedUsersERKNS0_8OutArrayINS5_3UidEEENS_13ApplicationIdE
 00000000:0000007100042280       _ZN2nn2sf4cmif6client6detail13CmifProxyImplINS_7account31IAccountServiceForSystemServiceENS2_15CmifDomainProxyINS0_4hipc6client38Hipc2ClientSessionManagedProxyKindBaseINS9_18Hipc2ProxyKindBaseILNS8_6detail11MessageTypeE6EEEEEEENS0_25StatelessAllocationPolicyINS0_22ExpHeapStaticAllocatorILm2048ENS5_6detail12ObjectHolder24ObjectHolderAllocatorTagEEEEES6_E40_nn_sf_sync_GetUserLastOpenedApplicationENS0_3OutINS_13ApplicationIdEvEENSP_IjvEERKNS5_3UidE
 00000000:00000071000422A0       _ZN2nn2sf4cmif6client6detail13CmifProxyImplINS_7account31IAccountServiceForSystemServiceENS2_15CmifDomainProxyINS0_4hipc6client38Hipc2ClientSessionManagedProxyKindBaseINS9_18Hipc2ProxyKindBaseILNS8_6detail11MessageTypeE6EEEEEEENS0_25StatelessAllocationPolicyINS0_22ExpHeapStaticAllocatorILm2048ENS5_6detail12ObjectHolder24ObjectHolderAllocatorTagEEEEES6_E44_nn_sf_sync_DebugInvalidateUserResourceCacheERKNS5_3UidE
 00000000:00000071000422C0       _ZN2nn2sf4cmif6client6detail13CmifProxyImplINS_7account31IAccountServiceForSystemServiceENS2_15CmifDomainProxyINS0_4hipc6client38Hipc2ClientSessionManagedProxyKindBaseINS9_18Hipc2ProxyKindBaseILNS8_6detail11MessageTypeE6EEEEEEENS0_25StatelessAllocationPolicyINS0_22ExpHeapStaticAllocatorILm2048ENS5_6detail12ObjectHolder24ObjectHolderAllocatorTagEEEEES6_E34_nn_sf_sync_DebugSetUserStateCloseERKNS5_3UidE
 00000000:00000071000422E0       _ZN2nn2sf4cmif6client6detail13CmifProxyImplINS_7account31IAccountServiceForSystemServiceENS2_15CmifDomainProxyINS0_4hipc6client38Hipc2ClientSessionManagedProxyKindBaseINS9_18Hipc2ProxyKindBaseILNS8_6detail11MessageTypeE6EEEEEEENS0_25StatelessAllocationPolicyINS0_22ExpHeapStaticAllocatorILm2048ENS5_6detail12ObjectHolder24ObjectHolderAllocatorTagEEEEES6_E33_nn_sf_sync_DebugSetUserStateOpenERKNS5_3UidE
 00000000:0000007100042300       _ZN2nn2sf4cmif6client6detail13CmifProxyImplINS_7account19IAccountServiceBaseENS2_15CmifDomainProxyINS0_4hipc6client38Hipc2ClientSessionManagedProxyKindBaseINS9_18Hipc2ProxyKindBaseILNS8_6detail11MessageTypeE6EEEEEEENS0_25StatelessAllocationPolicyINS0_22ExpHeapStaticAllocatorILm2048ENS5_6detail12ObjectHolder24ObjectHolderAllocatorTagEEEEENS5_31IAccountServiceForSystemServiceEE17GetCmifBaseObjectEv
 00000000:0000007100042310       _ZThn32_N2nn2sf4cmif6client6detail13CmifProxyImplINS_7account19IAccountServiceBaseENS2_15CmifDomainProxyINS0_4hipc6client38Hipc2ClientSessionManagedProxyKindBaseINS9_18Hipc2ProxyKindBaseILNS8_6detail11MessageTypeE6EEEEEEENS0_25StatelessAllocationPolicyINS0_22ExpHeapStaticAllocatorILm2048ENS5_6detail12ObjectHolder24ObjectHolderAllocatorTagEEEEENS5_31IAccountServiceForSystemServiceEE17GetCmifBaseObjectEv
 00000000:0000007100042320       _ZN2nn2sf4cmif6client32GetClientProcessorWithObjectBaseINS2_15CmifDomainProxyINS0_4hipc6client38Hipc2ClientSessionManagedProxyKindBaseINS6_18Hipc2ProxyKindBaseILNS5_6detail11MessageTypeE6EEEEEEEE14ObjectAssignerINS0_25StatelessAllocationPolicyINS0_22ExpHeapStaticAllocatorILm2048ENS_7account6detail12ObjectHolder24ObjectHolderAllocatorTagEEEEENS0_6detail23StatelessDummyAllocatorEE14AllocateObjectINSJ_9INotifierEEEvi
 00000000:00000071000423E0       _ZN2nn2sf6detail39ObjectImplFactoryWithStatelessAllocatorINS0_4cmif6client16CmifProxyFactoryINS_7account6detail9INotifierENS4_15CmifDomainProxyINS0_4hipc6client38Hipc2ClientSessionManagedProxyKindBaseINSB_18Hipc2ProxyKindBaseILNSA_6detail11MessageTypeE6EEEEEEENS0_25StatelessAllocationPolicyINS0_22ExpHeapStaticAllocatorILm2048ENS7_12ObjectHolder24ObjectHolderAllocatorTagEEEEEE13ServiceObjectESO_E6Object12AddReferenceEv
 00000000:00000071000423F0       _ZN2nn2sf6detail39ObjectImplFactoryWithStatelessAllocatorINS0_4cmif6client16CmifProxyFactoryINS_7account6detail9INotifierENS4_15CmifDomainProxyINS0_4hipc6client38Hipc2ClientSessionManagedProxyKindBaseINSB_18Hipc2ProxyKindBaseILNSA_6detail11MessageTypeE6EEEEEEENS0_25StatelessAllocationPolicyINS0_22ExpHeapStaticAllocatorILm2048ENS7_12ObjectHolder24ObjectHolderAllocatorTagEEEEEE13ServiceObjectESO_E6Object7ReleaseEv
 00000000:0000007100042460       _ZN2nn2sf4cmif6client6detail13CmifProxyImplINS_7account6detail9INotifierENS2_15CmifDomainProxyINS0_4hipc6client38Hipc2ClientSessionManagedProxyKindBaseINSA_18Hipc2ProxyKindBaseILNS9_6detail11MessageTypeE6EEEEEEENS0_25StatelessAllocationPolicyINS0_22ExpHeapStaticAllocatorILm2048ENS6_12ObjectHolder24ObjectHolderAllocatorTagEEEEES7_E12GetProxyInfoEv
 00000000:0000007100042470       _ZN2nn2sf4cmif6client6detail13CmifProxyImplINS_7account6detail9INotifierENS2_15CmifDomainProxyINS0_4hipc6client38Hipc2ClientSessionManagedProxyKindBaseINSA_18Hipc2ProxyKindBaseILNS9_6detail11MessageTypeE6EEEEEEENS0_25StatelessAllocationPolicyINS0_22ExpHeapStaticAllocatorILm2048ENS6_12ObjectHolder24ObjectHolderAllocatorTagEEEEES7_E26_nn_sf_sync_GetSystemEventENS0_3OutINS0_12NativeHandleEvEE
 00000000:0000007100042490       _ZN2nn2sf4cmif6client6detail13CmifProxyImplINS_7account6detail9INotifierENS2_15CmifDomainProxyINS0_4hipc6client38Hipc2ClientSessionManagedProxyKindBaseINSA_18Hipc2ProxyKindBaseILNS9_6detail11MessageTypeE6EEEEEEENS0_25StatelessAllocationPolicyINS0_22ExpHeapStaticAllocatorILm2048ENS6_12ObjectHolder24ObjectHolderAllocatorTagEEEEES7_E17GetCmifBaseObjectEv
 00000000:00000071000424A0       _ZThn32_N2nn2sf4cmif6client6detail13CmifProxyImplINS_7account6detail9INotifierENS2_15CmifDomainProxyINS0_4hipc6client38Hipc2ClientSessionManagedProxyKindBaseINSA_18Hipc2ProxyKindBaseILNS9_6detail11MessageTypeE6EEEEEEENS0_25StatelessAllocationPolicyINS0_22ExpHeapStaticAllocatorILm2048ENS6_12ObjectHolder24ObjectHolderAllocatorTagEEEEES7_E17GetCmifBaseObjectEv
 00000000:00000071000424B0       _ZN2nn2sf4cmif6client32GetClientProcessorWithObjectBaseINS2_15CmifDomainProxyINS0_4hipc6client38Hipc2ClientSessionManagedProxyKindBaseINS6_18Hipc2ProxyKindBaseILNS5_6detail11MessageTypeE6EEEEEEEE14ObjectAssignerINS0_25StatelessAllocationPolicyINS0_22ExpHeapStaticAllocatorILm2048ENS_7account6detail12ObjectHolder24ObjectHolderAllocatorTagEEEEENS0_6detail23StatelessDummyAllocatorEE14AllocateObjectINSI_4baas24IManagerForSystemServiceEEEvi
 00000000:0000007100042570       _ZN2nn2sf6detail39ObjectImplFactoryWithStatelessAllocatorINS0_4cmif6client16CmifProxyFactoryINS_7account4baas24IManagerForSystemServiceENS4_15CmifDomainProxyINS0_4hipc6client38Hipc2ClientSessionManagedProxyKindBaseINSB_18Hipc2ProxyKindBaseILNSA_6detail11MessageTypeE6EEEEEEENS0_25StatelessAllocationPolicyINS0_22ExpHeapStaticAllocatorILm2048ENS6_6detail12ObjectHolder24ObjectHolderAllocatorTagEEEEEE13ServiceObjectESP_E6Object12AddReferenceEv
 00000000:0000007100042580       _ZN2nn2sf6detail39ObjectImplFactoryWithStatelessAllocatorINS0_4cmif6client16CmifProxyFactoryINS_7account4baas24IManagerForSystemServiceENS4_15CmifDomainProxyINS0_4hipc6client38Hipc2ClientSessionManagedProxyKindBaseINSB_18Hipc2ProxyKindBaseILNSA_6detail11MessageTypeE6EEEEEEENS0_25StatelessAllocationPolicyINS0_22ExpHeapStaticAllocatorILm2048ENS6_6detail12ObjectHolder24ObjectHolderAllocatorTagEEEEEE13ServiceObjectESP_E6Object7ReleaseEv
 00000000:00000071000425F0       _ZN2nn2sf4cmif6client6detail13CmifProxyImplINS_7account4baas12IManagerBaseENS2_15CmifDomainProxyINS0_4hipc6client38Hipc2ClientSessionManagedProxyKindBaseINSA_18Hipc2ProxyKindBaseILNS9_6detail11MessageTypeE6EEEEEEENS0_25StatelessAllocationPolicyINS0_22ExpHeapStaticAllocatorILm2048ENS5_6detail12ObjectHolder24ObjectHolderAllocatorTagEEEEENS6_24IManagerForSystemServiceEE12GetProxyInfoEv
 00000000:0000007100042600       _ZN2nn2sf4cmif6client6detail13CmifProxyImplINS_7account4baas12IManagerBaseENS2_15CmifDomainProxyINS0_4hipc6client38Hipc2ClientSessionManagedProxyKindBaseINSA_18Hipc2ProxyKindBaseILNS9_6detail11MessageTypeE6EEEEEEENS0_25StatelessAllocationPolicyINS0_22ExpHeapStaticAllocatorILm2048ENS5_6detail12ObjectHolder24ObjectHolderAllocatorTagEEEEENS6_24IManagerForSystemServiceEE29_nn_sf_sync_CheckAvailabilityEv
 00000000:0000007100042620       _ZN2nn2sf4cmif6client6detail13CmifProxyImplINS_7account4baas12IManagerBaseENS2_15CmifDomainProxyINS0_4hipc6client38Hipc2ClientSessionManagedProxyKindBaseINSA_18Hipc2ProxyKindBaseILNS9_6detail11MessageTypeE6EEEEEEENS0_25StatelessAllocationPolicyINS0_22ExpHeapStaticAllocatorILm2048ENS5_6detail12ObjectHolder24ObjectHolderAllocatorTagEEEEENS6_24IManagerForSystemServiceEE24_nn_sf_sync_GetAccountIdENS0_3OutINS5_23NetworkServiceAccountIdEvEE
 00000000:0000007100042640       _ZN2nn2sf4cmif6client6detail13CmifProxyImplINS_7account4baas12IManagerBaseENS2_15CmifDomainProxyINS0_4hipc6client38Hipc2ClientSessionManagedProxyKindBaseINSA_18Hipc2ProxyKindBaseILNS9_6detail11MessageTypeE6EEEEEEENS0_25StatelessAllocationPolicyINS0_22ExpHeapStaticAllocatorILm2048ENS5_6detail12ObjectHolder24ObjectHolderAllocatorTagEEEEENS6_24IManagerForSystemServiceEE35_nn_sf_sync_EnsureIdTokenCacheAsyncENS0_3OutINS0_13SharedPointerINSK_13IAsyncContextEEEvEE
 00000000:00000071000426D0       _ZN2nn2sf4cmif6client6detail13CmifProxyImplINS_7account4baas12IManagerBaseENS2_15CmifDomainProxyINS0_4hipc6client38Hipc2ClientSessionManagedProxyKindBaseINSA_18Hipc2ProxyKindBaseILNS9_6detail11MessageTypeE6EEEEEEENS0_25StatelessAllocationPolicyINS0_22ExpHeapStaticAllocatorILm2048ENS5_6detail12ObjectHolder24ObjectHolderAllocatorTagEEEEENS6_24IManagerForSystemServiceEE28_nn_sf_sync_LoadIdTokenCacheENS0_3OutIjvEERKNS0_9OutBufferE
 00000000:0000007100042700       _ZN2nn2sf4cmif6client6detail13CmifProxyImplINS_7account4baas24IManagerForSystemServiceENS2_15CmifDomainProxyINS0_4hipc6client38Hipc2ClientSessionManagedProxyKindBaseINSA_18Hipc2ProxyKindBaseILNS9_6detail11MessageTypeE6EEEEEEENS0_25StatelessAllocationPolicyINS0_22ExpHeapStaticAllocatorILm2048ENS5_6detail12ObjectHolder24ObjectHolderAllocatorTagEEEEES7_E42_nn_sf_sync_SetSystemProgramIdentificationERKNS5_27SystemProgramIdentificationEm
 00000000:0000007100042730       _ZN2nn2sf4cmif6client6detail13CmifProxyImplINS_7account4baas24IManagerForSystemServiceENS2_15CmifDomainProxyINS0_4hipc6client38Hipc2ClientSessionManagedProxyKindBaseINSA_18Hipc2ProxyKindBaseILNS9_6detail11MessageTypeE6EEEEEEENS0_25StatelessAllocationPolicyINS0_22ExpHeapStaticAllocatorILm2048ENS5_6detail12ObjectHolder24ObjectHolderAllocatorTagEEEEES7_E51_nn_sf_sync_GetServiceEntryRequirementCacheForLoginENS0_3OutIjvEENS_13ApplicationIdE
 00000000:0000007100042750       _ZN2nn2sf4cmif6client6detail13CmifProxyImplINS_7account4baas24IManagerForSystemServiceENS2_15CmifDomainProxyINS0_4hipc6client38Hipc2ClientSessionManagedProxyKindBaseINSA_18Hipc2ProxyKindBaseILNS9_6detail11MessageTypeE6EEEEEEENS0_25StatelessAllocationPolicyINS0_22ExpHeapStaticAllocatorILm2048ENS5_6detail12ObjectHolder24ObjectHolderAllocatorTagEEEEES7_E50_nn_sf_sync_InvalidateServiceEntryRequirementCacheENS_13ApplicationIdE
 00000000:0000007100042770       _ZN2nn2sf4cmif6client6detail13CmifProxyImplINS_7account4baas24IManagerForSystemServiceENS2_15CmifDomainProxyINS0_4hipc6client38Hipc2ClientSessionManagedProxyKindBaseINSA_18Hipc2ProxyKindBaseILNS9_6detail11MessageTypeE6EEEEEEENS0_25StatelessAllocationPolicyINS0_22ExpHeapStaticAllocatorILm2048ENS5_6detail12ObjectHolder24ObjectHolderAllocatorTagEEEEES7_E32_nn_sf_sync_InvalidateTokenCacheENS_13ApplicationIdE
 00000000:0000007100042790       _ZN2nn2sf4cmif6client6detail13CmifProxyImplINS_7account4baas24IManagerForSystemServiceENS2_15CmifDomainProxyINS0_4hipc6client38Hipc2ClientSessionManagedProxyKindBaseINSA_18Hipc2ProxyKindBaseILNS9_6detail11MessageTypeE6EEEEEEENS0_25StatelessAllocationPolicyINS0_22ExpHeapStaticAllocatorILm2048ENS5_6detail12ObjectHolder24ObjectHolderAllocatorTagEEEEES7_E56_nn_sf_sync_GetServiceEntryRequirementCacheForOnlinePlayENS0_3OutIjvEENS_13ApplicationIdE
 00000000:00000071000427B0       _ZN2nn2sf4cmif6client6detail13CmifProxyImplINS_7account4baas24IManagerForSystemServiceENS2_15CmifDomainProxyINS0_4hipc6client38Hipc2ClientSessionManagedProxyKindBaseINSA_18Hipc2ProxyKindBaseILNS9_6detail11MessageTypeE6EEEEEEENS0_25StatelessAllocationPolicyINS0_22ExpHeapStaticAllocatorILm2048ENS5_6detail12ObjectHolder24ObjectHolderAllocatorTagEEEEES7_E32_nn_sf_sync_GetNintendoAccountIdENS0_3OutINS5_17NintendoAccountIdEvEE
 00000000:00000071000427D0       _ZN2nn2sf4cmif6client6detail13CmifProxyImplINS_7account4baas24IManagerForSystemServiceENS2_15CmifDomainProxyINS0_4hipc6client38Hipc2ClientSessionManagedProxyKindBaseINSA_18Hipc2ProxyKindBaseILNS9_6detail11MessageTypeE6EEEEEEENS0_25StatelessAllocationPolicyINS0_22ExpHeapStaticAllocatorILm2048ENS5_6detail12ObjectHolder24ObjectHolderAllocatorTagEEEEES7_E47_nn_sf_sync_GetNintendoAccountUserResourceCacheENS0_3OutINS5_17NintendoAccountIdEvEENSQ_INS5_3nas11NasUserBaseEvEERKNS0_9OutBufferE
 00000000:0000007100042800       _ZN2nn2sf4cmif6client6detail13CmifProxyImplINS_7account4baas24IManagerForSystemServiceENS2_15CmifDomainProxyINS0_4hipc6client38Hipc2ClientSessionManagedProxyKindBaseINSA_18Hipc2ProxyKindBaseILNS9_6detail11MessageTypeE6EEEEEEENS0_25StatelessAllocationPolicyINS0_22ExpHeapStaticAllocatorILm2048ENS5_6detail12ObjectHolder24ObjectHolderAllocatorTagEEEEES7_E56_nn_sf_sync_RefreshNintendoAccountUserResourceCacheAsyncENS0_3OutINS0_13SharedPointerINSK_13IAsyncContextEEEvEE
 00000000:0000007100042890       _ZN2nn2sf4cmif6client6detail13CmifProxyImplINS_7account4baas24IManagerForSystemServiceENS2_15CmifDomainProxyINS0_4hipc6client38Hipc2ClientSessionManagedProxyKindBaseINSA_18Hipc2ProxyKindBaseILNS9_6detail11MessageTypeE6EEEEEEENS0_25StatelessAllocationPolicyINS0_22ExpHeapStaticAllocatorILm2048ENS5_6detail12ObjectHolder24ObjectHolderAllocatorTagEEEEES7_E72_nn_sf_sync_RefreshNintendoAccountUserResourceCacheAsyncIfSecondsElapsedENS0_3OutIbvEENSQ_INS0_13SharedPointerINSK_13IAsyncContextEEEvEEj
 00000000:0000007100042940       _ZN2nn2sf4cmif6client6detail13CmifProxyImplINS_7account4baas24IManagerForSystemServiceENS2_15CmifDomainProxyINS0_4hipc6client38Hipc2ClientSessionManagedProxyKindBaseINSA_18Hipc2ProxyKindBaseILNS9_6detail11MessageTypeE6EEEEEEENS0_25StatelessAllocationPolicyINS0_22ExpHeapStaticAllocatorILm2048ENS5_6detail12ObjectHolder24ObjectHolderAllocatorTagEEEEES7_E41_nn_sf_sync_GetNetworkServiceLicenseCacheENS0_3OutIivEENSQ_INS_4time9PosixTimeEvEE
 00000000:0000007100042960       _ZN2nn2sf4cmif6client6detail13CmifProxyImplINS_7account4baas24IManagerForSystemServiceENS2_15CmifDomainProxyINS0_4hipc6client38Hipc2ClientSessionManagedProxyKindBaseINSA_18Hipc2ProxyKindBaseILNS9_6detail11MessageTypeE6EEEEEEENS0_25StatelessAllocationPolicyINS0_22ExpHeapStaticAllocatorILm2048ENS5_6detail12ObjectHolder24ObjectHolderAllocatorTagEEEEES7_E50_nn_sf_sync_RefreshNetworkServiceLicenseCacheAsyncENS0_3OutINS0_13SharedPointerINSK_13IAsyncContextEEEvEE
 00000000:00000071000429F0       _ZN2nn2sf4cmif6client6detail13CmifProxyImplINS_7account4baas24IManagerForSystemServiceENS2_15CmifDomainProxyINS0_4hipc6client38Hipc2ClientSessionManagedProxyKindBaseINSA_18Hipc2ProxyKindBaseILNS9_6detail11MessageTypeE6EEEEEEENS0_25StatelessAllocationPolicyINS0_22ExpHeapStaticAllocatorILm2048ENS5_6detail12ObjectHolder24ObjectHolderAllocatorTagEEEEES7_E66_nn_sf_sync_RefreshNetworkServiceLicenseCacheAsyncIfSecondsElapsedENS0_3OutIbvEENSQ_INS0_13SharedPointerINSK_13IAsyncContextEEEvEEj
 00000000:0000007100042AA0       _ZN2nn2sf4cmif6client6detail13CmifProxyImplINS_7account4baas24IManagerForSystemServiceENS2_15CmifDomainProxyINS0_4hipc6client38Hipc2ClientSessionManagedProxyKindBaseINSA_18Hipc2ProxyKindBaseILNS9_6detail11MessageTypeE6EEEEEEENS0_25StatelessAllocationPolicyINS0_22ExpHeapStaticAllocatorILm2048ENS5_6detail12ObjectHolder24ObjectHolderAllocatorTagEEEEES7_E38_nn_sf_sync_CreateAuthorizationRequestENS0_3OutINS0_13SharedPointerINS5_3nas21IAuthorizationRequestEEEvEERKNSS_13NasClientInfoERKNS5_45NintendoAccountAuthorizationRequestParametersEONS0_12NativeHandleEj
 00000000:0000007100042B70       _ZN2nn2sf4cmif6client6detail13CmifProxyImplINS_7account4baas12IManagerBaseENS2_15CmifDomainProxyINS0_4hipc6client38Hipc2ClientSessionManagedProxyKindBaseINSA_18Hipc2ProxyKindBaseILNS9_6detail11MessageTypeE6EEEEEEENS0_25StatelessAllocationPolicyINS0_22ExpHeapStaticAllocatorILm2048ENS5_6detail12ObjectHolder24ObjectHolderAllocatorTagEEEEENS6_24IManagerForSystemServiceEE17GetCmifBaseObjectEv
 00000000:0000007100042B80       _ZThn32_N2nn2sf4cmif6client6detail13CmifProxyImplINS_7account4baas12IManagerBaseENS2_15CmifDomainProxyINS0_4hipc6client38Hipc2ClientSessionManagedProxyKindBaseINSA_18Hipc2ProxyKindBaseILNS9_6detail11MessageTypeE6EEEEEEENS0_25StatelessAllocationPolicyINS0_22ExpHeapStaticAllocatorILm2048ENS5_6detail12ObjectHolder24ObjectHolderAllocatorTagEEEEENS6_24IManagerForSystemServiceEE17GetCmifBaseObjectEv
 00000000:0000007100042B90       _ZN2nn2sf4cmif6client34CmifDomainProxyClientCoreProcessorINS0_4hipc6client38Hipc2ClientSessionManagedProxyKindBaseINS5_18Hipc2ProxyKindBaseILNS4_6detail11MessageTypeE6EEEEENS1_6detail14CoreMethodInfoINSt3__15tupleIJNSC_18BufferArgumentInfoILi0ELi25ELm16EEENSC_17InRawArgumentInfoILm8ELm8ELl0EEEEEELm8ELm0ELb1EEESK_E7ProcessEPNS2_23CmifDomainClientMessageISB_E15ProxyBaseObjectENS2_24BufferClientArgumentTypeENS2_23InRawClientArgumentTypeILm8ELm8EvEEj
 00000000:0000007100042D70       _ZN2nn2sf4cmif6client34CmifDomainProxyClientCoreProcessorINS0_4hipc6client38Hipc2ClientSessionManagedProxyKindBaseINS5_18Hipc2ProxyKindBaseILNS4_6detail11MessageTypeE6EEEEENS1_6detail14CoreMethodInfoINSt3__15tupleIJNSC_18OutRawArgumentInfoILm4ELm4ELl0EEENSC_17InRawArgumentInfoILm8ELm8ELl0EEEEEELm8ELm4ELb0EEESK_E7ProcessEPNS2_23CmifDomainClientMessageISB_E15ProxyBaseObjectENS2_24OutRawClientArgumentTypeILm4ELm4EEENS2_23InRawClientArgumentTypeILm8ELm8EvEEj
 00000000:0000007100042ED0       _ZN2nn2sf4cmif6client34CmifDomainProxyClientCoreProcessorINS0_4hipc6client38Hipc2ClientSessionManagedProxyKindBaseINS5_18Hipc2ProxyKindBaseILNS4_6detail11MessageTypeE6EEEEENS1_6detail14CoreMethodInfoINSt3__15tupleIJNSC_18OutRawArgumentInfoILm8ELm8ELl0EEENSC_18BufferArgumentInfoILi0ELi26ELm592EEENSI_ILi1ELi6ELm0EEEEEELm0ELm8ELb0EEESL_E7ProcessEPNS2_23CmifDomainClientMessageISB_E15ProxyBaseObjectENS2_24OutRawClientArgumentTypeILm8ELm8EEENS2_24BufferClientArgumentTypeESU_j
 00000000:00000071000430D0       _ZN2nn2sf4cmif6client34CmifDomainProxyClientCoreProcessorINS0_4hipc6client38Hipc2ClientSessionManagedProxyKindBaseINS5_18Hipc2ProxyKindBaseILNS4_6detail11MessageTypeE6EEEEENS1_6detail14CoreMethodInfoINSt3__15tupleIJNSC_18OutRawArgumentInfoILm1ELm1ELl0EEENSC_21OutObjectArgumentInfoILi0ELi0EEENSC_17InRawArgumentInfoILm4ELm4ELl0EEEEEELm4ELm1ELb0EEESM_E21ProcessWithOutObjectsEPNS2_23CmifDomainClientMessageISB_E15ProxyBaseObjectENS2_24OutRawClientArgumentTypeILm1ELm1EEENS2_27OutObjectClientArgumentTypeENS2_23InRawClientArgumentTypeILm4ELm4EvEEjPNS0_13SharedPointerINS0_14IServiceObjectEEE
 00000000:00000071000432C0       _ZN2nn2sf4cmif6client34CmifDomainProxyClientCoreProcessorINS0_4hipc6client38Hipc2ClientSessionManagedProxyKindBaseINS5_18Hipc2ProxyKindBaseILNS4_6detail11MessageTypeE6EEEEENS1_6detail14CoreMethodInfoINSt3__15tupleIJNSC_18OutRawArgumentInfoILm4ELm4ELl0EEENSG_ILm8ELm8ELl8EEEEEELm0ELm16ELb0EEESJ_E7ProcessEPNS2_23CmifDomainClientMessageISB_E15ProxyBaseObjectENS2_24OutRawClientArgumentTypeILm4ELm4EEENSQ_ILm8ELm8EEEj
 00000000:0000007100043420       _ZN2nn2sf4cmif6client34CmifDomainProxyClientCoreProcessorINS0_4hipc6client38Hipc2ClientSessionManagedProxyKindBaseINS5_18Hipc2ProxyKindBaseILNS4_6detail11MessageTypeE6EEEEENS1_6detail14CoreMethodInfoINSt3__15tupleIJNSC_21OutObjectArgumentInfoILi0ELi0EEENSC_18BufferArgumentInfoILi0ELi25ELm264EEENSI_ILi1ELi25ELm512EEENSC_20InHandleArgumentInfoILi0ELi1EEENSC_17InRawArgumentInfoILm4ELm4ELl0EEEEEELm4ELm0ELb0EEESP_E21ProcessWithOutObjectsEPNS2_23CmifDomainClientMessageISB_E15ProxyBaseObjectENS2_27OutObjectClientArgumentTypeENS2_24BufferClientArgumentTypeESX_NS2_26InHandleClientArgumentTypeENS2_23InRawClientArgumentTypeILm4ELm4EvEEjPNS0_13SharedPointerINS0_14IServiceObjectEEE
 00000000:00000071000436F0       _ZN2nn2sf4cmif6client34CmifDomainProxyClientCoreProcessorINS0_4hipc6client38Hipc2ClientSessionManagedProxyKindBaseINS5_18Hipc2ProxyKindBaseILNS4_6detail11MessageTypeE6EEEEENS1_6detail14CoreMethodInfoINSt3__15tupleIJNSC_21OutObjectArgumentInfoILi0ELi0EEENSC_18BufferArgumentInfoILi0ELi25ELm16EEENSC_17InRawArgumentInfoILm8ELm8ELl0EEEEEELm8ELm0ELb1EEESM_E21ProcessWithOutObjectsEPNS2_23CmifDomainClientMessageISB_E15ProxyBaseObjectENS2_27OutObjectClientArgumentTypeENS2_24BufferClientArgumentTypeENS2_23InRawClientArgumentTypeILm8ELm8EvEEjPNS0_13SharedPointerINS0_14IServiceObjectEEE
 00000000:0000007100043970       _ZN2nn2sf4cmif6client34CmifDomainProxyClientCoreProcessorINS0_4hipc6client38Hipc2ClientSessionManagedProxyKindBaseINS5_18Hipc2ProxyKindBaseILNS4_6detail11MessageTypeE6EEEEENS1_6detail14CoreMethodInfoINSt3__15tupleIJNSC_17InRawArgumentInfoILm16ELm8ELl0EEENSG_ILm8ELm8ELl16EEENSC_18BufferArgumentInfoILi0ELi5ELm0EEEEEELm24ELm0ELb0EEESL_E7ProcessEPNS2_23CmifDomainClientMessageISB_E15ProxyBaseObjectENS2_23InRawClientArgumentTypeILm16ELm8EvEENSS_ILm8ELm8EvEENS2_24BufferClientArgumentTypeEj
 00000000:0000007100043B90       _ZN2nn2sf4cmif6client34CmifDomainProxyClientCoreProcessorINS0_4hipc6client38Hipc2ClientSessionManagedProxyKindBaseINS5_18Hipc2ProxyKindBaseILNS4_6detail11MessageTypeE6EEEEENS1_6detail14CoreMethodInfoINSt3__15tupleIJNSC_17InRawArgumentInfoILm16ELm8ELl0EEENSG_ILm8ELm8ELl16EEEEEELm24ELm0ELb0EEESJ_E7ProcessEPNS2_23CmifDomainClientMessageISB_E15ProxyBaseObjectENS2_23InRawClientArgumentTypeILm16ELm8EvEENSQ_ILm8ELm8EvEEj
 00000000:0000007100043CF0       _ZN2nn2sf4cmif6client34CmifDomainProxyClientCoreProcessorINS0_4hipc6client38Hipc2ClientSessionManagedProxyKindBaseINS5_18Hipc2ProxyKindBaseILNS4_6detail11MessageTypeE6EEEEENS1_6detail14CoreMethodInfoINSt3__15tupleIJNSC_18OutRawArgumentInfoILm4ELm4ELl0EEENSC_18BufferArgumentInfoILi0ELi6ELm0EEENSC_17InRawArgumentInfoILm16ELm8ELl0EEENSK_ILm8ELm8ELl16EEEEEELm24ELm4ELb0EEESN_E7ProcessEPNS2_23CmifDomainClientMessageISB_E15ProxyBaseObjectENS2_24OutRawClientArgumentTypeILm4ELm4EEENS2_24BufferClientArgumentTypeENS2_23InRawClientArgumentTypeILm16ELm8EvEENSX_ILm8ELm8EvEEj
 00000000:0000007100043F30       _ZN2nn2sf4cmif6client34CmifDomainProxyClientCoreProcessorINS0_4hipc6client38Hipc2ClientSessionManagedProxyKindBaseINS5_18Hipc2ProxyKindBaseILNS4_6detail11MessageTypeE6EEEEENS1_6detail14CoreMethodInfoINSt3__15tupleIJNSC_18OutRawArgumentInfoILm1ELm1ELl0EEENSC_17InRawArgumentInfoILm16ELm8ELl0EEENSI_ILm8ELm8ELl16EEEEEELm24ELm1ELb0EEESL_E7ProcessEPNS2_23CmifDomainClientMessageISB_E15ProxyBaseObjectENS2_24OutRawClientArgumentTypeILm1ELm1EEENS2_23InRawClientArgumentTypeILm16ELm8EvEENSU_ILm8ELm8EvEEj
 00000000:00000071000440A0       _ZN2nn2sf4cmif6client34CmifDomainProxyClientCoreProcessorINS0_4hipc6client38Hipc2ClientSessionManagedProxyKindBaseINS5_18Hipc2ProxyKindBaseILNS4_6detail11MessageTypeE6EEEEENS1_6detail14CoreMethodInfoINSt3__15tupleIJNSC_18BufferArgumentInfoILi0ELi10ELm0EEENSC_17InRawArgumentInfoILm8ELm8ELl0EEEEEELm8ELm0ELb0EEESK_E7ProcessEPNS2_23CmifDomainClientMessageISB_E15ProxyBaseObjectENS2_24BufferClientArgumentTypeENS2_23InRawClientArgumentTypeILm8ELm8EvEEj
 00000000:00000071000442A0       _ZN2nn2sf4cmif6client34CmifDomainProxyClientCoreProcessorINS0_4hipc6client38Hipc2ClientSessionManagedProxyKindBaseINS5_18Hipc2ProxyKindBaseILNS4_6detail11MessageTypeE6EEEEENS1_6detail14CoreMethodInfoINSt3__15tupleIJNSC_18OutRawArgumentInfoILm8ELm8ELl8EEENSG_ILm4ELm4ELl0EEENSC_17InRawArgumentInfoILm16ELm8ELl0EEEEEELm16ELm16ELb0EEESL_E7ProcessEPNS2_23CmifDomainClientMessageISB_E15ProxyBaseObjectENS2_24OutRawClientArgumentTypeILm8ELm8EEENSS_ILm4ELm4EEENS2_23InRawClientArgumentTypeILm16ELm8EvEEj
 00000000:0000007100044410       _ZN2nn7account6detail12ObjectHolder11AcquireImplINS0_31IAccountServiceForAdministratorEEENS_6ResultEPPT_PKc
 00000000:0000007100044520       _ZN2nn2sf4hipc6client34HipcSimpleClientSessionManagerBaseINS2_29DefaultSessionResourceManagerEE4Impl18InitializeByHandleINS_7account31IAccountServiceForAdministratorENS0_25StatelessAllocationPolicyINS0_22ExpHeapStaticAllocatorILm2048ENS8_6detail12ObjectHolder24ObjectHolderAllocatorTagEEEEEEENS_6ResultEPNS0_13SharedPointerIT_EENS_3svc6HandleE
 00000000:0000007100044640       _ZN2nn2sf6detail39ObjectImplFactoryWithStatelessAllocatorINS0_4cmif6client16CmifProxyFactoryINS_7account31IAccountServiceForAdministratorENS4_15CmifDomainProxyINS0_4hipc6client38Hipc2ClientSessionManagedProxyKindBaseINSA_18Hipc2ProxyKindBaseILNS9_6detail11MessageTypeE6EEEEEEENS0_25StatelessAllocationPolicyINS0_22ExpHeapStaticAllocatorILm2048ENS6_6detail12ObjectHolder24ObjectHolderAllocatorTagEEEEEE13ServiceObjectESO_E6Object12AddReferenceEv
 00000000:0000007100044650       _ZN2nn2sf6detail39ObjectImplFactoryWithStatelessAllocatorINS0_4cmif6client16CmifProxyFactoryINS_7account31IAccountServiceForAdministratorENS4_15CmifDomainProxyINS0_4hipc6client38Hipc2ClientSessionManagedProxyKindBaseINSA_18Hipc2ProxyKindBaseILNS9_6detail11MessageTypeE6EEEEEEENS0_25StatelessAllocationPolicyINS0_22ExpHeapStaticAllocatorILm2048ENS6_6detail12ObjectHolder24ObjectHolderAllocatorTagEEEEEE13ServiceObjectESO_E6Object7ReleaseEv
 00000000:00000071000446C0       _ZN2nn2sf4cmif6client6detail13CmifProxyImplINS_7account19IAccountServiceBaseENS2_15CmifDomainProxyINS0_4hipc6client38Hipc2ClientSessionManagedProxyKindBaseINS9_18Hipc2ProxyKindBaseILNS8_6detail11MessageTypeE6EEEEEEENS0_25StatelessAllocationPolicyINS0_22ExpHeapStaticAllocatorILm2048ENS5_6detail12ObjectHolder24ObjectHolderAllocatorTagEEEEENS5_31IAccountServiceForAdministratorEE12GetProxyInfoEv
 00000000:00000071000446D0       _ZN2nn2sf4cmif6client6detail13CmifProxyImplINS_7account19IAccountServiceBaseENS2_15CmifDomainProxyINS0_4hipc6client38Hipc2ClientSessionManagedProxyKindBaseINS9_18Hipc2ProxyKindBaseILNS8_6detail11MessageTypeE6EEEEEEENS0_25StatelessAllocationPolicyINS0_22ExpHeapStaticAllocatorILm2048ENS5_6detail12ObjectHolder24ObjectHolderAllocatorTagEEEEENS5_31IAccountServiceForAdministratorEE24_nn_sf_sync_GetUserCountENS0_3OutIivEE
 00000000:00000071000446F0       _ZN2nn2sf4cmif6client6detail13CmifProxyImplINS_7account19IAccountServiceBaseENS2_15CmifDomainProxyINS0_4hipc6client38Hipc2ClientSessionManagedProxyKindBaseINS9_18Hipc2ProxyKindBaseILNS8_6detail11MessageTypeE6EEEEEEENS0_25StatelessAllocationPolicyINS0_22ExpHeapStaticAllocatorILm2048ENS5_6detail12ObjectHolder24ObjectHolderAllocatorTagEEEEENS5_31IAccountServiceForAdministratorEE28_nn_sf_sync_GetUserExistenceENS0_3OutIbvEERKNS5_3UidE
 00000000:0000007100044710       _ZN2nn2sf4cmif6client6detail13CmifProxyImplINS_7account19IAccountServiceBaseENS2_15CmifDomainProxyINS0_4hipc6client38Hipc2ClientSessionManagedProxyKindBaseINS9_18Hipc2ProxyKindBaseILNS8_6detail11MessageTypeE6EEEEEEENS0_25StatelessAllocationPolicyINS0_22ExpHeapStaticAllocatorILm2048ENS5_6detail12ObjectHolder24ObjectHolderAllocatorTagEEEEENS5_31IAccountServiceForAdministratorEE24_nn_sf_sync_ListAllUsersERKNS0_8OutArrayINS5_3UidEEE
 00000000:0000007100044740       _ZN2nn2sf4cmif6client6detail13CmifProxyImplINS_7account19IAccountServiceBaseENS2_15CmifDomainProxyINS0_4hipc6client38Hipc2ClientSessionManagedProxyKindBaseINS9_18Hipc2ProxyKindBaseILNS8_6detail11MessageTypeE6EEEEEEENS0_25StatelessAllocationPolicyINS0_22ExpHeapStaticAllocatorILm2048ENS5_6detail12ObjectHolder24ObjectHolderAllocatorTagEEEEENS5_31IAccountServiceForAdministratorEE25_nn_sf_sync_ListOpenUsersERKNS0_8OutArrayINS5_3UidEEE
 00000000:0000007100044770       _ZN2nn2sf4cmif6client6detail13CmifProxyImplINS_7account19IAccountServiceBaseENS2_15CmifDomainProxyINS0_4hipc6client38Hipc2ClientSessionManagedProxyKindBaseINS9_18Hipc2ProxyKindBaseILNS8_6detail11MessageTypeE6EEEEEEENS0_25StatelessAllocationPolicyINS0_22ExpHeapStaticAllocatorILm2048ENS5_6detail12ObjectHolder24ObjectHolderAllocatorTagEEEEENS5_31IAccountServiceForAdministratorEE29_nn_sf_sync_GetLastOpenedUserENS0_3OutINS5_3UidEvEE
 00000000:0000007100044790       _ZN2nn2sf4cmif6client6detail13CmifProxyImplINS_7account19IAccountServiceBaseENS2_15CmifDomainProxyINS0_4hipc6client38Hipc2ClientSessionManagedProxyKindBaseINS9_18Hipc2ProxyKindBaseILNS8_6detail11MessageTypeE6EEEEEEENS0_25StatelessAllocationPolicyINS0_22ExpHeapStaticAllocatorILm2048ENS5_6detail12ObjectHolder24ObjectHolderAllocatorTagEEEEENS5_31IAccountServiceForAdministratorEE22_nn_sf_sync_GetProfileENS0_3OutINS0_13SharedPointerINS5_7profile8IProfileEEEvEERKNS5_3UidE
 00000000:0000007100044830       _ZN2nn2sf4cmif6client6detail13CmifProxyImplINS_7account19IAccountServiceBaseENS2_15CmifDomainProxyINS0_4hipc6client38Hipc2ClientSessionManagedProxyKindBaseINS9_18Hipc2ProxyKindBaseILNS8_6detail11MessageTypeE6EEEEEEENS0_25StatelessAllocationPolicyINS0_22ExpHeapStaticAllocatorILm2048ENS5_6detail12ObjectHolder24ObjectHolderAllocatorTagEEEEENS5_31IAccountServiceForAdministratorEE28_nn_sf_sync_GetProfileDigestENS0_3OutINS5_13ProfileDigestEvEERKNS5_3UidE
 00000000:0000007100044850       _ZN2nn2sf4cmif6client6detail13CmifProxyImplINS_7account19IAccountServiceBaseENS2_15CmifDomainProxyINS0_4hipc6client38Hipc2ClientSessionManagedProxyKindBaseINS9_18Hipc2ProxyKindBaseILNS8_6detail11MessageTypeE6EEEEEEENS0_25StatelessAllocationPolicyINS0_22ExpHeapStaticAllocatorILm2048ENS5_6detail12ObjectHolder24ObjectHolderAllocatorTagEEEEENS5_31IAccountServiceForAdministratorEE46_nn_sf_sync_IsUserRegistrationRequestPermittedENS0_3OutIbvEEm
 00000000:0000007100044870       _ZN2nn2sf4cmif6client6detail13CmifProxyImplINS_7account19IAccountServiceBaseENS2_15CmifDomainProxyINS0_4hipc6client38Hipc2ClientSessionManagedProxyKindBaseINS9_18Hipc2ProxyKindBaseILNS8_6detail11MessageTypeE6EEEEEEENS0_25StatelessAllocationPolicyINS0_22ExpHeapStaticAllocatorILm2048ENS5_6detail12ObjectHolder24ObjectHolderAllocatorTagEEEEENS5_31IAccountServiceForAdministratorEE43_nn_sf_sync_TrySelectUserWithoutInteractionENS0_3OutINS5_3UidEvEEb
 00000000:00000071000448A0       _ZN2nn2sf4cmif6client6detail13CmifProxyImplINS_7account19IAccountServiceBaseENS2_15CmifDomainProxyINS0_4hipc6client38Hipc2ClientSessionManagedProxyKindBaseINS9_18Hipc2ProxyKindBaseILNS8_6detail11MessageTypeE6EEEEEEENS0_25StatelessAllocationPolicyINS0_22ExpHeapStaticAllocatorILm2048ENS5_6detail12ObjectHolder24ObjectHolderAllocatorTagEEEEENS5_31IAccountServiceForAdministratorEE45_nn_sf_sync_DebugActivateOpenContextRetentionENS0_3OutINS0_13SharedPointerINSJ_14ISessionObjectEEEvEE
 00000000:0000007100044930       _ZN2nn2sf4cmif6client6detail13CmifProxyImplINS_7account31IAccountServiceForSystemServiceENS2_15CmifDomainProxyINS0_4hipc6client38Hipc2ClientSessionManagedProxyKindBaseINS9_18Hipc2ProxyKindBaseILNS8_6detail11MessageTypeE6EEEEEEENS0_25StatelessAllocationPolicyINS0_22ExpHeapStaticAllocatorILm2048ENS5_6detail12ObjectHolder24ObjectHolderAllocatorTagEEEEENS5_31IAccountServiceForAdministratorEE39_nn_sf_sync_GetUserRegistrationNotifierENS0_3OutINS0_13SharedPointerINSJ_9INotifierEEEvEE
 00000000:00000071000449C0       _ZN2nn2sf4cmif6client6detail13CmifProxyImplINS_7account31IAccountServiceForSystemServiceENS2_15CmifDomainProxyINS0_4hipc6client38Hipc2ClientSessionManagedProxyKindBaseINS9_18Hipc2ProxyKindBaseILNS8_6detail11MessageTypeE6EEEEEEENS0_25StatelessAllocationPolicyINS0_22ExpHeapStaticAllocatorILm2048ENS5_6detail12ObjectHolder24ObjectHolderAllocatorTagEEEEENS5_31IAccountServiceForAdministratorEE38_nn_sf_sync_GetUserStateChangeNotifierENS0_3OutINS0_13SharedPointerINSJ_9INotifierEEEvEE
 00000000:0000007100044A50       _ZN2nn2sf4cmif6client6detail13CmifProxyImplINS_7account31IAccountServiceForSystemServiceENS2_15CmifDomainProxyINS0_4hipc6client38Hipc2ClientSessionManagedProxyKindBaseINS9_18Hipc2ProxyKindBaseILNS8_6detail11MessageTypeE6EEEEEEENS0_25StatelessAllocationPolicyINS0_22ExpHeapStaticAllocatorILm2048ENS5_6detail12ObjectHolder24ObjectHolderAllocatorTagEEEEENS5_31IAccountServiceForAdministratorEE49_nn_sf_sync_GetBaasAccountManagerForSystemServiceENS0_3OutINS0_13SharedPointerINS5_4baas24IManagerForSystemServiceEEEvEERKNS5_3UidE
 00000000:0000007100044AF0       _ZN2nn2sf4cmif6client6detail13CmifProxyImplINS_7account31IAccountServiceForSystemServiceENS2_15CmifDomainProxyINS0_4hipc6client38Hipc2ClientSessionManagedProxyKindBaseINS9_18Hipc2ProxyKindBaseILNS8_6detail11MessageTypeE6EEEEEEENS0_25StatelessAllocationPolicyINS0_22ExpHeapStaticAllocatorILm2048ENS5_6detail12ObjectHolder24ObjectHolderAllocatorTagEEEEENS5_31IAccountServiceForAdministratorEE49_nn_sf_sync_GetBaasUserAvailabilityChangeNotifierENS0_3OutINS0_13SharedPointerINSJ_9INotifierEEEvEE
 00000000:0000007100044B80       _ZN2nn2sf4cmif6client6detail13CmifProxyImplINS_7account31IAccountServiceForSystemServiceENS2_15CmifDomainProxyINS0_4hipc6client38Hipc2ClientSessionManagedProxyKindBaseINS9_18Hipc2ProxyKindBaseILNS8_6detail11MessageTypeE6EEEEEEENS0_25StatelessAllocationPolicyINS0_22ExpHeapStaticAllocatorILm2048ENS5_6detail12ObjectHolder24ObjectHolderAllocatorTagEEEEENS5_31IAccountServiceForAdministratorEE36_nn_sf_sync_GetProfileUpdateNotifierENS0_3OutINS0_13SharedPointerINSJ_9INotifierEEEvEE
 00000000:0000007100044C10       _ZN2nn2sf4cmif6client6detail13CmifProxyImplINS_7account31IAccountServiceForSystemServiceENS2_15CmifDomainProxyINS0_4hipc6client38Hipc2ClientSessionManagedProxyKindBaseINS9_18Hipc2ProxyKindBaseILNS8_6detail11MessageTypeE6EEEEEEENS0_25StatelessAllocationPolicyINS0_22ExpHeapStaticAllocatorILm2048ENS5_6detail12ObjectHolder24ObjectHolderAllocatorTagEEEEENS5_31IAccountServiceForAdministratorEE48_nn_sf_sync_CheckNetworkServiceAvailabilityAsyncENS0_3OutINS0_13SharedPointerINSJ_13IAsyncContextEEEvEERKNS5_27SystemProgramIdentificationEm
 00000000:0000007100044CC0       _ZN2nn2sf4cmif6client6detail13CmifProxyImplINS_7account31IAccountServiceForSystemServiceENS2_15CmifDomainProxyINS0_4hipc6client38Hipc2ClientSessionManagedProxyKindBaseINS9_18Hipc2ProxyKindBaseILNS8_6detail11MessageTypeE6EEEEEEENS0_25StatelessAllocationPolicyINS0_22ExpHeapStaticAllocatorILm2048ENS5_6detail12ObjectHolder24ObjectHolderAllocatorTagEEEEENS5_31IAccountServiceForAdministratorEE34_nn_sf_sync_StoreSaveDataThumbnailERKNS5_3UidENS_13ApplicationIdERKNS0_8InBufferE
 00000000:0000007100044CF0       _ZN2nn2sf4cmif6client6detail13CmifProxyImplINS_7account31IAccountServiceForSystemServiceENS2_15CmifDomainProxyINS0_4hipc6client38Hipc2ClientSessionManagedProxyKindBaseINS9_18Hipc2ProxyKindBaseILNS8_6detail11MessageTypeE6EEEEEEENS0_25StatelessAllocationPolicyINS0_22ExpHeapStaticAllocatorILm2048ENS5_6detail12ObjectHolder24ObjectHolderAllocatorTagEEEEENS5_31IAccountServiceForAdministratorEE34_nn_sf_sync_ClearSaveDataThumbnailERKNS5_3UidENS_13ApplicationIdE
 00000000:0000007100044D10       _ZN2nn2sf4cmif6client6detail13CmifProxyImplINS_7account31IAccountServiceForSystemServiceENS2_15CmifDomainProxyINS0_4hipc6client38Hipc2ClientSessionManagedProxyKindBaseINS9_18Hipc2ProxyKindBaseILNS8_6detail11MessageTypeE6EEEEEEENS0_25StatelessAllocationPolicyINS0_22ExpHeapStaticAllocatorILm2048ENS5_6detail12ObjectHolder24ObjectHolderAllocatorTagEEEEENS5_31IAccountServiceForAdministratorEE33_nn_sf_sync_LoadSaveDataThumbnailENS0_3OutIjvEERKNS0_9OutBufferERKNS5_3UidENS_13ApplicationIdE
 00000000:0000007100044D50       _ZN2nn2sf4cmif6client6detail13CmifProxyImplINS_7account31IAccountServiceForSystemServiceENS2_15CmifDomainProxyINS0_4hipc6client38Hipc2ClientSessionManagedProxyKindBaseINS9_18Hipc2ProxyKindBaseILNS8_6detail11MessageTypeE6EEEEEEENS0_25StatelessAllocationPolicyINS0_22ExpHeapStaticAllocatorILm2048ENS5_6detail12ObjectHolder24ObjectHolderAllocatorTagEEEEENS5_31IAccountServiceForAdministratorEE41_nn_sf_sync_GetSaveDataThumbnailExistenceENS0_3OutIbvEERKNS5_3UidENS_13ApplicationIdE
 00000000:0000007100044D70       _ZN2nn2sf4cmif6client6detail13CmifProxyImplINS_7account31IAccountServiceForSystemServiceENS2_15CmifDomainProxyINS0_4hipc6client38Hipc2ClientSessionManagedProxyKindBaseINS9_18Hipc2ProxyKindBaseILNS8_6detail11MessageTypeE6EEEEEEENS0_25StatelessAllocationPolicyINS0_22ExpHeapStaticAllocatorILm2048ENS5_6detail12ObjectHolder24ObjectHolderAllocatorTagEEEEENS5_31IAccountServiceForAdministratorEE40_nn_sf_sync_ActivateOpenContextRetentionENS0_3OutINS0_13SharedPointerINSJ_14ISessionObjectEEEvEENS_13ApplicationIdE
 00000000:0000007100044E10       _ZN2nn2sf4cmif6client6detail13CmifProxyImplINS_7account31IAccountServiceForSystemServiceENS2_15CmifDomainProxyINS0_4hipc6client38Hipc2ClientSessionManagedProxyKindBaseINS9_18Hipc2ProxyKindBaseILNS8_6detail11MessageTypeE6EEEEEEENS0_25StatelessAllocationPolicyINS0_22ExpHeapStaticAllocatorILm2048ENS5_6detail12ObjectHolder24ObjectHolderAllocatorTagEEEEENS5_31IAccountServiceForAdministratorEE30_nn_sf_sync_ListQualifiedUsersERKNS0_8OutArrayINS5_3UidEEENS_13ApplicationIdE
 00000000:0000007100044E50       _ZN2nn2sf4cmif6client6detail13CmifProxyImplINS_7account31IAccountServiceForSystemServiceENS2_15CmifDomainProxyINS0_4hipc6client38Hipc2ClientSessionManagedProxyKindBaseINS9_18Hipc2ProxyKindBaseILNS8_6detail11MessageTypeE6EEEEEEENS0_25StatelessAllocationPolicyINS0_22ExpHeapStaticAllocatorILm2048ENS5_6detail12ObjectHolder24ObjectHolderAllocatorTagEEEEENS5_31IAccountServiceForAdministratorEE40_nn_sf_sync_GetUserLastOpenedApplicationENS0_3OutINS_13ApplicationIdEvEENSQ_IjvEERKNS5_3UidE
 00000000:0000007100044E70       _ZN2nn2sf4cmif6client6detail13CmifProxyImplINS_7account31IAccountServiceForSystemServiceENS2_15CmifDomainProxyINS0_4hipc6client38Hipc2ClientSessionManagedProxyKindBaseINS9_18Hipc2ProxyKindBaseILNS8_6detail11MessageTypeE6EEEEEEENS0_25StatelessAllocationPolicyINS0_22ExpHeapStaticAllocatorILm2048ENS5_6detail12ObjectHolder24ObjectHolderAllocatorTagEEEEENS5_31IAccountServiceForAdministratorEE44_nn_sf_sync_DebugInvalidateUserResourceCacheERKNS5_3UidE
 00000000:0000007100044E90       _ZN2nn2sf4cmif6client6detail13CmifProxyImplINS_7account31IAccountServiceForSystemServiceENS2_15CmifDomainProxyINS0_4hipc6client38Hipc2ClientSessionManagedProxyKindBaseINS9_18Hipc2ProxyKindBaseILNS8_6detail11MessageTypeE6EEEEEEENS0_25StatelessAllocationPolicyINS0_22ExpHeapStaticAllocatorILm2048ENS5_6detail12ObjectHolder24ObjectHolderAllocatorTagEEEEENS5_31IAccountServiceForAdministratorEE34_nn_sf_sync_DebugSetUserStateCloseERKNS5_3UidE
 00000000:0000007100044EB0       _ZN2nn2sf4cmif6client6detail13CmifProxyImplINS_7account31IAccountServiceForSystemServiceENS2_15CmifDomainProxyINS0_4hipc6client38Hipc2ClientSessionManagedProxyKindBaseINS9_18Hipc2ProxyKindBaseILNS8_6detail11MessageTypeE6EEEEEEENS0_25StatelessAllocationPolicyINS0_22ExpHeapStaticAllocatorILm2048ENS5_6detail12ObjectHolder24ObjectHolderAllocatorTagEEEEENS5_31IAccountServiceForAdministratorEE33_nn_sf_sync_DebugSetUserStateOpenERKNS5_3UidE
 00000000:0000007100044ED0       _ZN2nn2sf4cmif6client6detail13CmifProxyImplINS_7account31IAccountServiceForAdministratorENS2_15CmifDomainProxyINS0_4hipc6client38Hipc2ClientSessionManagedProxyKindBaseINS9_18Hipc2ProxyKindBaseILNS8_6detail11MessageTypeE6EEEEEEENS0_25StatelessAllocationPolicyINS0_22ExpHeapStaticAllocatorILm2048ENS5_6detail12ObjectHolder24ObjectHolderAllocatorTagEEEEES6_E33_nn_sf_sync_BeginUserRegistrationENS0_3OutINS5_3UidEvEE
 00000000:0000007100044EF0       _ZN2nn2sf4cmif6client6detail13CmifProxyImplINS_7account31IAccountServiceForAdministratorENS2_15CmifDomainProxyINS0_4hipc6client38Hipc2ClientSessionManagedProxyKindBaseINS9_18Hipc2ProxyKindBaseILNS8_6detail11MessageTypeE6EEEEEEENS0_25StatelessAllocationPolicyINS0_22ExpHeapStaticAllocatorILm2048ENS5_6detail12ObjectHolder24ObjectHolderAllocatorTagEEEEES6_E36_nn_sf_sync_CompleteUserRegistrationERKNS5_3UidE
 00000000:0000007100044F10       _ZN2nn2sf4cmif6client6detail13CmifProxyImplINS_7account31IAccountServiceForAdministratorENS2_15CmifDomainProxyINS0_4hipc6client38Hipc2ClientSessionManagedProxyKindBaseINS9_18Hipc2ProxyKindBaseILNS8_6detail11MessageTypeE6EEEEEEENS0_25StatelessAllocationPolicyINS0_22ExpHeapStaticAllocatorILm2048ENS5_6detail12ObjectHolder24ObjectHolderAllocatorTagEEEEES6_E34_nn_sf_sync_CancelUserRegistrationERKNS5_3UidE
 00000000:0000007100044F30       _ZN2nn2sf4cmif6client6detail13CmifProxyImplINS_7account31IAccountServiceForAdministratorENS2_15CmifDomainProxyINS0_4hipc6client38Hipc2ClientSessionManagedProxyKindBaseINS9_18Hipc2ProxyKindBaseILNS8_6detail11MessageTypeE6EEEEEEENS0_25StatelessAllocationPolicyINS0_22ExpHeapStaticAllocatorILm2048ENS5_6detail12ObjectHolder24ObjectHolderAllocatorTagEEEEES6_E22_nn_sf_sync_DeleteUserERKNS5_3UidE
 00000000:0000007100044F50       _ZN2nn2sf4cmif6client6detail13CmifProxyImplINS_7account31IAccountServiceForAdministratorENS2_15CmifDomainProxyINS0_4hipc6client38Hipc2ClientSessionManagedProxyKindBaseINS9_18Hipc2ProxyKindBaseILNS8_6detail11MessageTypeE6EEEEEEENS0_25StatelessAllocationPolicyINS0_22ExpHeapStaticAllocatorILm2048ENS5_6detail12ObjectHolder24ObjectHolderAllocatorTagEEEEES6_E27_nn_sf_sync_SetUserPositionERKNS5_3UidEi
 00000000:0000007100044F80       _ZN2nn2sf4cmif6client6detail13CmifProxyImplINS_7account31IAccountServiceForAdministratorENS2_15CmifDomainProxyINS0_4hipc6client38Hipc2ClientSessionManagedProxyKindBaseINS9_18Hipc2ProxyKindBaseILNS8_6detail11MessageTypeE6EEEEEEENS0_25StatelessAllocationPolicyINS0_22ExpHeapStaticAllocatorILm2048ENS5_6detail12ObjectHolder24ObjectHolderAllocatorTagEEEEES6_E28_nn_sf_sync_GetProfileEditorENS0_3OutINS0_13SharedPointerINS5_7profile14IProfileEditorEEEvEERKNS5_3UidE
 00000000:0000007100045020       _ZN2nn2sf4cmif6client6detail13CmifProxyImplINS_7account31IAccountServiceForAdministratorENS2_15CmifDomainProxyINS0_4hipc6client38Hipc2ClientSessionManagedProxyKindBaseINS9_18Hipc2ProxyKindBaseILNS8_6detail11MessageTypeE6EEEEEEENS0_25StatelessAllocationPolicyINS0_22ExpHeapStaticAllocatorILm2048ENS5_6detail12ObjectHolder24ObjectHolderAllocatorTagEEEEES6_E44_nn_sf_sync_CompleteUserRegistrationForciblyERKNS5_3UidE
 00000000:0000007100045040       _ZN2nn2sf4cmif6client6detail13CmifProxyImplINS_7account31IAccountServiceForAdministratorENS2_15CmifDomainProxyINS0_4hipc6client38Hipc2ClientSessionManagedProxyKindBaseINS9_18Hipc2ProxyKindBaseILNS8_6detail11MessageTypeE6EEEEEEENS0_25StatelessAllocationPolicyINS0_22ExpHeapStaticAllocatorILm2048ENS5_6detail12ObjectHolder24ObjectHolderAllocatorTagEEEEES6_E45_nn_sf_sync_CreateFloatingRegistrationRequestENS0_3OutINS0_13SharedPointerINS5_4baas28IFloatingRegistrationRequestEEEvEEONS0_12NativeHandleEj
 00000000:00000071000450F0       _ZN2nn2sf4cmif6client6detail13CmifProxyImplINS_7account31IAccountServiceForAdministratorENS2_15CmifDomainProxyINS0_4hipc6client38Hipc2ClientSessionManagedProxyKindBaseINS9_18Hipc2ProxyKindBaseILNS8_6detail11MessageTypeE6EEEEEEENS0_25StatelessAllocationPolicyINS0_22ExpHeapStaticAllocatorILm2048ENS5_6detail12ObjectHolder24ObjectHolderAllocatorTagEEEEES6_E36_nn_sf_sync_AuthenticateServiceAsyncENS0_3OutINS0_13SharedPointerINSJ_13IAsyncContextEEEvEE
 00000000:0000007100045180       _ZN2nn2sf4cmif6client6detail13CmifProxyImplINS_7account31IAccountServiceForAdministratorENS2_15CmifDomainProxyINS0_4hipc6client38Hipc2ClientSessionManagedProxyKindBaseINS9_18Hipc2ProxyKindBaseILNS8_6detail11MessageTypeE6EEEEEEENS0_25StatelessAllocationPolicyINS0_22ExpHeapStaticAllocatorILm2048ENS5_6detail12ObjectHolder24ObjectHolderAllocatorTagEEEEES6_E39_nn_sf_sync_GetBaasAccountAdministratorENS0_3OutINS0_13SharedPointerINS5_4baas14IAdministratorEEEvEERKNS5_3UidE
 00000000:0000007100045220       _ZN2nn2sf4cmif6client6detail13CmifProxyImplINS_7account31IAccountServiceForAdministratorENS2_15CmifDomainProxyINS0_4hipc6client38Hipc2ClientSessionManagedProxyKindBaseINS9_18Hipc2ProxyKindBaseILNS8_6detail11MessageTypeE6EEEEEEENS0_25StatelessAllocationPolicyINS0_22ExpHeapStaticAllocatorILm2048ENS5_6detail12ObjectHolder24ObjectHolderAllocatorTagEEEEES6_E58_nn_sf_sync_ProxyProcedureForGuestLoginWithNintendoAccountENS0_3OutINS0_13SharedPointerINS5_3nas29IOAuthProcedureForExternalNsaEEEvEERKNSJ_4UuidE
 00000000:00000071000452C0       _ZN2nn2sf4cmif6client6detail13CmifProxyImplINS_7account31IAccountServiceForAdministratorENS2_15CmifDomainProxyINS0_4hipc6client38Hipc2ClientSessionManagedProxyKindBaseINS9_18Hipc2ProxyKindBaseILNS8_6detail11MessageTypeE6EEEEEEENS0_25StatelessAllocationPolicyINS0_22ExpHeapStaticAllocatorILm2048ENS5_6detail12ObjectHolder24ObjectHolderAllocatorTagEEEEES6_E68_nn_sf_sync_ProxyProcedureForFloatingRegistrationWithNintendoAccountENS0_3OutINS0_13SharedPointerINS5_3nas29IOAuthProcedureForExternalNsaEEEvEERKNSJ_4UuidE
 00000000:0000007100045360       _ZN2nn2sf4cmif6client6detail13CmifProxyImplINS_7account31IAccountServiceForAdministratorENS2_15CmifDomainProxyINS0_4hipc6client38Hipc2ClientSessionManagedProxyKindBaseINS9_18Hipc2ProxyKindBaseILNS8_6detail11MessageTypeE6EEEEEEENS0_25StatelessAllocationPolicyINS0_22ExpHeapStaticAllocatorILm2048ENS5_6detail12ObjectHolder24ObjectHolderAllocatorTagEEEEES6_E35_nn_sf_sync_SuspendBackgroundDaemonENS0_3OutINS0_13SharedPointerINSJ_14ISessionObjectEEEvEE
 00000000:00000071000453F0       _ZN2nn2sf4cmif6client6detail13CmifProxyImplINS_7account19IAccountServiceBaseENS2_15CmifDomainProxyINS0_4hipc6client38Hipc2ClientSessionManagedProxyKindBaseINS9_18Hipc2ProxyKindBaseILNS8_6detail11MessageTypeE6EEEEEEENS0_25StatelessAllocationPolicyINS0_22ExpHeapStaticAllocatorILm2048ENS5_6detail12ObjectHolder24ObjectHolderAllocatorTagEEEEENS5_31IAccountServiceForAdministratorEE17GetCmifBaseObjectEv
 00000000:0000007100045400       _ZThn32_N2nn2sf4cmif6client6detail13CmifProxyImplINS_7account19IAccountServiceBaseENS2_15CmifDomainProxyINS0_4hipc6client38Hipc2ClientSessionManagedProxyKindBaseINS9_18Hipc2ProxyKindBaseILNS8_6detail11MessageTypeE6EEEEEEENS0_25StatelessAllocationPolicyINS0_22ExpHeapStaticAllocatorILm2048ENS5_6detail12ObjectHolder24ObjectHolderAllocatorTagEEEEENS5_31IAccountServiceForAdministratorEE17GetCmifBaseObjectEv
 00000000:0000007100045410       _ZN2nn2sf4cmif6client34CmifDomainProxyClientCoreProcessorINS0_4hipc6client38Hipc2ClientSessionManagedProxyKindBaseINS5_18Hipc2ProxyKindBaseILNS4_6detail11MessageTypeE6EEEEENS1_6detail14CoreMethodInfoINSt3__15tupleIJNSC_17InRawArgumentInfoILm16ELm8ELl8EEENSG_ILm4ELm4ELl0EEEEEELm24ELm0ELb0EEESJ_E7ProcessEPNS2_23CmifDomainClientMessageISB_E15ProxyBaseObjectENS2_23InRawClientArgumentTypeILm16ELm8EvEENSQ_ILm4ELm4EvEEj
 00000000:0000007100045570       _ZN2nn2sf4cmif6client32GetClientProcessorWithObjectBaseINS2_15CmifDomainProxyINS0_4hipc6client38Hipc2ClientSessionManagedProxyKindBaseINS6_18Hipc2ProxyKindBaseILNS5_6detail11MessageTypeE6EEEEEEEE14ObjectAssignerINS0_25StatelessAllocationPolicyINS0_22ExpHeapStaticAllocatorILm2048ENS_7account6detail12ObjectHolder24ObjectHolderAllocatorTagEEEEENS0_6detail23StatelessDummyAllocatorEE14AllocateObjectINSI_7profile14IProfileEditorEEEvi
 00000000:0000007100045630       _ZN2nn2sf6detail39ObjectImplFactoryWithStatelessAllocatorINS0_4cmif6client16CmifProxyFactoryINS_7account7profile14IProfileEditorENS4_15CmifDomainProxyINS0_4hipc6client38Hipc2ClientSessionManagedProxyKindBaseINSB_18Hipc2ProxyKindBaseILNSA_6detail11MessageTypeE6EEEEEEENS0_25StatelessAllocationPolicyINS0_22ExpHeapStaticAllocatorILm2048ENS6_6detail12ObjectHolder24ObjectHolderAllocatorTagEEEEEE13ServiceObjectESP_E6Object12AddReferenceEv
 00000000:0000007100045640       _ZN2nn2sf6detail39ObjectImplFactoryWithStatelessAllocatorINS0_4cmif6client16CmifProxyFactoryINS_7account7profile14IProfileEditorENS4_15CmifDomainProxyINS0_4hipc6client38Hipc2ClientSessionManagedProxyKindBaseINSB_18Hipc2ProxyKindBaseILNSA_6detail11MessageTypeE6EEEEEEENS0_25StatelessAllocationPolicyINS0_22ExpHeapStaticAllocatorILm2048ENS6_6detail12ObjectHolder24ObjectHolderAllocatorTagEEEEEE13ServiceObjectESP_E6Object7ReleaseEv
 00000000:00000071000456B0       _ZN2nn2sf4cmif6client6detail13CmifProxyImplINS_7account7profile8IProfileENS2_15CmifDomainProxyINS0_4hipc6client38Hipc2ClientSessionManagedProxyKindBaseINSA_18Hipc2ProxyKindBaseILNS9_6detail11MessageTypeE6EEEEEEENS0_25StatelessAllocationPolicyINS0_22ExpHeapStaticAllocatorILm2048ENS5_6detail12ObjectHolder24ObjectHolderAllocatorTagEEEEENS6_14IProfileEditorEE12GetProxyInfoEv
 00000000:00000071000456C0       _ZN2nn2sf4cmif6client6detail13CmifProxyImplINS_7account7profile8IProfileENS2_15CmifDomainProxyINS0_4hipc6client38Hipc2ClientSessionManagedProxyKindBaseINSA_18Hipc2ProxyKindBaseILNS9_6detail11MessageTypeE6EEEEEEENS0_25StatelessAllocationPolicyINS0_22ExpHeapStaticAllocatorILm2048ENS5_6detail12ObjectHolder24ObjectHolderAllocatorTagEEEEENS6_14IProfileEditorEE15_nn_sf_sync_GetENS0_3OutINS6_11ProfileBaseEvEENSR_INS6_8UserDataEvEE
 00000000:00000071000456F0       _ZN2nn2sf4cmif6client6detail13CmifProxyImplINS_7account7profile8IProfileENS2_15CmifDomainProxyINS0_4hipc6client38Hipc2ClientSessionManagedProxyKindBaseINSA_18Hipc2ProxyKindBaseILNS9_6detail11MessageTypeE6EEEEEEENS0_25StatelessAllocationPolicyINS0_22ExpHeapStaticAllocatorILm2048ENS5_6detail12ObjectHolder24ObjectHolderAllocatorTagEEEEENS6_14IProfileEditorEE19_nn_sf_sync_GetBaseENS0_3OutINS6_11ProfileBaseEvEE
 00000000:0000007100045710       _ZN2nn2sf4cmif6client6detail13CmifProxyImplINS_7account7profile8IProfileENS2_15CmifDomainProxyINS0_4hipc6client38Hipc2ClientSessionManagedProxyKindBaseINSA_18Hipc2ProxyKindBaseILNS9_6detail11MessageTypeE6EEEEEEENS0_25StatelessAllocationPolicyINS0_22ExpHeapStaticAllocatorILm2048ENS5_6detail12ObjectHolder24ObjectHolderAllocatorTagEEEEENS6_14IProfileEditorEE24_nn_sf_sync_GetImageSizeENS0_3OutIjvEE
 00000000:0000007100045730       _ZN2nn2sf4cmif6client6detail13CmifProxyImplINS_7account7profile8IProfileENS2_15CmifDomainProxyINS0_4hipc6client38Hipc2ClientSessionManagedProxyKindBaseINSA_18Hipc2ProxyKindBaseILNS9_6detail11MessageTypeE6EEEEEEENS0_25StatelessAllocationPolicyINS0_22ExpHeapStaticAllocatorILm2048ENS5_6detail12ObjectHolder24ObjectHolderAllocatorTagEEEEENS6_14IProfileEditorEE21_nn_sf_sync_LoadImageENS0_3OutIjvEERKNS0_9OutBufferE
 00000000:0000007100045760       _ZN2nn2sf4cmif6client6detail13CmifProxyImplINS_7account7profile14IProfileEditorENS2_15CmifDomainProxyINS0_4hipc6client38Hipc2ClientSessionManagedProxyKindBaseINSA_18Hipc2ProxyKindBaseILNS9_6detail11MessageTypeE6EEEEEEENS0_25StatelessAllocationPolicyINS0_22ExpHeapStaticAllocatorILm2048ENS5_6detail12ObjectHolder24ObjectHolderAllocatorTagEEEEES7_E17_nn_sf_sync_StoreERKNS6_11ProfileBaseERKNS6_8UserDataE
 00000000:0000007100045790       _ZN2nn2sf4cmif6client6detail13CmifProxyImplINS_7account7profile14IProfileEditorENS2_15CmifDomainProxyINS0_4hipc6client38Hipc2ClientSessionManagedProxyKindBaseINSA_18Hipc2ProxyKindBaseILNS9_6detail11MessageTypeE6EEEEEEENS0_25StatelessAllocationPolicyINS0_22ExpHeapStaticAllocatorILm2048ENS5_6detail12ObjectHolder24ObjectHolderAllocatorTagEEEEES7_E26_nn_sf_sync_StoreWithImageERKNS6_11ProfileBaseERKNS6_8UserDataERKNS0_8InBufferE
 00000000:00000071000457C0       _ZN2nn2sf4cmif6client6detail13CmifProxyImplINS_7account7profile8IProfileENS2_15CmifDomainProxyINS0_4hipc6client38Hipc2ClientSessionManagedProxyKindBaseINSA_18Hipc2ProxyKindBaseILNS9_6detail11MessageTypeE6EEEEEEENS0_25StatelessAllocationPolicyINS0_22ExpHeapStaticAllocatorILm2048ENS5_6detail12ObjectHolder24ObjectHolderAllocatorTagEEEEENS6_14IProfileEditorEE17GetCmifBaseObjectEv
 00000000:00000071000457D0       _ZThn32_N2nn2sf4cmif6client6detail13CmifProxyImplINS_7account7profile8IProfileENS2_15CmifDomainProxyINS0_4hipc6client38Hipc2ClientSessionManagedProxyKindBaseINSA_18Hipc2ProxyKindBaseILNS9_6detail11MessageTypeE6EEEEEEENS0_25StatelessAllocationPolicyINS0_22ExpHeapStaticAllocatorILm2048ENS5_6detail12ObjectHolder24ObjectHolderAllocatorTagEEEEENS6_14IProfileEditorEE17GetCmifBaseObjectEv
 00000000:00000071000457E0       _ZN2nn2sf4cmif6client34CmifDomainProxyClientCoreProcessorINS0_4hipc6client38Hipc2ClientSessionManagedProxyKindBaseINS5_18Hipc2ProxyKindBaseILNS4_6detail11MessageTypeE6EEEEENS1_6detail14CoreMethodInfoINSt3__15tupleIJNSC_17InRawArgumentInfoILm56ELm8ELl0EEENSC_18BufferArgumentInfoILi0ELi25ELm128EEEEEELm56ELm0ELb0EEESK_E7ProcessEPNS2_23CmifDomainClientMessageISB_E15ProxyBaseObjectENS2_23InRawClientArgumentTypeILm56ELm8EvEENS2_24BufferClientArgumentTypeEj
 00000000:0000007100045A00       _ZN2nn2sf4cmif6client34CmifDomainProxyClientCoreProcessorINS0_4hipc6client38Hipc2ClientSessionManagedProxyKindBaseINS5_18Hipc2ProxyKindBaseILNS4_6detail11MessageTypeE6EEEEENS1_6detail14CoreMethodInfoINSt3__15tupleIJNSC_17InRawArgumentInfoILm56ELm8ELl0EEENSC_18BufferArgumentInfoILi0ELi25ELm128EEENSI_ILi1ELi5ELm0EEEEEELm56ELm0ELb0EEESL_E7ProcessEPNS2_23CmifDomainClientMessageISB_E15ProxyBaseObjectENS2_23InRawClientArgumentTypeILm56ELm8EvEENS2_24BufferClientArgumentTypeESU_j
 00000000:0000007100045C10       _ZN2nn2sf4cmif6client32GetClientProcessorWithObjectBaseINS2_15CmifDomainProxyINS0_4hipc6client38Hipc2ClientSessionManagedProxyKindBaseINS6_18Hipc2ProxyKindBaseILNS5_6detail11MessageTypeE6EEEEEEEE14ObjectAssignerINS0_25StatelessAllocationPolicyINS0_22ExpHeapStaticAllocatorILm2048ENS_7account6detail12ObjectHolder24ObjectHolderAllocatorTagEEEEENS0_6detail23StatelessDummyAllocatorEE14AllocateObjectINSI_4baas28IFloatingRegistrationRequestEEEvi
 00000000:0000007100045CD0       _ZN2nn2sf6detail39ObjectImplFactoryWithStatelessAllocatorINS0_4cmif6client16CmifProxyFactoryINS_7account4baas28IFloatingRegistrationRequestENS4_15CmifDomainProxyINS0_4hipc6client38Hipc2ClientSessionManagedProxyKindBaseINSB_18Hipc2ProxyKindBaseILNSA_6detail11MessageTypeE6EEEEEEENS0_25StatelessAllocationPolicyINS0_22ExpHeapStaticAllocatorILm2048ENS6_6detail12ObjectHolder24ObjectHolderAllocatorTagEEEEEE13ServiceObjectESP_E6Object12AddReferenceEv
 00000000:0000007100045CE0       _ZN2nn2sf6detail39ObjectImplFactoryWithStatelessAllocatorINS0_4cmif6client16CmifProxyFactoryINS_7account4baas28IFloatingRegistrationRequestENS4_15CmifDomainProxyINS0_4hipc6client38Hipc2ClientSessionManagedProxyKindBaseINSB_18Hipc2ProxyKindBaseILNSA_6detail11MessageTypeE6EEEEEEENS0_25StatelessAllocationPolicyINS0_22ExpHeapStaticAllocatorILm2048ENS6_6detail12ObjectHolder24ObjectHolderAllocatorTagEEEEEE13ServiceObjectESP_E6Object7ReleaseEv
 00000000:0000007100045D50       _ZN2nn2sf4cmif6client6detail13CmifProxyImplINS_7account4baas18IGuestLoginRequestENS2_15CmifDomainProxyINS0_4hipc6client38Hipc2ClientSessionManagedProxyKindBaseINSA_18Hipc2ProxyKindBaseILNS9_6detail11MessageTypeE6EEEEEEENS0_25StatelessAllocationPolicyINS0_22ExpHeapStaticAllocatorILm2048ENS5_6detail12ObjectHolder24ObjectHolderAllocatorTagEEEEENS6_28IFloatingRegistrationRequestEE12GetProxyInfoEv
 00000000:0000007100045D60       _ZN2nn2sf4cmif6client6detail13CmifProxyImplINS_7account4baas18IGuestLoginRequestENS2_15CmifDomainProxyINS0_4hipc6client38Hipc2ClientSessionManagedProxyKindBaseINSA_18Hipc2ProxyKindBaseILNS9_6detail11MessageTypeE6EEEEEEENS0_25StatelessAllocationPolicyINS0_22ExpHeapStaticAllocatorILm2048ENS5_6detail12ObjectHolder24ObjectHolderAllocatorTagEEEEENS6_28IFloatingRegistrationRequestEE24_nn_sf_sync_GetSessionIdENS0_3OutINSK_4UuidEvEE
 00000000:0000007100045D80       _ZN2nn2sf4cmif6client6detail13CmifProxyImplINS_7account4baas18IGuestLoginRequestENS2_15CmifDomainProxyINS0_4hipc6client38Hipc2ClientSessionManagedProxyKindBaseINSA_18Hipc2ProxyKindBaseILNS9_6detail11MessageTypeE6EEEEEEENS0_25StatelessAllocationPolicyINS0_22ExpHeapStaticAllocatorILm2048ENS5_6detail12ObjectHolder24ObjectHolderAllocatorTagEEEEENS6_28IFloatingRegistrationRequestEE24_nn_sf_sync_GetAccountIdENS0_3OutINS5_23NetworkServiceAccountIdEvEE
 00000000:0000007100045DA0       _ZN2nn2sf4cmif6client6detail13CmifProxyImplINS_7account4baas18IGuestLoginRequestENS2_15CmifDomainProxyINS0_4hipc6client38Hipc2ClientSessionManagedProxyKindBaseINSA_18Hipc2ProxyKindBaseILNS9_6detail11MessageTypeE6EEEEEEENS0_25StatelessAllocationPolicyINS0_22ExpHeapStaticAllocatorILm2048ENS5_6detail12ObjectHolder24ObjectHolderAllocatorTagEEEEENS6_28IFloatingRegistrationRequestEE38_nn_sf_sync_GetLinkedNintendoAccountIdENS0_3OutINS5_17NintendoAccountIdEvEE
 00000000:0000007100045DC0       _ZN2nn2sf4cmif6client6detail13CmifProxyImplINS_7account4baas18IGuestLoginRequestENS2_15CmifDomainProxyINS0_4hipc6client38Hipc2ClientSessionManagedProxyKindBaseINSA_18Hipc2ProxyKindBaseILNS9_6detail11MessageTypeE6EEEEEEENS0_25StatelessAllocationPolicyINS0_22ExpHeapStaticAllocatorILm2048ENS5_6detail12ObjectHolder24ObjectHolderAllocatorTagEEEEENS6_28IFloatingRegistrationRequestEE23_nn_sf_sync_GetNicknameERKNS0_8OutArrayIcEE
 00000000:0000007100045DF0       _ZN2nn2sf4cmif6client6detail13CmifProxyImplINS_7account4baas18IGuestLoginRequestENS2_15CmifDomainProxyINS0_4hipc6client38Hipc2ClientSessionManagedProxyKindBaseINSA_18Hipc2ProxyKindBaseILNS9_6detail11MessageTypeE6EEEEEEENS0_25StatelessAllocationPolicyINS0_22ExpHeapStaticAllocatorILm2048ENS5_6detail12ObjectHolder24ObjectHolderAllocatorTagEEEEENS6_28IFloatingRegistrationRequestEE27_nn_sf_sync_GetProfileImageENS0_3OutIjvEERKNS0_9OutBufferE
 00000000:0000007100045E20       _ZN2nn2sf4cmif6client6detail13CmifProxyImplINS_7account4baas18IGuestLoginRequestENS2_15CmifDomainProxyINS0_4hipc6client38Hipc2ClientSessionManagedProxyKindBaseINSA_18Hipc2ProxyKindBaseILNS9_6detail11MessageTypeE6EEEEEEENS0_25StatelessAllocationPolicyINS0_22ExpHeapStaticAllocatorILm2048ENS5_6detail12ObjectHolder24ObjectHolderAllocatorTagEEEEENS6_28IFloatingRegistrationRequestEE28_nn_sf_sync_LoadIdTokenCacheENS0_3OutIjvEERKNS0_9OutBufferE
 00000000:0000007100045E50       _ZN2nn2sf4cmif6client6detail13CmifProxyImplINS_7account4baas28IFloatingRegistrationRequestENS2_15CmifDomainProxyINS0_4hipc6client38Hipc2ClientSessionManagedProxyKindBaseINSA_18Hipc2ProxyKindBaseILNS9_6detail11MessageTypeE6EEEEEEENS0_25StatelessAllocationPolicyINS0_22ExpHeapStaticAllocatorILm2048ENS5_6detail12ObjectHolder24ObjectHolderAllocatorTagEEEEES7_E24_nn_sf_sync_RegisterUserENS0_3OutINS5_3UidEvEE
 00000000:0000007100045E70       _ZN2nn2sf4cmif6client6detail13CmifProxyImplINS_7account4baas28IFloatingRegistrationRequestENS2_15CmifDomainProxyINS0_4hipc6client38Hipc2ClientSessionManagedProxyKindBaseINSA_18Hipc2ProxyKindBaseILNS9_6detail11MessageTypeE6EEEEEEENS0_25StatelessAllocationPolicyINS0_22ExpHeapStaticAllocatorILm2048ENS5_6detail12ObjectHolder24ObjectHolderAllocatorTagEEEEES7_E31_nn_sf_sync_RegisterUserWithUidERKNS5_3UidE
 00000000:0000007100045E90       _ZN2nn2sf4cmif6client6detail13CmifProxyImplINS_7account4baas28IFloatingRegistrationRequestENS2_15CmifDomainProxyINS0_4hipc6client38Hipc2ClientSessionManagedProxyKindBaseINSA_18Hipc2ProxyKindBaseILNS9_6detail11MessageTypeE6EEEEEEENS0_25StatelessAllocationPolicyINS0_22ExpHeapStaticAllocatorILm2048ENS5_6detail12ObjectHolder24ObjectHolderAllocatorTagEEEEES7_E46_nn_sf_sync_RegisterNetworkServiceAccountAsyncENS0_3OutINS0_13SharedPointerINSK_13IAsyncContextEEEvEE
 00000000:0000007100045F20       _ZN2nn2sf4cmif6client6detail13CmifProxyImplINS_7account4baas28IFloatingRegistrationRequestENS2_15CmifDomainProxyINS0_4hipc6client38Hipc2ClientSessionManagedProxyKindBaseINSA_18Hipc2ProxyKindBaseILNS9_6detail11MessageTypeE6EEEEEEENS0_25StatelessAllocationPolicyINS0_22ExpHeapStaticAllocatorILm2048ENS5_6detail12ObjectHolder24ObjectHolderAllocatorTagEEEEES7_E53_nn_sf_sync_RegisterNetworkServiceAccountWithUidAsyncENS0_3OutINS0_13SharedPointerINSK_13IAsyncContextEEEvEERKNS5_3UidE
 00000000:0000007100045FC0       _ZN2nn2sf4cmif6client6detail13CmifProxyImplINS_7account4baas28IFloatingRegistrationRequestENS2_15CmifDomainProxyINS0_4hipc6client38Hipc2ClientSessionManagedProxyKindBaseINSA_18Hipc2ProxyKindBaseILNS9_6detail11MessageTypeE6EEEEEEENS0_25StatelessAllocationPolicyINS0_22ExpHeapStaticAllocatorILm2048ENS5_6detail12ObjectHolder24ObjectHolderAllocatorTagEEEEES7_E42_nn_sf_sync_SetSystemProgramIdentificationERKNS5_27SystemProgramIdentificationEm
 00000000:0000007100045FF0       _ZN2nn2sf4cmif6client6detail13CmifProxyImplINS_7account4baas28IFloatingRegistrationRequestENS2_15CmifDomainProxyINS0_4hipc6client38Hipc2ClientSessionManagedProxyKindBaseINSA_18Hipc2ProxyKindBaseILNS9_6detail11MessageTypeE6EEEEEEENS0_25StatelessAllocationPolicyINS0_22ExpHeapStaticAllocatorILm2048ENS5_6detail12ObjectHolder24ObjectHolderAllocatorTagEEEEES7_E35_nn_sf_sync_EnsureIdTokenCacheAsyncENS0_3OutINS0_13SharedPointerINSK_13IAsyncContextEEEvEE
 00000000:0000007100046080       _ZN2nn2sf4cmif6client6detail13CmifProxyImplINS_7account4baas18IGuestLoginRequestENS2_15CmifDomainProxyINS0_4hipc6client38Hipc2ClientSessionManagedProxyKindBaseINSA_18Hipc2ProxyKindBaseILNS9_6detail11MessageTypeE6EEEEEEENS0_25StatelessAllocationPolicyINS0_22ExpHeapStaticAllocatorILm2048ENS5_6detail12ObjectHolder24ObjectHolderAllocatorTagEEEEENS6_28IFloatingRegistrationRequestEE17GetCmifBaseObjectEv
 00000000:0000007100046090       _ZThn32_N2nn2sf4cmif6client6detail13CmifProxyImplINS_7account4baas18IGuestLoginRequestENS2_15CmifDomainProxyINS0_4hipc6client38Hipc2ClientSessionManagedProxyKindBaseINSA_18Hipc2ProxyKindBaseILNS9_6detail11MessageTypeE6EEEEEEENS0_25StatelessAllocationPolicyINS0_22ExpHeapStaticAllocatorILm2048ENS5_6detail12ObjectHolder24ObjectHolderAllocatorTagEEEEENS6_28IFloatingRegistrationRequestEE17GetCmifBaseObjectEv
 00000000:00000071000460A0       _ZN2nn2sf4cmif6client32GetClientProcessorWithObjectBaseINS2_15CmifDomainProxyINS0_4hipc6client38Hipc2ClientSessionManagedProxyKindBaseINS6_18Hipc2ProxyKindBaseILNS5_6detail11MessageTypeE6EEEEEEEE14ObjectAssignerINS0_25StatelessAllocationPolicyINS0_22ExpHeapStaticAllocatorILm2048ENS_7account6detail12ObjectHolder24ObjectHolderAllocatorTagEEEEENS0_6detail23StatelessDummyAllocatorEE14AllocateObjectINSI_4baas14IAdministratorEEEvi
 00000000:0000007100046160       _ZN2nn2sf6detail39ObjectImplFactoryWithStatelessAllocatorINS0_4cmif6client16CmifProxyFactoryINS_7account4baas14IAdministratorENS4_15CmifDomainProxyINS0_4hipc6client38Hipc2ClientSessionManagedProxyKindBaseINSB_18Hipc2ProxyKindBaseILNSA_6detail11MessageTypeE6EEEEEEENS0_25StatelessAllocationPolicyINS0_22ExpHeapStaticAllocatorILm2048ENS6_6detail12ObjectHolder24ObjectHolderAllocatorTagEEEEEE13ServiceObjectESP_E6Object12AddReferenceEv
 00000000:0000007100046170       _ZN2nn2sf6detail39ObjectImplFactoryWithStatelessAllocatorINS0_4cmif6client16CmifProxyFactoryINS_7account4baas14IAdministratorENS4_15CmifDomainProxyINS0_4hipc6client38Hipc2ClientSessionManagedProxyKindBaseINSB_18Hipc2ProxyKindBaseILNSA_6detail11MessageTypeE6EEEEEEENS0_25StatelessAllocationPolicyINS0_22ExpHeapStaticAllocatorILm2048ENS6_6detail12ObjectHolder24ObjectHolderAllocatorTagEEEEEE13ServiceObjectESP_E6Object7ReleaseEv
 00000000:00000071000461E0       _ZN2nn2sf4cmif6client6detail13CmifProxyImplINS_7account4baas12IManagerBaseENS2_15CmifDomainProxyINS0_4hipc6client38Hipc2ClientSessionManagedProxyKindBaseINSA_18Hipc2ProxyKindBaseILNS9_6detail11MessageTypeE6EEEEEEENS0_25StatelessAllocationPolicyINS0_22ExpHeapStaticAllocatorILm2048ENS5_6detail12ObjectHolder24ObjectHolderAllocatorTagEEEEENS6_14IAdministratorEE12GetProxyInfoEv
 00000000:00000071000461F0       _ZN2nn2sf4cmif6client6detail13CmifProxyImplINS_7account4baas12IManagerBaseENS2_15CmifDomainProxyINS0_4hipc6client38Hipc2ClientSessionManagedProxyKindBaseINSA_18Hipc2ProxyKindBaseILNS9_6detail11MessageTypeE6EEEEEEENS0_25StatelessAllocationPolicyINS0_22ExpHeapStaticAllocatorILm2048ENS5_6detail12ObjectHolder24ObjectHolderAllocatorTagEEEEENS6_14IAdministratorEE29_nn_sf_sync_CheckAvailabilityEv
 00000000:0000007100046210       _ZN2nn2sf4cmif6client6detail13CmifProxyImplINS_7account4baas12IManagerBaseENS2_15CmifDomainProxyINS0_4hipc6client38Hipc2ClientSessionManagedProxyKindBaseINSA_18Hipc2ProxyKindBaseILNS9_6detail11MessageTypeE6EEEEEEENS0_25StatelessAllocationPolicyINS0_22ExpHeapStaticAllocatorILm2048ENS5_6detail12ObjectHolder24ObjectHolderAllocatorTagEEEEENS6_14IAdministratorEE24_nn_sf_sync_GetAccountIdENS0_3OutINS5_23NetworkServiceAccountIdEvEE
 00000000:0000007100046230       _ZN2nn2sf4cmif6client6detail13CmifProxyImplINS_7account4baas12IManagerBaseENS2_15CmifDomainProxyINS0_4hipc6client38Hipc2ClientSessionManagedProxyKindBaseINSA_18Hipc2ProxyKindBaseILNS9_6detail11MessageTypeE6EEEEEEENS0_25StatelessAllocationPolicyINS0_22ExpHeapStaticAllocatorILm2048ENS5_6detail12ObjectHolder24ObjectHolderAllocatorTagEEEEENS6_14IAdministratorEE35_nn_sf_sync_EnsureIdTokenCacheAsyncENS0_3OutINS0_13SharedPointerINSK_13IAsyncContextEEEvEE
 00000000:00000071000462C0       _ZN2nn2sf4cmif6client6detail13CmifProxyImplINS_7account4baas12IManagerBaseENS2_15CmifDomainProxyINS0_4hipc6client38Hipc2ClientSessionManagedProxyKindBaseINSA_18Hipc2ProxyKindBaseILNS9_6detail11MessageTypeE6EEEEEEENS0_25StatelessAllocationPolicyINS0_22ExpHeapStaticAllocatorILm2048ENS5_6detail12ObjectHolder24ObjectHolderAllocatorTagEEEEENS6_14IAdministratorEE28_nn_sf_sync_LoadIdTokenCacheENS0_3OutIjvEERKNS0_9OutBufferE
 00000000:00000071000462F0       _ZN2nn2sf4cmif6client6detail13CmifProxyImplINS_7account4baas24IManagerForSystemServiceENS2_15CmifDomainProxyINS0_4hipc6client38Hipc2ClientSessionManagedProxyKindBaseINSA_18Hipc2ProxyKindBaseILNS9_6detail11MessageTypeE6EEEEEEENS0_25StatelessAllocationPolicyINS0_22ExpHeapStaticAllocatorILm2048ENS5_6detail12ObjectHolder24ObjectHolderAllocatorTagEEEEENS6_14IAdministratorEE42_nn_sf_sync_SetSystemProgramIdentificationERKNS5_27SystemProgramIdentificationEm
 00000000:0000007100046320       _ZN2nn2sf4cmif6client6detail13CmifProxyImplINS_7account4baas24IManagerForSystemServiceENS2_15CmifDomainProxyINS0_4hipc6client38Hipc2ClientSessionManagedProxyKindBaseINSA_18Hipc2ProxyKindBaseILNS9_6detail11MessageTypeE6EEEEEEENS0_25StatelessAllocationPolicyINS0_22ExpHeapStaticAllocatorILm2048ENS5_6detail12ObjectHolder24ObjectHolderAllocatorTagEEEEENS6_14IAdministratorEE51_nn_sf_sync_GetServiceEntryRequirementCacheForLoginENS0_3OutIjvEENS_13ApplicationIdE
 00000000:0000007100046340       _ZN2nn2sf4cmif6client6detail13CmifProxyImplINS_7account4baas24IManagerForSystemServiceENS2_15CmifDomainProxyINS0_4hipc6client38Hipc2ClientSessionManagedProxyKindBaseINSA_18Hipc2ProxyKindBaseILNS9_6detail11MessageTypeE6EEEEEEENS0_25StatelessAllocationPolicyINS0_22ExpHeapStaticAllocatorILm2048ENS5_6detail12ObjectHolder24ObjectHolderAllocatorTagEEEEENS6_14IAdministratorEE50_nn_sf_sync_InvalidateServiceEntryRequirementCacheENS_13ApplicationIdE
 00000000:0000007100046360       _ZN2nn2sf4cmif6client6detail13CmifProxyImplINS_7account4baas24IManagerForSystemServiceENS2_15CmifDomainProxyINS0_4hipc6client38Hipc2ClientSessionManagedProxyKindBaseINSA_18Hipc2ProxyKindBaseILNS9_6detail11MessageTypeE6EEEEEEENS0_25StatelessAllocationPolicyINS0_22ExpHeapStaticAllocatorILm2048ENS5_6detail12ObjectHolder24ObjectHolderAllocatorTagEEEEENS6_14IAdministratorEE32_nn_sf_sync_InvalidateTokenCacheENS_13ApplicationIdE
 00000000:0000007100046380       _ZN2nn2sf4cmif6client6detail13CmifProxyImplINS_7account4baas24IManagerForSystemServiceENS2_15CmifDomainProxyINS0_4hipc6client38Hipc2ClientSessionManagedProxyKindBaseINSA_18Hipc2ProxyKindBaseILNS9_6detail11MessageTypeE6EEEEEEENS0_25StatelessAllocationPolicyINS0_22ExpHeapStaticAllocatorILm2048ENS5_6detail12ObjectHolder24ObjectHolderAllocatorTagEEEEENS6_14IAdministratorEE56_nn_sf_sync_GetServiceEntryRequirementCacheForOnlinePlayENS0_3OutIjvEENS_13ApplicationIdE
 00000000:00000071000463A0       _ZN2nn2sf4cmif6client6detail13CmifProxyImplINS_7account4baas24IManagerForSystemServiceENS2_15CmifDomainProxyINS0_4hipc6client38Hipc2ClientSessionManagedProxyKindBaseINSA_18Hipc2ProxyKindBaseILNS9_6detail11MessageTypeE6EEEEEEENS0_25StatelessAllocationPolicyINS0_22ExpHeapStaticAllocatorILm2048ENS5_6detail12ObjectHolder24ObjectHolderAllocatorTagEEEEENS6_14IAdministratorEE32_nn_sf_sync_GetNintendoAccountIdENS0_3OutINS5_17NintendoAccountIdEvEE
 00000000:00000071000463C0       _ZN2nn2sf4cmif6client6detail13CmifProxyImplINS_7account4baas24IManagerForSystemServiceENS2_15CmifDomainProxyINS0_4hipc6client38Hipc2ClientSessionManagedProxyKindBaseINSA_18Hipc2ProxyKindBaseILNS9_6detail11MessageTypeE6EEEEEEENS0_25StatelessAllocationPolicyINS0_22ExpHeapStaticAllocatorILm2048ENS5_6detail12ObjectHolder24ObjectHolderAllocatorTagEEEEENS6_14IAdministratorEE47_nn_sf_sync_GetNintendoAccountUserResourceCacheENS0_3OutINS5_17NintendoAccountIdEvEENSR_INS5_3nas11NasUserBaseEvEERKNS0_9OutBufferE
 00000000:00000071000463F0       _ZN2nn2sf4cmif6client6detail13CmifProxyImplINS_7account4baas24IManagerForSystemServiceENS2_15CmifDomainProxyINS0_4hipc6client38Hipc2ClientSessionManagedProxyKindBaseINSA_18Hipc2ProxyKindBaseILNS9_6detail11MessageTypeE6EEEEEEENS0_25StatelessAllocationPolicyINS0_22ExpHeapStaticAllocatorILm2048ENS5_6detail12ObjectHolder24ObjectHolderAllocatorTagEEEEENS6_14IAdministratorEE56_nn_sf_sync_RefreshNintendoAccountUserResourceCacheAsyncENS0_3OutINS0_13SharedPointerINSK_13IAsyncContextEEEvEE
 00000000:0000007100046480       _ZN2nn2sf4cmif6client6detail13CmifProxyImplINS_7account4baas24IManagerForSystemServiceENS2_15CmifDomainProxyINS0_4hipc6client38Hipc2ClientSessionManagedProxyKindBaseINSA_18Hipc2ProxyKindBaseILNS9_6detail11MessageTypeE6EEEEEEENS0_25StatelessAllocationPolicyINS0_22ExpHeapStaticAllocatorILm2048ENS5_6detail12ObjectHolder24ObjectHolderAllocatorTagEEEEENS6_14IAdministratorEE72_nn_sf_sync_RefreshNintendoAccountUserResourceCacheAsyncIfSecondsElapsedENS0_3OutIbvEENSR_INS0_13SharedPointerINSK_13IAsyncContextEEEvEEj
 00000000:0000007100046530       _ZN2nn2sf4cmif6client6detail13CmifProxyImplINS_7account4baas24IManagerForSystemServiceENS2_15CmifDomainProxyINS0_4hipc6client38Hipc2ClientSessionManagedProxyKindBaseINSA_18Hipc2ProxyKindBaseILNS9_6detail11MessageTypeE6EEEEEEENS0_25StatelessAllocationPolicyINS0_22ExpHeapStaticAllocatorILm2048ENS5_6detail12ObjectHolder24ObjectHolderAllocatorTagEEEEENS6_14IAdministratorEE41_nn_sf_sync_GetNetworkServiceLicenseCacheENS0_3OutIivEENSR_INS_4time9PosixTimeEvEE
 00000000:0000007100046550       _ZN2nn2sf4cmif6client6detail13CmifProxyImplINS_7account4baas24IManagerForSystemServiceENS2_15CmifDomainProxyINS0_4hipc6client38Hipc2ClientSessionManagedProxyKindBaseINSA_18Hipc2ProxyKindBaseILNS9_6detail11MessageTypeE6EEEEEEENS0_25StatelessAllocationPolicyINS0_22ExpHeapStaticAllocatorILm2048ENS5_6detail12ObjectHolder24ObjectHolderAllocatorTagEEEEENS6_14IAdministratorEE50_nn_sf_sync_RefreshNetworkServiceLicenseCacheAsyncENS0_3OutINS0_13SharedPointerINSK_13IAsyncContextEEEvEE
 00000000:00000071000465E0       _ZN2nn2sf4cmif6client6detail13CmifProxyImplINS_7account4baas24IManagerForSystemServiceENS2_15CmifDomainProxyINS0_4hipc6client38Hipc2ClientSessionManagedProxyKindBaseINSA_18Hipc2ProxyKindBaseILNS9_6detail11MessageTypeE6EEEEEEENS0_25StatelessAllocationPolicyINS0_22ExpHeapStaticAllocatorILm2048ENS5_6detail12ObjectHolder24ObjectHolderAllocatorTagEEEEENS6_14IAdministratorEE66_nn_sf_sync_RefreshNetworkServiceLicenseCacheAsyncIfSecondsElapsedENS0_3OutIbvEENSR_INS0_13SharedPointerINSK_13IAsyncContextEEEvEEj
 00000000:0000007100046690       _ZN2nn2sf4cmif6client6detail13CmifProxyImplINS_7account4baas24IManagerForSystemServiceENS2_15CmifDomainProxyINS0_4hipc6client38Hipc2ClientSessionManagedProxyKindBaseINSA_18Hipc2ProxyKindBaseILNS9_6detail11MessageTypeE6EEEEEEENS0_25StatelessAllocationPolicyINS0_22ExpHeapStaticAllocatorILm2048ENS5_6detail12ObjectHolder24ObjectHolderAllocatorTagEEEEENS6_14IAdministratorEE38_nn_sf_sync_CreateAuthorizationRequestENS0_3OutINS0_13SharedPointerINS5_3nas21IAuthorizationRequestEEEvEERKNST_13NasClientInfoERKNS5_45NintendoAccountAuthorizationRequestParametersEONS0_12NativeHandleEj
 00000000:0000007100046760       _ZN2nn2sf4cmif6client6detail13CmifProxyImplINS_7account4baas14IAdministratorENS2_15CmifDomainProxyINS0_4hipc6client38Hipc2ClientSessionManagedProxyKindBaseINSA_18Hipc2ProxyKindBaseILNS9_6detail11MessageTypeE6EEEEEEENS0_25StatelessAllocationPolicyINS0_22ExpHeapStaticAllocatorILm2048ENS5_6detail12ObjectHolder24ObjectHolderAllocatorTagEEEEES7_E24_nn_sf_sync_IsRegisteredENS0_3OutIbvEE
 00000000:0000007100046780       _ZN2nn2sf4cmif6client6detail13CmifProxyImplINS_7account4baas14IAdministratorENS2_15CmifDomainProxyINS0_4hipc6client38Hipc2ClientSessionManagedProxyKindBaseINSA_18Hipc2ProxyKindBaseILNS9_6detail11MessageTypeE6EEEEEEENS0_25StatelessAllocationPolicyINS0_22ExpHeapStaticAllocatorILm2048ENS5_6detail12ObjectHolder24ObjectHolderAllocatorTagEEEEES7_E25_nn_sf_sync_RegisterAsyncENS0_3OutINS0_13SharedPointerINSK_13IAsyncContextEEEvEE
 00000000:0000007100046810       _ZN2nn2sf4cmif6client6detail13CmifProxyImplINS_7account4baas14IAdministratorENS2_15CmifDomainProxyINS0_4hipc6client38Hipc2ClientSessionManagedProxyKindBaseINSA_18Hipc2ProxyKindBaseILNS9_6detail11MessageTypeE6EEEEEEENS0_25StatelessAllocationPolicyINS0_22ExpHeapStaticAllocatorILm2048ENS5_6detail12ObjectHolder24ObjectHolderAllocatorTagEEEEES7_E27_nn_sf_sync_UnregisterAsyncENS0_3OutINS0_13SharedPointerINSK_13IAsyncContextEEEvEE
 00000000:00000071000468A0       _ZN2nn2sf4cmif6client6detail13CmifProxyImplINS_7account4baas14IAdministratorENS2_15CmifDomainProxyINS0_4hipc6client38Hipc2ClientSessionManagedProxyKindBaseINSA_18Hipc2ProxyKindBaseILNS9_6detail11MessageTypeE6EEEEEEENS0_25StatelessAllocationPolicyINS0_22ExpHeapStaticAllocatorILm2048ENS5_6detail12ObjectHolder24ObjectHolderAllocatorTagEEEEES7_E41_nn_sf_sync_DeleteRegistrationInfoLocallyEv
 00000000:00000071000468C0       _ZN2nn2sf4cmif6client6detail13CmifProxyImplINS_7account4baas14IAdministratorENS2_15CmifDomainProxyINS0_4hipc6client38Hipc2ClientSessionManagedProxyKindBaseINSA_18Hipc2ProxyKindBaseILNS9_6detail11MessageTypeE6EEEEEEENS0_25StatelessAllocationPolicyINS0_22ExpHeapStaticAllocatorILm2048ENS5_6detail12ObjectHolder24ObjectHolderAllocatorTagEEEEES7_E35_nn_sf_sync_SynchronizeProfileAsyncENS0_3OutINS0_13SharedPointerINSK_13IAsyncContextEEEvEE
 00000000:0000007100046950       _ZN2nn2sf4cmif6client6detail13CmifProxyImplINS_7account4baas14IAdministratorENS2_15CmifDomainProxyINS0_4hipc6client38Hipc2ClientSessionManagedProxyKindBaseINSA_18Hipc2ProxyKindBaseILNS9_6detail11MessageTypeE6EEEEEEENS0_25StatelessAllocationPolicyINS0_22ExpHeapStaticAllocatorILm2048ENS5_6detail12ObjectHolder24ObjectHolderAllocatorTagEEEEES7_E30_nn_sf_sync_UploadProfileAsyncENS0_3OutINS0_13SharedPointerINSK_13IAsyncContextEEEvEE
 00000000:00000071000469E0       _ZN2nn2sf4cmif6client6detail13CmifProxyImplINS_7account4baas14IAdministratorENS2_15CmifDomainProxyINS0_4hipc6client38Hipc2ClientSessionManagedProxyKindBaseINSA_18Hipc2ProxyKindBaseILNS9_6detail11MessageTypeE6EEEEEEENS0_25StatelessAllocationPolicyINS0_22ExpHeapStaticAllocatorILm2048ENS5_6detail12ObjectHolder24ObjectHolderAllocatorTagEEEEES7_E51_nn_sf_sync_SynchronizeProfileAsyncIfSecondsElapsedENS0_3OutIbvEENSQ_INS0_13SharedPointerINSK_13IAsyncContextEEEvEEj
 00000000:0000007100046A90       _ZN2nn2sf4cmif6client6detail13CmifProxyImplINS_7account4baas14IAdministratorENS2_15CmifDomainProxyINS0_4hipc6client38Hipc2ClientSessionManagedProxyKindBaseINSA_18Hipc2ProxyKindBaseILNS9_6detail11MessageTypeE6EEEEEEENS0_25StatelessAllocationPolicyINS0_22ExpHeapStaticAllocatorILm2048ENS5_6detail12ObjectHolder24ObjectHolderAllocatorTagEEEEES7_E39_nn_sf_sync_IsLinkedWithNintendoAccountENS0_3OutIbvEE
 00000000:0000007100046AB0       _ZN2nn2sf4cmif6client6detail13CmifProxyImplINS_7account4baas14IAdministratorENS2_15CmifDomainProxyINS0_4hipc6client38Hipc2ClientSessionManagedProxyKindBaseINSA_18Hipc2ProxyKindBaseILNS9_6detail11MessageTypeE6EEEEEEENS0_25StatelessAllocationPolicyINS0_22ExpHeapStaticAllocatorILm2048ENS5_6detail12ObjectHolder24ObjectHolderAllocatorTagEEEEES7_E52_nn_sf_sync_CreateProcedureToLinkWithNintendoAccountENS0_3OutINS0_13SharedPointerINS5_3nas40IOAuthProcedureForNintendoAccountLinkageEEEvEE
 00000000:0000007100046B40       _ZN2nn2sf4cmif6client6detail13CmifProxyImplINS_7account4baas14IAdministratorENS2_15CmifDomainProxyINS0_4hipc6client38Hipc2ClientSessionManagedProxyKindBaseINSA_18Hipc2ProxyKindBaseILNS9_6detail11MessageTypeE6EEEEEEENS0_25StatelessAllocationPolicyINS0_22ExpHeapStaticAllocatorILm2048ENS5_6detail12ObjectHolder24ObjectHolderAllocatorTagEEEEES7_E52_nn_sf_sync_ResumeProcedureToLinkWithNintendoAccountENS0_3OutINS0_13SharedPointerINS5_3nas40IOAuthProcedureForNintendoAccountLinkageEEEvEERKNSK_4UuidE
 00000000:0000007100046BE0       _ZN2nn2sf4cmif6client6detail13CmifProxyImplINS_7account4baas14IAdministratorENS2_15CmifDomainProxyINS0_4hipc6client38Hipc2ClientSessionManagedProxyKindBaseINSA_18Hipc2ProxyKindBaseILNS9_6detail11MessageTypeE6EEEEEEENS0_25StatelessAllocationPolicyINS0_22ExpHeapStaticAllocatorILm2048ENS5_6detail12ObjectHolder24ObjectHolderAllocatorTagEEEEES7_E64_nn_sf_sync_CreateProcedureToUpdateLinkageStateOfNintendoAccountENS0_3OutINS0_13SharedPointerINS5_4http15IOAuthProcedureEEEvEE
 00000000:0000007100046C70       _ZN2nn2sf4cmif6client6detail13CmifProxyImplINS_7account4baas14IAdministratorENS2_15CmifDomainProxyINS0_4hipc6client38Hipc2ClientSessionManagedProxyKindBaseINSA_18Hipc2ProxyKindBaseILNS9_6detail11MessageTypeE6EEEEEEENS0_25StatelessAllocationPolicyINS0_22ExpHeapStaticAllocatorILm2048ENS5_6detail12ObjectHolder24ObjectHolderAllocatorTagEEEEES7_E64_nn_sf_sync_ResumeProcedureToUpdateLinkageStateOfNintendoAccountENS0_3OutINS0_13SharedPointerINS5_4http15IOAuthProcedureEEEvEERKNSK_4UuidE
 00000000:0000007100046D10       _ZN2nn2sf4cmif6client6detail13CmifProxyImplINS_7account4baas14IAdministratorENS2_15CmifDomainProxyINS0_4hipc6client38Hipc2ClientSessionManagedProxyKindBaseINSA_18Hipc2ProxyKindBaseILNS9_6detail11MessageTypeE6EEEEEEENS0_25StatelessAllocationPolicyINS0_22ExpHeapStaticAllocatorILm2048ENS5_6detail12ObjectHolder24ObjectHolderAllocatorTagEEEEES7_E56_nn_sf_sync_CreateProcedureToLinkNnidWithNintendoAccountENS0_3OutINS0_13SharedPointerINS5_4http15IOAuthProcedureEEEvEE
 00000000:0000007100046DA0       _ZN2nn2sf4cmif6client6detail13CmifProxyImplINS_7account4baas14IAdministratorENS2_15CmifDomainProxyINS0_4hipc6client38Hipc2ClientSessionManagedProxyKindBaseINSA_18Hipc2ProxyKindBaseILNS9_6detail11MessageTypeE6EEEEEEENS0_25StatelessAllocationPolicyINS0_22ExpHeapStaticAllocatorILm2048ENS5_6detail12ObjectHolder24ObjectHolderAllocatorTagEEEEES7_E56_nn_sf_sync_ResumeProcedureToLinkNnidWithNintendoAccountENS0_3OutINS0_13SharedPointerINS5_4http15IOAuthProcedureEEEvEERKNSK_4UuidE
 00000000:0000007100046E40       _ZN2nn2sf4cmif6client6detail13CmifProxyImplINS_7account4baas14IAdministratorENS2_15CmifDomainProxyINS0_4hipc6client38Hipc2ClientSessionManagedProxyKindBaseINSA_18Hipc2ProxyKindBaseILNS9_6detail11MessageTypeE6EEEEEEENS0_25StatelessAllocationPolicyINS0_22ExpHeapStaticAllocatorILm2048ENS5_6detail12ObjectHolder24ObjectHolderAllocatorTagEEEEES7_E77_nn_sf_sync_ProxyProcedureToAcquireApplicationAuthorizationForNintendoAccountENS0_3OutINS0_13SharedPointerINS5_4http15IOAuthProcedureEEEvEERKNSK_4UuidE
 00000000:0000007100046EE0       _ZN2nn2sf4cmif6client6detail13CmifProxyImplINS_7account4baas14IAdministratorENS2_15CmifDomainProxyINS0_4hipc6client38Hipc2ClientSessionManagedProxyKindBaseINSA_18Hipc2ProxyKindBaseILNS9_6detail11MessageTypeE6EEEEEEENS0_25StatelessAllocationPolicyINS0_22ExpHeapStaticAllocatorILm2048ENS5_6detail12ObjectHolder24ObjectHolderAllocatorTagEEEEES7_E51_nn_sf_sync_TryRecoverNintendoAccountUserStateAsyncENS0_3OutINS0_13SharedPointerINSK_13IAsyncContextEEEvEE
 00000000:0000007100046F70       _ZN2nn2sf4cmif6client6detail13CmifProxyImplINS_7account4baas14IAdministratorENS2_15CmifDomainProxyINS0_4hipc6client38Hipc2ClientSessionManagedProxyKindBaseINSA_18Hipc2ProxyKindBaseILNS9_6detail11MessageTypeE6EEEEEEENS0_25StatelessAllocationPolicyINS0_22ExpHeapStaticAllocatorILm2048ENS5_6detail12ObjectHolder24ObjectHolderAllocatorTagEEEEES7_E70_nn_sf_sync_IsServiceEntryRequirementCacheRefreshRequiredForOnlinePlayENS0_3OutIbvEENS_13ApplicationIdE
 00000000:0000007100046F90       _ZN2nn2sf4cmif6client6detail13CmifProxyImplINS_7account4baas14IAdministratorENS2_15CmifDomainProxyINS0_4hipc6client38Hipc2ClientSessionManagedProxyKindBaseINSA_18Hipc2ProxyKindBaseILNS9_6detail11MessageTypeE6EEEEEEENS0_25StatelessAllocationPolicyINS0_22ExpHeapStaticAllocatorILm2048ENS5_6detail12ObjectHolder24ObjectHolderAllocatorTagEEEEES7_E65_nn_sf_sync_RefreshServiceEntryRequirementCacheForOnlinePlayAsyncENS0_3OutINS0_13SharedPointerINSK_13IAsyncContextEEEvEENS_13ApplicationIdE
 00000000:0000007100047030       _ZN2nn2sf4cmif6client6detail13CmifProxyImplINS_7account4baas14IAdministratorENS2_15CmifDomainProxyINS0_4hipc6client38Hipc2ClientSessionManagedProxyKindBaseINSA_18Hipc2ProxyKindBaseILNS9_6detail11MessageTypeE6EEEEEEENS0_25StatelessAllocationPolicyINS0_22ExpHeapStaticAllocatorILm2048ENS5_6detail12ObjectHolder24ObjectHolderAllocatorTagEEEEES7_E43_nn_sf_sync_DebugUnlinkNintendoAccountAsyncENS0_3OutINS0_13SharedPointerINSK_13IAsyncContextEEEvEE
 00000000:00000071000470C0       _ZN2nn2sf4cmif6client6detail13CmifProxyImplINS_7account4baas14IAdministratorENS2_15CmifDomainProxyINS0_4hipc6client38Hipc2ClientSessionManagedProxyKindBaseINSA_18Hipc2ProxyKindBaseILNS9_6detail11MessageTypeE6EEEEEEENS0_25StatelessAllocationPolicyINS0_22ExpHeapStaticAllocatorILm2048ENS5_6detail12ObjectHolder24ObjectHolderAllocatorTagEEEEES7_E43_nn_sf_sync_DebugSetAvailabilityErrorDetailEj
 00000000:00000071000470F0       _ZN2nn2sf4cmif6client6detail13CmifProxyImplINS_7account4baas12IManagerBaseENS2_15CmifDomainProxyINS0_4hipc6client38Hipc2ClientSessionManagedProxyKindBaseINSA_18Hipc2ProxyKindBaseILNS9_6detail11MessageTypeE6EEEEEEENS0_25StatelessAllocationPolicyINS0_22ExpHeapStaticAllocatorILm2048ENS5_6detail12ObjectHolder24ObjectHolderAllocatorTagEEEEENS6_14IAdministratorEE17GetCmifBaseObjectEv
 00000000:0000007100047100       _ZThn32_N2nn2sf4cmif6client6detail13CmifProxyImplINS_7account4baas12IManagerBaseENS2_15CmifDomainProxyINS0_4hipc6client38Hipc2ClientSessionManagedProxyKindBaseINSA_18Hipc2ProxyKindBaseILNS9_6detail11MessageTypeE6EEEEEEENS0_25StatelessAllocationPolicyINS0_22ExpHeapStaticAllocatorILm2048ENS5_6detail12ObjectHolder24ObjectHolderAllocatorTagEEEEENS6_14IAdministratorEE17GetCmifBaseObjectEv
 00000000:0000007100047110       _ZN2nn2sf4cmif6client32GetClientProcessorWithObjectBaseINS2_15CmifDomainProxyINS0_4hipc6client38Hipc2ClientSessionManagedProxyKindBaseINS6_18Hipc2ProxyKindBaseILNS5_6detail11MessageTypeE6EEEEEEEE14ObjectAssignerINS0_25StatelessAllocationPolicyINS0_22ExpHeapStaticAllocatorILm2048ENS_7account6detail12ObjectHolder24ObjectHolderAllocatorTagEEEEENS0_6detail23StatelessDummyAllocatorEE14AllocateObjectINSI_3nas40IOAuthProcedureForNintendoAccountLinkageEEEvi
 00000000:00000071000471D0       _ZN2nn2sf6detail39ObjectImplFactoryWithStatelessAllocatorINS0_4cmif6client16CmifProxyFactoryINS_7account3nas40IOAuthProcedureForNintendoAccountLinkageENS4_15CmifDomainProxyINS0_4hipc6client38Hipc2ClientSessionManagedProxyKindBaseINSB_18Hipc2ProxyKindBaseILNSA_6detail11MessageTypeE6EEEEEEENS0_25StatelessAllocationPolicyINS0_22ExpHeapStaticAllocatorILm2048ENS6_6detail12ObjectHolder24ObjectHolderAllocatorTagEEEEEE13ServiceObjectESP_E6Object12AddReferenceEv
 00000000:00000071000471E0       _ZN2nn2sf6detail39ObjectImplFactoryWithStatelessAllocatorINS0_4cmif6client16CmifProxyFactoryINS_7account3nas40IOAuthProcedureForNintendoAccountLinkageENS4_15CmifDomainProxyINS0_4hipc6client38Hipc2ClientSessionManagedProxyKindBaseINSB_18Hipc2ProxyKindBaseILNSA_6detail11MessageTypeE6EEEEEEENS0_25StatelessAllocationPolicyINS0_22ExpHeapStaticAllocatorILm2048ENS6_6detail12ObjectHolder24ObjectHolderAllocatorTagEEEEEE13ServiceObjectESP_E6Object7ReleaseEv
 00000000:0000007100047250       _ZN2nn2sf4cmif6client6detail13CmifProxyImplINS_7account4http15IOAuthProcedureENS2_15CmifDomainProxyINS0_4hipc6client38Hipc2ClientSessionManagedProxyKindBaseINSA_18Hipc2ProxyKindBaseILNS9_6detail11MessageTypeE6EEEEEEENS0_25StatelessAllocationPolicyINS0_22ExpHeapStaticAllocatorILm2048ENS5_6detail12ObjectHolder24ObjectHolderAllocatorTagEEEEENS5_3nas40IOAuthProcedureForNintendoAccountLinkageEE12GetProxyInfoEv
 00000000:0000007100047260       _ZN2nn2sf4cmif6client6detail13CmifProxyImplINS_7account4http15IOAuthProcedureENS2_15CmifDomainProxyINS0_4hipc6client38Hipc2ClientSessionManagedProxyKindBaseINSA_18Hipc2ProxyKindBaseILNS9_6detail11MessageTypeE6EEEEEEENS0_25StatelessAllocationPolicyINS0_22ExpHeapStaticAllocatorILm2048ENS5_6detail12ObjectHolder24ObjectHolderAllocatorTagEEEEENS5_3nas40IOAuthProcedureForNintendoAccountLinkageEE24_nn_sf_sync_PrepareAsyncENS0_3OutINS0_13SharedPointerINSK_13IAsyncContextEEEvEE
 00000000:00000071000472F0       _ZN2nn2sf4cmif6client6detail13CmifProxyImplINS_7account4http15IOAuthProcedureENS2_15CmifDomainProxyINS0_4hipc6client38Hipc2ClientSessionManagedProxyKindBaseINSA_18Hipc2ProxyKindBaseILNS9_6detail11MessageTypeE6EEEEEEENS0_25StatelessAllocationPolicyINS0_22ExpHeapStaticAllocatorILm2048ENS5_6detail12ObjectHolder24ObjectHolderAllocatorTagEEEEENS5_3nas40IOAuthProcedureForNintendoAccountLinkageEE22_nn_sf_sync_GetRequestENS0_3OutINS5_10RequestUrlEvEENSS_INS5_11CallbackUriEvEE
 00000000:0000007100047320       _ZN2nn2sf4cmif6client6detail13CmifProxyImplINS_7account4http15IOAuthProcedureENS2_15CmifDomainProxyINS0_4hipc6client38Hipc2ClientSessionManagedProxyKindBaseINSA_18Hipc2ProxyKindBaseILNS9_6detail11MessageTypeE6EEEEEEENS0_25StatelessAllocationPolicyINS0_22ExpHeapStaticAllocatorILm2048ENS5_6detail12ObjectHolder24ObjectHolderAllocatorTagEEEEENS5_3nas40IOAuthProcedureForNintendoAccountLinkageEE25_nn_sf_sync_ApplyResponseERKNS0_7InArrayIcEE
 00000000:0000007100047350       _ZN2nn2sf4cmif6client6detail13CmifProxyImplINS_7account4http15IOAuthProcedureENS2_15CmifDomainProxyINS0_4hipc6client38Hipc2ClientSessionManagedProxyKindBaseINSA_18Hipc2ProxyKindBaseILNS9_6detail11MessageTypeE6EEEEEEENS0_25StatelessAllocationPolicyINS0_22ExpHeapStaticAllocatorILm2048ENS5_6detail12ObjectHolder24ObjectHolderAllocatorTagEEEEENS5_3nas40IOAuthProcedureForNintendoAccountLinkageEE30_nn_sf_sync_ApplyResponseAsyncENS0_3OutINS0_13SharedPointerINSK_13IAsyncContextEEEvEERKNS0_7InArrayIcEE
 00000000:00000071000473F0       _ZN2nn2sf4cmif6client6detail13CmifProxyImplINS_7account4http15IOAuthProcedureENS2_15CmifDomainProxyINS0_4hipc6client38Hipc2ClientSessionManagedProxyKindBaseINSA_18Hipc2ProxyKindBaseILNS9_6detail11MessageTypeE6EEEEEEENS0_25StatelessAllocationPolicyINS0_22ExpHeapStaticAllocatorILm2048ENS5_6detail12ObjectHolder24ObjectHolderAllocatorTagEEEEENS5_3nas40IOAuthProcedureForNintendoAccountLinkageEE19_nn_sf_sync_SuspendENS0_3OutINSK_4UuidEvEE
 00000000:0000007100047410       _ZN2nn2sf4cmif6client6detail13CmifProxyImplINS_7account3nas40IOAuthProcedureForNintendoAccountLinkageENS2_15CmifDomainProxyINS0_4hipc6client38Hipc2ClientSessionManagedProxyKindBaseINSA_18Hipc2ProxyKindBaseILNS9_6detail11MessageTypeE6EEEEEEENS0_25StatelessAllocationPolicyINS0_22ExpHeapStaticAllocatorILm2048ENS5_6detail12ObjectHolder24ObjectHolderAllocatorTagEEEEES7_E31_nn_sf_sync_GetRequestWithThemeENS0_3OutINS5_10RequestUrlEvEENSQ_INS5_11CallbackUriEvEEi
 00000000:0000007100047450       _ZN2nn2sf4cmif6client6detail13CmifProxyImplINS_7account3nas40IOAuthProcedureForNintendoAccountLinkageENS2_15CmifDomainProxyINS0_4hipc6client38Hipc2ClientSessionManagedProxyKindBaseINSA_18Hipc2ProxyKindBaseILNS9_6detail11MessageTypeE6EEEEEEENS0_25StatelessAllocationPolicyINS0_22ExpHeapStaticAllocatorILm2048ENS5_6detail12ObjectHolder24ObjectHolderAllocatorTagEEEEES7_E43_nn_sf_sync_IsNetworkServiceAccountReplacedENS0_3OutIbvEE
 00000000:0000007100047470       _ZN2nn2sf4cmif6client6detail13CmifProxyImplINS_7account4http15IOAuthProcedureENS2_15CmifDomainProxyINS0_4hipc6client38Hipc2ClientSessionManagedProxyKindBaseINSA_18Hipc2ProxyKindBaseILNS9_6detail11MessageTypeE6EEEEEEENS0_25StatelessAllocationPolicyINS0_22ExpHeapStaticAllocatorILm2048ENS5_6detail12ObjectHolder24ObjectHolderAllocatorTagEEEEENS5_3nas40IOAuthProcedureForNintendoAccountLinkageEE17GetCmifBaseObjectEv
 00000000:0000007100047480       _ZThn32_N2nn2sf4cmif6client6detail13CmifProxyImplINS_7account4http15IOAuthProcedureENS2_15CmifDomainProxyINS0_4hipc6client38Hipc2ClientSessionManagedProxyKindBaseINSA_18Hipc2ProxyKindBaseILNS9_6detail11MessageTypeE6EEEEEEENS0_25StatelessAllocationPolicyINS0_22ExpHeapStaticAllocatorILm2048ENS5_6detail12ObjectHolder24ObjectHolderAllocatorTagEEEEENS5_3nas40IOAuthProcedureForNintendoAccountLinkageEE17GetCmifBaseObjectEv
 00000000:0000007100047490       _ZN2nn2sf4cmif6client34CmifDomainProxyClientCoreProcessorINS0_4hipc6client38Hipc2ClientSessionManagedProxyKindBaseINS5_18Hipc2ProxyKindBaseILNS4_6detail11MessageTypeE6EEEEENS1_6detail14CoreMethodInfoINSt3__15tupleIJNSC_18BufferArgumentInfoILi0ELi26ELm4096EEENSG_ILi1ELi26ELm256EEEEEELm0ELm0ELb0EEESJ_E7ProcessEPNS2_23CmifDomainClientMessageISB_E15ProxyBaseObjectENS2_24BufferClientArgumentTypeESQ_j
 00000000:00000071000476A0       _ZN2nn2sf4cmif6client34CmifDomainProxyClientCoreProcessorINS0_4hipc6client38Hipc2ClientSessionManagedProxyKindBaseINS5_18Hipc2ProxyKindBaseILNS4_6detail11MessageTypeE6EEEEENS1_6detail14CoreMethodInfoINSt3__15tupleIJNSC_18BufferArgumentInfoILi0ELi9ELm0EEEEEELm0ELm0ELb0EEESI_E7ProcessEPNS2_23CmifDomainClientMessageISB_E15ProxyBaseObjectENS2_24BufferClientArgumentTypeEj
 00000000:00000071000478A0       _ZN2nn2sf4cmif6client34CmifDomainProxyClientCoreProcessorINS0_4hipc6client38Hipc2ClientSessionManagedProxyKindBaseINS5_18Hipc2ProxyKindBaseILNS4_6detail11MessageTypeE6EEEEENS1_6detail14CoreMethodInfoINSt3__15tupleIJNSC_21OutObjectArgumentInfoILi0ELi0EEENSC_18BufferArgumentInfoILi0ELi9ELm0EEEEEELm0ELm0ELb0EEESK_E21ProcessWithOutObjectsEPNS2_23CmifDomainClientMessageISB_E15ProxyBaseObjectENS2_27OutObjectClientArgumentTypeENS2_24BufferClientArgumentTypeEjPNS0_13SharedPointerINS0_14IServiceObjectEEE
 00000000:0000007100047B30       _ZN2nn2sf4cmif6client34CmifDomainProxyClientCoreProcessorINS0_4hipc6client38Hipc2ClientSessionManagedProxyKindBaseINS5_18Hipc2ProxyKindBaseILNS4_6detail11MessageTypeE6EEEEENS1_6detail14CoreMethodInfoINSt3__15tupleIJNSC_18BufferArgumentInfoILi0ELi26ELm4096EEENSG_ILi1ELi26ELm256EEENSC_17InRawArgumentInfoILm4ELm4ELl0EEEEEELm4ELm0ELb0EEESL_E7ProcessEPNS2_23CmifDomainClientMessageISB_E15ProxyBaseObjectENS2_24BufferClientArgumentTypeESS_NS2_23InRawClientArgumentTypeILm4ELm4EvEEj
 00000000:0000007100047D40       _ZN2nn2sf4cmif6client34CmifDomainProxyClientCoreProcessorINS0_4hipc6client38Hipc2ClientSessionManagedProxyKindBaseINS5_18Hipc2ProxyKindBaseILNS4_6detail11MessageTypeE6EEEEENS1_6detail14CoreMethodInfoINSt3__15tupleIJNSC_21OutObjectArgumentInfoILi0ELi0EEENSC_17InRawArgumentInfoILm16ELm4ELl0EEEEEELm16ELm0ELb0EEESK_E21ProcessWithOutObjectsEPNS2_23CmifDomainClientMessageISB_E15ProxyBaseObjectENS2_27OutObjectClientArgumentTypeENS2_23InRawClientArgumentTypeILm16ELm4EvEEjPNS0_13SharedPointerINS0_14IServiceObjectEEE
 00000000:0000007100047F20       _ZN2nn2sf4cmif6client32GetClientProcessorWithObjectBaseINS2_15CmifDomainProxyINS0_4hipc6client38Hipc2ClientSessionManagedProxyKindBaseINS6_18Hipc2ProxyKindBaseILNS5_6detail11MessageTypeE6EEEEEEEE14ObjectAssignerINS0_25StatelessAllocationPolicyINS0_22ExpHeapStaticAllocatorILm2048ENS_7account6detail12ObjectHolder24ObjectHolderAllocatorTagEEEEENS0_6detail23StatelessDummyAllocatorEE14AllocateObjectINSI_4http15IOAuthProcedureEEEvi
 00000000:0000007100047FE0       _ZN2nn2sf6detail39ObjectImplFactoryWithStatelessAllocatorINS0_4cmif6client16CmifProxyFactoryINS_7account4http15IOAuthProcedureENS4_15CmifDomainProxyINS0_4hipc6client38Hipc2ClientSessionManagedProxyKindBaseINSB_18Hipc2ProxyKindBaseILNSA_6detail11MessageTypeE6EEEEEEENS0_25StatelessAllocationPolicyINS0_22ExpHeapStaticAllocatorILm2048ENS6_6detail12ObjectHolder24ObjectHolderAllocatorTagEEEEEE13ServiceObjectESP_E6Object12AddReferenceEv
 00000000:0000007100047FF0       _ZN2nn2sf6detail39ObjectImplFactoryWithStatelessAllocatorINS0_4cmif6client16CmifProxyFactoryINS_7account4http15IOAuthProcedureENS4_15CmifDomainProxyINS0_4hipc6client38Hipc2ClientSessionManagedProxyKindBaseINSB_18Hipc2ProxyKindBaseILNSA_6detail11MessageTypeE6EEEEEEENS0_25StatelessAllocationPolicyINS0_22ExpHeapStaticAllocatorILm2048ENS6_6detail12ObjectHolder24ObjectHolderAllocatorTagEEEEEE13ServiceObjectESP_E6Object7ReleaseEv
 00000000:0000007100048060       _ZN2nn2sf4cmif6client6detail13CmifProxyImplINS_7account4http15IOAuthProcedureENS2_15CmifDomainProxyINS0_4hipc6client38Hipc2ClientSessionManagedProxyKindBaseINSA_18Hipc2ProxyKindBaseILNS9_6detail11MessageTypeE6EEEEEEENS0_25StatelessAllocationPolicyINS0_22ExpHeapStaticAllocatorILm2048ENS5_6detail12ObjectHolder24ObjectHolderAllocatorTagEEEEES7_E12GetProxyInfoEv
 00000000:0000007100048070       _ZN2nn2sf4cmif6client6detail13CmifProxyImplINS_7account4http15IOAuthProcedureENS2_15CmifDomainProxyINS0_4hipc6client38Hipc2ClientSessionManagedProxyKindBaseINSA_18Hipc2ProxyKindBaseILNS9_6detail11MessageTypeE6EEEEEEENS0_25StatelessAllocationPolicyINS0_22ExpHeapStaticAllocatorILm2048ENS5_6detail12ObjectHolder24ObjectHolderAllocatorTagEEEEES7_E24_nn_sf_sync_PrepareAsyncENS0_3OutINS0_13SharedPointerINSK_13IAsyncContextEEEvEE
 00000000:0000007100048100       _ZN2nn2sf4cmif6client6detail13CmifProxyImplINS_7account4http15IOAuthProcedureENS2_15CmifDomainProxyINS0_4hipc6client38Hipc2ClientSessionManagedProxyKindBaseINSA_18Hipc2ProxyKindBaseILNS9_6detail11MessageTypeE6EEEEEEENS0_25StatelessAllocationPolicyINS0_22ExpHeapStaticAllocatorILm2048ENS5_6detail12ObjectHolder24ObjectHolderAllocatorTagEEEEES7_E22_nn_sf_sync_GetRequestENS0_3OutINS5_10RequestUrlEvEENSQ_INS5_11CallbackUriEvEE
 00000000:0000007100048130       _ZN2nn2sf4cmif6client6detail13CmifProxyImplINS_7account4http15IOAuthProcedureENS2_15CmifDomainProxyINS0_4hipc6client38Hipc2ClientSessionManagedProxyKindBaseINSA_18Hipc2ProxyKindBaseILNS9_6detail11MessageTypeE6EEEEEEENS0_25StatelessAllocationPolicyINS0_22ExpHeapStaticAllocatorILm2048ENS5_6detail12ObjectHolder24ObjectHolderAllocatorTagEEEEES7_E25_nn_sf_sync_ApplyResponseERKNS0_7InArrayIcEE
 00000000:0000007100048160       _ZN2nn2sf4cmif6client6detail13CmifProxyImplINS_7account4http15IOAuthProcedureENS2_15CmifDomainProxyINS0_4hipc6client38Hipc2ClientSessionManagedProxyKindBaseINSA_18Hipc2ProxyKindBaseILNS9_6detail11MessageTypeE6EEEEEEENS0_25StatelessAllocationPolicyINS0_22ExpHeapStaticAllocatorILm2048ENS5_6detail12ObjectHolder24ObjectHolderAllocatorTagEEEEES7_E30_nn_sf_sync_ApplyResponseAsyncENS0_3OutINS0_13SharedPointerINSK_13IAsyncContextEEEvEERKNS0_7InArrayIcEE
 00000000:0000007100048200       _ZN2nn2sf4cmif6client6detail13CmifProxyImplINS_7account4http15IOAuthProcedureENS2_15CmifDomainProxyINS0_4hipc6client38Hipc2ClientSessionManagedProxyKindBaseINSA_18Hipc2ProxyKindBaseILNS9_6detail11MessageTypeE6EEEEEEENS0_25StatelessAllocationPolicyINS0_22ExpHeapStaticAllocatorILm2048ENS5_6detail12ObjectHolder24ObjectHolderAllocatorTagEEEEES7_E19_nn_sf_sync_SuspendENS0_3OutINSK_4UuidEvEE
 00000000:0000007100048220       _ZN2nn2sf4cmif6client6detail13CmifProxyImplINS_7account4http15IOAuthProcedureENS2_15CmifDomainProxyINS0_4hipc6client38Hipc2ClientSessionManagedProxyKindBaseINSA_18Hipc2ProxyKindBaseILNS9_6detail11MessageTypeE6EEEEEEENS0_25StatelessAllocationPolicyINS0_22ExpHeapStaticAllocatorILm2048ENS5_6detail12ObjectHolder24ObjectHolderAllocatorTagEEEEES7_E17GetCmifBaseObjectEv
 00000000:0000007100048230       _ZThn32_N2nn2sf4cmif6client6detail13CmifProxyImplINS_7account4http15IOAuthProcedureENS2_15CmifDomainProxyINS0_4hipc6client38Hipc2ClientSessionManagedProxyKindBaseINSA_18Hipc2ProxyKindBaseILNS9_6detail11MessageTypeE6EEEEEEENS0_25StatelessAllocationPolicyINS0_22ExpHeapStaticAllocatorILm2048ENS5_6detail12ObjectHolder24ObjectHolderAllocatorTagEEEEES7_E17GetCmifBaseObjectEv
 00000000:0000007100048240       _ZN2nn2sf4cmif6client32GetClientProcessorWithObjectBaseINS2_15CmifDomainProxyINS0_4hipc6client38Hipc2ClientSessionManagedProxyKindBaseINS6_18Hipc2ProxyKindBaseILNS5_6detail11MessageTypeE6EEEEEEEE14ObjectAssignerINS0_25StatelessAllocationPolicyINS0_22ExpHeapStaticAllocatorILm2048ENS_7account6detail12ObjectHolder24ObjectHolderAllocatorTagEEEEENS0_6detail23StatelessDummyAllocatorEE14AllocateObjectINSI_3nas29IOAuthProcedureForExternalNsaEEEvi
 00000000:0000007100048300       _ZN2nn2sf6detail39ObjectImplFactoryWithStatelessAllocatorINS0_4cmif6client16CmifProxyFactoryINS_7account3nas29IOAuthProcedureForExternalNsaENS4_15CmifDomainProxyINS0_4hipc6client38Hipc2ClientSessionManagedProxyKindBaseINSB_18Hipc2ProxyKindBaseILNSA_6detail11MessageTypeE6EEEEEEENS0_25StatelessAllocationPolicyINS0_22ExpHeapStaticAllocatorILm2048ENS6_6detail12ObjectHolder24ObjectHolderAllocatorTagEEEEEE13ServiceObjectESP_E6Object12AddReferenceEv
 00000000:0000007100048310       _ZN2nn2sf6detail39ObjectImplFactoryWithStatelessAllocatorINS0_4cmif6client16CmifProxyFactoryINS_7account3nas29IOAuthProcedureForExternalNsaENS4_15CmifDomainProxyINS0_4hipc6client38Hipc2ClientSessionManagedProxyKindBaseINSB_18Hipc2ProxyKindBaseILNSA_6detail11MessageTypeE6EEEEEEENS0_25StatelessAllocationPolicyINS0_22ExpHeapStaticAllocatorILm2048ENS6_6detail12ObjectHolder24ObjectHolderAllocatorTagEEEEEE13ServiceObjectESP_E6Object7ReleaseEv
 00000000:0000007100048380       _ZN2nn2sf4cmif6client6detail13CmifProxyImplINS_7account4http15IOAuthProcedureENS2_15CmifDomainProxyINS0_4hipc6client38Hipc2ClientSessionManagedProxyKindBaseINSA_18Hipc2ProxyKindBaseILNS9_6detail11MessageTypeE6EEEEEEENS0_25StatelessAllocationPolicyINS0_22ExpHeapStaticAllocatorILm2048ENS5_6detail12ObjectHolder24ObjectHolderAllocatorTagEEEEENS5_3nas29IOAuthProcedureForExternalNsaEE12GetProxyInfoEv
 00000000:0000007100048390       _ZN2nn2sf4cmif6client6detail13CmifProxyImplINS_7account4http15IOAuthProcedureENS2_15CmifDomainProxyINS0_4hipc6client38Hipc2ClientSessionManagedProxyKindBaseINSA_18Hipc2ProxyKindBaseILNS9_6detail11MessageTypeE6EEEEEEENS0_25StatelessAllocationPolicyINS0_22ExpHeapStaticAllocatorILm2048ENS5_6detail12ObjectHolder24ObjectHolderAllocatorTagEEEEENS5_3nas29IOAuthProcedureForExternalNsaEE24_nn_sf_sync_PrepareAsyncENS0_3OutINS0_13SharedPointerINSK_13IAsyncContextEEEvEE
 00000000:0000007100048420       _ZN2nn2sf4cmif6client6detail13CmifProxyImplINS_7account4http15IOAuthProcedureENS2_15CmifDomainProxyINS0_4hipc6client38Hipc2ClientSessionManagedProxyKindBaseINSA_18Hipc2ProxyKindBaseILNS9_6detail11MessageTypeE6EEEEEEENS0_25StatelessAllocationPolicyINS0_22ExpHeapStaticAllocatorILm2048ENS5_6detail12ObjectHolder24ObjectHolderAllocatorTagEEEEENS5_3nas29IOAuthProcedureForExternalNsaEE22_nn_sf_sync_GetRequestENS0_3OutINS5_10RequestUrlEvEENSS_INS5_11CallbackUriEvEE
 00000000:0000007100048450       _ZN2nn2sf4cmif6client6detail13CmifProxyImplINS_7account4http15IOAuthProcedureENS2_15CmifDomainProxyINS0_4hipc6client38Hipc2ClientSessionManagedProxyKindBaseINSA_18Hipc2ProxyKindBaseILNS9_6detail11MessageTypeE6EEEEEEENS0_25StatelessAllocationPolicyINS0_22ExpHeapStaticAllocatorILm2048ENS5_6detail12ObjectHolder24ObjectHolderAllocatorTagEEEEENS5_3nas29IOAuthProcedureForExternalNsaEE25_nn_sf_sync_ApplyResponseERKNS0_7InArrayIcEE
 00000000:0000007100048480       _ZN2nn2sf4cmif6client6detail13CmifProxyImplINS_7account4http15IOAuthProcedureENS2_15CmifDomainProxyINS0_4hipc6client38Hipc2ClientSessionManagedProxyKindBaseINSA_18Hipc2ProxyKindBaseILNS9_6detail11MessageTypeE6EEEEEEENS0_25StatelessAllocationPolicyINS0_22ExpHeapStaticAllocatorILm2048ENS5_6detail12ObjectHolder24ObjectHolderAllocatorTagEEEEENS5_3nas29IOAuthProcedureForExternalNsaEE30_nn_sf_sync_ApplyResponseAsyncENS0_3OutINS0_13SharedPointerINSK_13IAsyncContextEEEvEERKNS0_7InArrayIcEE
 00000000:0000007100048520       _ZN2nn2sf4cmif6client6detail13CmifProxyImplINS_7account4http15IOAuthProcedureENS2_15CmifDomainProxyINS0_4hipc6client38Hipc2ClientSessionManagedProxyKindBaseINSA_18Hipc2ProxyKindBaseILNS9_6detail11MessageTypeE6EEEEEEENS0_25StatelessAllocationPolicyINS0_22ExpHeapStaticAllocatorILm2048ENS5_6detail12ObjectHolder24ObjectHolderAllocatorTagEEEEENS5_3nas29IOAuthProcedureForExternalNsaEE19_nn_sf_sync_SuspendENS0_3OutINSK_4UuidEvEE
 00000000:0000007100048540       _ZN2nn2sf4cmif6client6detail13CmifProxyImplINS_7account3nas29IOAuthProcedureForExternalNsaENS2_15CmifDomainProxyINS0_4hipc6client38Hipc2ClientSessionManagedProxyKindBaseINSA_18Hipc2ProxyKindBaseILNS9_6detail11MessageTypeE6EEEEEEENS0_25StatelessAllocationPolicyINS0_22ExpHeapStaticAllocatorILm2048ENS5_6detail12ObjectHolder24ObjectHolderAllocatorTagEEEEES7_E24_nn_sf_sync_GetAccountIdENS0_3OutINS5_23NetworkServiceAccountIdEvEE
 00000000:0000007100048560       _ZN2nn2sf4cmif6client6detail13CmifProxyImplINS_7account3nas29IOAuthProcedureForExternalNsaENS2_15CmifDomainProxyINS0_4hipc6client38Hipc2ClientSessionManagedProxyKindBaseINSA_18Hipc2ProxyKindBaseILNS9_6detail11MessageTypeE6EEEEEEENS0_25StatelessAllocationPolicyINS0_22ExpHeapStaticAllocatorILm2048ENS5_6detail12ObjectHolder24ObjectHolderAllocatorTagEEEEES7_E38_nn_sf_sync_GetLinkedNintendoAccountIdENS0_3OutINS5_17NintendoAccountIdEvEE
 00000000:0000007100048580       _ZN2nn2sf4cmif6client6detail13CmifProxyImplINS_7account3nas29IOAuthProcedureForExternalNsaENS2_15CmifDomainProxyINS0_4hipc6client38Hipc2ClientSessionManagedProxyKindBaseINSA_18Hipc2ProxyKindBaseILNS9_6detail11MessageTypeE6EEEEEEENS0_25StatelessAllocationPolicyINS0_22ExpHeapStaticAllocatorILm2048ENS5_6detail12ObjectHolder24ObjectHolderAllocatorTagEEEEES7_E23_nn_sf_sync_GetNicknameERKNS0_8OutArrayIcEE
 00000000:00000071000485B0       _ZN2nn2sf4cmif6client6detail13CmifProxyImplINS_7account3nas29IOAuthProcedureForExternalNsaENS2_15CmifDomainProxyINS0_4hipc6client38Hipc2ClientSessionManagedProxyKindBaseINSA_18Hipc2ProxyKindBaseILNS9_6detail11MessageTypeE6EEEEEEENS0_25StatelessAllocationPolicyINS0_22ExpHeapStaticAllocatorILm2048ENS5_6detail12ObjectHolder24ObjectHolderAllocatorTagEEEEES7_E27_nn_sf_sync_GetProfileImageENS0_3OutIjvEERKNS0_9OutBufferE
 00000000:00000071000485E0       _ZN2nn2sf4cmif6client6detail13CmifProxyImplINS_7account4http15IOAuthProcedureENS2_15CmifDomainProxyINS0_4hipc6client38Hipc2ClientSessionManagedProxyKindBaseINSA_18Hipc2ProxyKindBaseILNS9_6detail11MessageTypeE6EEEEEEENS0_25StatelessAllocationPolicyINS0_22ExpHeapStaticAllocatorILm2048ENS5_6detail12ObjectHolder24ObjectHolderAllocatorTagEEEEENS5_3nas29IOAuthProcedureForExternalNsaEE17GetCmifBaseObjectEv
 00000000:00000071000485F0       _ZThn32_N2nn2sf4cmif6client6detail13CmifProxyImplINS_7account4http15IOAuthProcedureENS2_15CmifDomainProxyINS0_4hipc6client38Hipc2ClientSessionManagedProxyKindBaseINSA_18Hipc2ProxyKindBaseILNS9_6detail11MessageTypeE6EEEEEEENS0_25StatelessAllocationPolicyINS0_22ExpHeapStaticAllocatorILm2048ENS5_6detail12ObjectHolder24ObjectHolderAllocatorTagEEEEENS5_3nas29IOAuthProcedureForExternalNsaEE17GetCmifBaseObjectEv
 00000000:00000071000487D0       _ZN2nn7account12AsyncContext4SwapERS1_
 00000000:0000007100048820       _ZNK2nn7account12AsyncContext16GetPointerUnsafeEv
 00000000:0000007100048830       _ZN2nn7account12AsyncContextC1EOS1_
 00000000:0000007100048870       _ZN2nn7account12AsyncContextaSEOS1_
 00000000:0000007100048950       _ZN2nn7account12AsyncContextC1EPNS0_6detail13IAsyncContextE
 00000000:0000007100048970       _ZN2nn7account12AsyncContextC2EPNS0_6detail13IAsyncContextERKNS0_3UidE
 00000000:00000071000489A0       _ZN2nn7account12AsyncContextC2Ev
 00000000:00000071000489C0       _ZN2nn7account12AsyncContextD2Ev
 00000000:0000007100048A60       _ZNK2nn7account12AsyncContextcvbEv
 00000000:0000007100048A70       _ZN2nn7account12AsyncContextD0Ev
 00000000:0000007100048B20       _ZN2nn7account12AsyncContext14GetSystemEventEPNS_2os11SystemEventE
 00000000:0000007100048BD0       _ZN2nn7account12AsyncContext6CancelEv
 00000000:0000007100048C00       _ZN2nn7account12AsyncContext7HasDoneEPb
 00000000:0000007100048C30       _ZN2nn7account12AsyncContext9GetResultEv
 00000000:0000007100048C60       _ZN2nn7account33InitializeBaasAccessTokenAccessorEv
 00000000:0000007100048D70       _ZN2nn7account37InitializeBaasAccessTokenAccessorWithEONS_2sf13SharedPointerINS0_24IBaasAccessTokenAccessorEEE
 00000000:0000007100048E20       _ZN2nn7account31FinalizeBaasAccessTokenAccessorEv
 00000000:0000007100048EA0       _ZN2nn7account31EnsureBaasAccessTokenCacheAsyncEPNS0_12AsyncContextERKNS0_3UidE
 00000000:0000007100048F80       _ZN2nn7account24LoadBaasAccessTokenCacheEPmPcmRKNS0_3UidE
 00000000:0000007100049030       _ZN2nn7account22GetBaasDeviceAccountIdEPmRKNS0_3UidE
 00000000:00000071000490B0       _ZN2nn7account27PutBaasChannelResourceAsyncEPNS0_12AsyncContextERKNS0_3UidERKNS_4npns17NotificationTokenE
 00000000:00000071000491A0       _ZN2nn7account30DeleteBaasChannelResourceAsyncEPNS0_12AsyncContextERKNS0_3UidE
 00000000:0000007100049280       _ZZN2nn2sf40SimpleAllInOneHipcSubDomainClientManagerILm17EE27InitializeShimLibraryHolderINS_7account24IBaasAccessTokenAccessorEEENS_6ResultEPNS0_23ShimLibraryObjectHolderIT_EEPKcPNS_14MemoryResourceEENUlPNS0_13SharedPointerIS5_EEE_clESH_
 00000000:00000071000495B0       _ZN2nn2sf22UnitHeapMemoryResourceD0Ev
 00000000:00000071000495C0       _ZN2nn2sf22UnitHeapMemoryResource11do_allocateEmm
 00000000:00000071000495D0       _ZN2nn2sf22UnitHeapMemoryResource13do_deallocateEPvmm
 00000000:00000071000495E0       _ZNK2nn2sf22UnitHeapMemoryResource11do_is_equalERKNS_14MemoryResourceE
 00000000:00000071000495F0       _ZN2nn2sf4hipc6client34HipcSimpleClientSessionManagerBaseINS2_29DefaultSessionResourceManagerEE4Impl18InitializeByHandleINS_7account24IBaasAccessTokenAccessorENS0_30MemoryResourceAllocationPolicyEEENS_6ResultEPNS0_13SharedPointerIT_EEPNT0_9AllocatorENS_3svc6HandleE
 00000000:0000007100049700       _ZN2nn2sf6detail38ObjectImplFactoryWithStatefulAllocatorINS0_4cmif6client16CmifProxyFactoryINS_7account24IBaasAccessTokenAccessorENS4_15CmifDomainProxyINS0_4hipc6client38Hipc2ClientSessionManagedProxyKindBaseINSA_18Hipc2ProxyKindBaseILNS9_6detail11MessageTypeE6EEEEEEENS0_30MemoryResourceAllocationPolicyEE13ServiceObjectESI_E6Object12AddReferenceEv
 00000000:0000007100049710       _ZN2nn2sf6detail38ObjectImplFactoryWithStatefulAllocatorINS0_4cmif6client16CmifProxyFactoryINS_7account24IBaasAccessTokenAccessorENS4_15CmifDomainProxyINS0_4hipc6client38Hipc2ClientSessionManagedProxyKindBaseINSA_18Hipc2ProxyKindBaseILNS9_6detail11MessageTypeE6EEEEEEENS0_30MemoryResourceAllocationPolicyEE13ServiceObjectESI_E6Object7ReleaseEv
 00000000:0000007100049770       _ZN2nn2sf4cmif6client6detail13CmifProxyImplINS_7account24IBaasAccessTokenAccessorENS2_15CmifDomainProxyINS0_4hipc6client38Hipc2ClientSessionManagedProxyKindBaseINS9_18Hipc2ProxyKindBaseILNS8_6detail11MessageTypeE6EEEEEEENS0_30MemoryResourceAllocationPolicyES6_E12GetProxyInfoEv
 00000000:0000007100049780       _ZN2nn2sf4cmif6client6detail13CmifProxyImplINS_7account24IBaasAccessTokenAccessorENS2_15CmifDomainProxyINS0_4hipc6client38Hipc2ClientSessionManagedProxyKindBaseINS9_18Hipc2ProxyKindBaseILNS8_6detail11MessageTypeE6EEEEEEENS0_30MemoryResourceAllocationPolicyES6_E28_nn_sf_sync_EnsureCacheAsyncENS0_3OutINS0_13SharedPointerINS5_6detail13IAsyncContextEEEvEERKNS5_3UidE
 00000000:0000007100049830       _ZN2nn2sf4cmif6client6detail13CmifProxyImplINS_7account24IBaasAccessTokenAccessorENS2_15CmifDomainProxyINS0_4hipc6client38Hipc2ClientSessionManagedProxyKindBaseINS9_18Hipc2ProxyKindBaseILNS8_6detail11MessageTypeE6EEEEEEENS0_30MemoryResourceAllocationPolicyES6_E21_nn_sf_sync_LoadCacheENS0_3OutIjvEERKNS0_9OutBufferERKNS5_3UidE
 00000000:0000007100049860       _ZN2nn2sf4cmif6client6detail13CmifProxyImplINS_7account24IBaasAccessTokenAccessorENS2_15CmifDomainProxyINS0_4hipc6client38Hipc2ClientSessionManagedProxyKindBaseINS9_18Hipc2ProxyKindBaseILNS8_6detail11MessageTypeE6EEEEEEENS0_30MemoryResourceAllocationPolicyES6_E30_nn_sf_sync_GetDeviceAccountIdENS0_3OutImvEERKNS5_3UidE
 00000000:0000007100049880       _ZN2nn2sf4cmif6client6detail13CmifProxyImplINS_7account24IBaasAccessTokenAccessorENS2_15CmifDomainProxyINS0_4hipc6client38Hipc2ClientSessionManagedProxyKindBaseINS9_18Hipc2ProxyKindBaseILNS8_6detail11MessageTypeE6EEEEEEENS0_30MemoryResourceAllocationPolicyES6_E42_nn_sf_sync_RegisterNotificationTokenAsyncENS0_3OutINS0_13SharedPointerINS5_6detail13IAsyncContextEEEvEERKNS5_3UidERKNS_4npns17NotificationTokenE
 00000000:0000007100049930       _ZN2nn2sf4cmif6client6detail13CmifProxyImplINS_7account24IBaasAccessTokenAccessorENS2_15CmifDomainProxyINS0_4hipc6client38Hipc2ClientSessionManagedProxyKindBaseINS9_18Hipc2ProxyKindBaseILNS8_6detail11MessageTypeE6EEEEEEENS0_30MemoryResourceAllocationPolicyES6_E44_nn_sf_sync_UnregisterNotificationTokenAsyncENS0_3OutINS0_13SharedPointerINS5_6detail13IAsyncContextEEEvEERKNS5_3UidE
 00000000:00000071000499E0       _ZN2nn2sf4cmif6client6detail13CmifProxyImplINS_7account24IBaasAccessTokenAccessorENS2_15CmifDomainProxyINS0_4hipc6client38Hipc2ClientSessionManagedProxyKindBaseINS9_18Hipc2ProxyKindBaseILNS8_6detail11MessageTypeE6EEEEEEENS0_30MemoryResourceAllocationPolicyES6_E17GetCmifBaseObjectEv
 00000000:00000071000499F0       _ZThn32_N2nn2sf4cmif6client6detail13CmifProxyImplINS_7account24IBaasAccessTokenAccessorENS2_15CmifDomainProxyINS0_4hipc6client38Hipc2ClientSessionManagedProxyKindBaseINS9_18Hipc2ProxyKindBaseILNS8_6detail11MessageTypeE6EEEEEEENS0_30MemoryResourceAllocationPolicyES6_E17GetCmifBaseObjectEv
 00000000:0000007100049A00       _ZN2nn2sf4cmif6client32GetClientProcessorWithObjectBaseINS2_15CmifDomainProxyINS0_4hipc6client38Hipc2ClientSessionManagedProxyKindBaseINS6_18Hipc2ProxyKindBaseILNS5_6detail11MessageTypeE6EEEEEEEE14ObjectAssignerINS0_30MemoryResourceAllocationPolicyENS_14MemoryResourceEE14AllocateObjectINS_7account6detail13IAsyncContextEEEvi
 00000000:0000007100049AB0       _ZN2nn2sf6detail38ObjectImplFactoryWithStatefulAllocatorINS0_4cmif6client16CmifProxyFactoryINS_7account6detail13IAsyncContextENS4_15CmifDomainProxyINS0_4hipc6client38Hipc2ClientSessionManagedProxyKindBaseINSB_18Hipc2ProxyKindBaseILNSA_6detail11MessageTypeE6EEEEEEENS0_30MemoryResourceAllocationPolicyEE13ServiceObjectESJ_E6Object12AddReferenceEv
 00000000:0000007100049AC0       _ZN2nn2sf6detail38ObjectImplFactoryWithStatefulAllocatorINS0_4cmif6client16CmifProxyFactoryINS_7account6detail13IAsyncContextENS4_15CmifDomainProxyINS0_4hipc6client38Hipc2ClientSessionManagedProxyKindBaseINSB_18Hipc2ProxyKindBaseILNSA_6detail11MessageTypeE6EEEEEEENS0_30MemoryResourceAllocationPolicyEE13ServiceObjectESJ_E6Object7ReleaseEv
 00000000:0000007100049B20       _ZN2nn2sf4cmif6client6detail13CmifProxyImplINS_7account6detail13IAsyncContextENS2_15CmifDomainProxyINS0_4hipc6client38Hipc2ClientSessionManagedProxyKindBaseINSA_18Hipc2ProxyKindBaseILNS9_6detail11MessageTypeE6EEEEEEENS0_30MemoryResourceAllocationPolicyES7_E12GetProxyInfoEv
 00000000:0000007100049B30       _ZN2nn2sf4cmif6client6detail13CmifProxyImplINS_7account6detail13IAsyncContextENS2_15CmifDomainProxyINS0_4hipc6client38Hipc2ClientSessionManagedProxyKindBaseINSA_18Hipc2ProxyKindBaseILNS9_6detail11MessageTypeE6EEEEEEENS0_30MemoryResourceAllocationPolicyES7_E26_nn_sf_sync_GetSystemEventENS0_3OutINS0_12NativeHandleEvEE
 00000000:0000007100049B50       _ZN2nn2sf4cmif6client6detail13CmifProxyImplINS_7account6detail13IAsyncContextENS2_15CmifDomainProxyINS0_4hipc6client38Hipc2ClientSessionManagedProxyKindBaseINSA_18Hipc2ProxyKindBaseILNS9_6detail11MessageTypeE6EEEEEEENS0_30MemoryResourceAllocationPolicyES7_E18_nn_sf_sync_CancelEv
 00000000:0000007100049B70       _ZN2nn2sf4cmif6client6detail13CmifProxyImplINS_7account6detail13IAsyncContextENS2_15CmifDomainProxyINS0_4hipc6client38Hipc2ClientSessionManagedProxyKindBaseINSA_18Hipc2ProxyKindBaseILNS9_6detail11MessageTypeE6EEEEEEENS0_30MemoryResourceAllocationPolicyES7_E19_nn_sf_sync_HasDoneENS0_3OutIbvEE
 00000000:0000007100049B90       _ZN2nn2sf4cmif6client6detail13CmifProxyImplINS_7account6detail13IAsyncContextENS2_15CmifDomainProxyINS0_4hipc6client38Hipc2ClientSessionManagedProxyKindBaseINSA_18Hipc2ProxyKindBaseILNS9_6detail11MessageTypeE6EEEEEEENS0_30MemoryResourceAllocationPolicyES7_E21_nn_sf_sync_GetResultEv
 00000000:0000007100049BB0       _ZN2nn2sf4cmif6client6detail13CmifProxyImplINS_7account6detail13IAsyncContextENS2_15CmifDomainProxyINS0_4hipc6client38Hipc2ClientSessionManagedProxyKindBaseINSA_18Hipc2ProxyKindBaseILNS9_6detail11MessageTypeE6EEEEEEENS0_30MemoryResourceAllocationPolicyES7_E17GetCmifBaseObjectEv
 00000000:0000007100049BC0       _ZThn32_N2nn2sf4cmif6client6detail13CmifProxyImplINS_7account6detail13IAsyncContextENS2_15CmifDomainProxyINS0_4hipc6client38Hipc2ClientSessionManagedProxyKindBaseINSA_18Hipc2ProxyKindBaseILNS9_6detail11MessageTypeE6EEEEEEENS0_30MemoryResourceAllocationPolicyES7_E17GetCmifBaseObjectEv
 00000000:0000007100049BD0       _ZN2nn2sf4cmif6client34CmifDomainProxyClientCoreProcessorINS0_4hipc6client38Hipc2ClientSessionManagedProxyKindBaseINS5_18Hipc2ProxyKindBaseILNS4_6detail11MessageTypeE6EEEEENS1_6detail14CoreMethodInfoINSt3__15tupleIJNSC_18OutRawArgumentInfoILm4ELm4ELl0EEENSC_18BufferArgumentInfoILi0ELi6ELm0EEENSC_17InRawArgumentInfoILm16ELm8ELl0EEEEEELm16ELm4ELb0EEESM_E7ProcessEPNS2_23CmifDomainClientMessageISB_E15ProxyBaseObjectENS2_24OutRawClientArgumentTypeILm4ELm4EEENS2_24BufferClientArgumentTypeENS2_23InRawClientArgumentTypeILm16ELm8EvEEj
 00000000:0000007100049E00       _ZN2nn2sf4cmif6client34CmifDomainProxyClientCoreProcessorINS0_4hipc6client38Hipc2ClientSessionManagedProxyKindBaseINS5_18Hipc2ProxyKindBaseILNS4_6detail11MessageTypeE6EEEEENS1_6detail14CoreMethodInfoINSt3__15tupleIJNSC_18OutRawArgumentInfoILm8ELm8ELl0EEENSC_17InRawArgumentInfoILm16ELm8ELl0EEEEEELm16ELm8ELb0EEESK_E7ProcessEPNS2_23CmifDomainClientMessageISB_E15ProxyBaseObjectENS2_24OutRawClientArgumentTypeILm8ELm8EEENS2_23InRawClientArgumentTypeILm16ELm8EvEEj
 00000000:0000007100049F70       _ZN2nn2sf4cmif6client34CmifDomainProxyClientCoreProcessorINS0_4hipc6client38Hipc2ClientSessionManagedProxyKindBaseINS5_18Hipc2ProxyKindBaseILNS4_6detail11MessageTypeE6EEEEENS1_6detail14CoreMethodInfoINSt3__15tupleIJNSC_21OutObjectArgumentInfoILi0ELi0EEENSC_17InRawArgumentInfoILm16ELm8ELl40EEENSI_ILm40ELm1ELl0EEEEEELm56ELm0ELb0EEESL_E21ProcessWithOutObjectsEPNS2_23CmifDomainClientMessageISB_E15ProxyBaseObjectENS2_27OutObjectClientArgumentTypeENS2_23InRawClientArgumentTypeILm16ELm8EvEENST_ILm40ELm1EvEEjPNS0_13SharedPointerINS0_14IServiceObjectEEE
 00000000:000000710004A180       _ZZN2nn2sf40SimpleAllInOneHipcSubDomainClientManagerILm17EE27InitializeShimLibraryHolderINS_7account24IBaasAccessTokenAccessorEEENS_6ResultEPNS0_23ShimLibraryObjectHolderIT_EEPKcPNS_14MemoryResourceEENUlPvE_8__invokeESF_
 00000000:000000710004A190       _ZZN2nn2sf40SimpleAllInOneHipcSubDomainClientManagerILm17EE27InitializeShimLibraryHolderINS_7account24IBaasAccessTokenAccessorEEENS_6ResultEPNS0_23ShimLibraryObjectHolderIT_EEPKcPNS_14MemoryResourceEENKUlPvE_clESF_
 00000000:000000710004A230       _ZN2nn7account25CachedNintendoAccountInfoC1Ev
 00000000:000000710004A240       _ZNK2nn7account25CachedNintendoAccountInfo11GetBirthdayEPm
 00000000:000000710004A280       _ZNK2nn7account25CachedNintendoAccountInfo9GetGenderEPm
 00000000:000000710004A2C0       _ZNK2nn7account25CachedNintendoAccountInfo10GetCountryEPm
 00000000:000000710004A300       _ZN2nn7account41CachedNintendoAccountInfoForSystemServiceC2Ev
 00000000:000000710004A310       _ZNK2nn7account41CachedNintendoAccountInfoForSystemService5GetIdEv
 00000000:000000710004A320       _ZNK2nn7account41CachedNintendoAccountInfoForSystemService7IsChildEv
 00000000:000000710004A330       _ZNK2nn7account41CachedNintendoAccountInfoForSystemService13GetScreenNameEPm
 00000000:000000710004A370       _ZNK2nn7account41CachedNintendoAccountInfoForSystemService15GetEmailAddressEPm
 00000000:000000710004A3B0       _ZNK2nn7account41CachedNintendoAccountInfoForSystemService10GetLoginIdEPm
 00000000:000000710004A3F0       _ZNK2nn7account41CachedNintendoAccountInfoForSystemService11GetBirthdayEPm
 00000000:000000710004A430       _ZNK2nn7account41CachedNintendoAccountInfoForSystemService9GetGenderEPm
 00000000:000000710004A470       _ZNK2nn7account41CachedNintendoAccountInfoForSystemService10GetCountryEPm
 00000000:000000710004A4B0       _ZNK2nn7account41CachedNintendoAccountInfoForSystemService9GetRegionEPm
 00000000:000000710004A4F0       _ZNK2nn7account41CachedNintendoAccountInfoForSystemService11GetLanguageEPm
 00000000:000000710004A530       _ZNK2nn7account41CachedNintendoAccountInfoForSystemService23GetAnalyticsOptedInFlagEv
 00000000:000000710004A540       _ZNK2nn7account41CachedNintendoAccountInfoForSystemService27IsLinkedWithNintendoNetworkEv
 00000000:000000710004A550       _ZN2nn7account19CalculateCheckDigitERKNS0_23NetworkServiceAccountIdE
 00000000:000000710004A5C0       _ZN2nn7account33ExternalNetworkServiceAccountInfoC2Ev
 00000000:000000710004A5D0       _ZN2nn7account33ExternalNetworkServiceAccountInfoC2EPNS0_4baas18IGuestLoginRequestE
 00000000:000000710004A5E0       _ZN2nn7account33ExternalNetworkServiceAccountInfoC2EOS1_
 00000000:000000710004A5F0       _ZN2nn7account33ExternalNetworkServiceAccountInfoD1Ev
 00000000:000000710004A610       _ZN2nn7account33ExternalNetworkServiceAccountInfoaSEOS1_
 00000000:000000710004A650       _ZN2nn7account33ExternalNetworkServiceAccountInfo4SwapERS1_
 00000000:000000710004A670       _ZNK2nn7account33ExternalNetworkServiceAccountInfo11GetNicknameEPNS0_8NicknameE
 00000000:000000710004A6B0       _ZNK2nn7account33ExternalNetworkServiceAccountInfo15GetProfileImageEPmPvm
 00000000:000000710004A720       _ZNK2nn7account33ExternalNetworkServiceAccountInfo26GetNetworkServiceAccountIdEPNS0_23NetworkServiceAccountIdE
 00000000:000000710004A750       _ZNK2nn7account33ExternalNetworkServiceAccountInfo37LoadNetworkServiceAccountIdTokenCacheEPmPcm
 00000000:000000710004A7C0       _ZN2nn7account38ExternalNetworkServiceAccountRegistrarC2Ev
 00000000:000000710004A7D0       _ZN2nn7account38ExternalNetworkServiceAccountRegistrarC2EPNS0_4baas28IFloatingRegistrationRequestE
 00000000:000000710004A7E0       _ZN2nn7account38ExternalNetworkServiceAccountRegistrarC2EOS1_
 00000000:000000710004A7F0       _ZN2nn7account38ExternalNetworkServiceAccountRegistrarD2Ev
 00000000:000000710004A810       _ZN2nn7account38ExternalNetworkServiceAccountRegistraraSEOS1_
 00000000:000000710004A850       _ZN2nn7account38ExternalNetworkServiceAccountRegistrar4SwapERS1_
 00000000:000000710004A870       _ZNK2nn7account38ExternalNetworkServiceAccountRegistrar26GetOAuthProcedureSessionIdEPNS0_9SessionIdE
 00000000:000000710004A8E0       _ZN2nn7account38ExternalNetworkServiceAccountRegistrar12RegisterUserEPNS0_3UidE
 00000000:000000710004A910       _ZN2nn7account38ExternalNetworkServiceAccountRegistrar14RegisterUserAsERKNS0_3UidE
 00000000:000000710004A940       _ZN2nn7account38ExternalNetworkServiceAccountRegistrar34RegisterNetworkServiceAccountAsyncEPNS0_12AsyncContextE
 00000000:000000710004A9E0       _ZN2nn7account38ExternalNetworkServiceAccountRegistrar34RegisterNetworkServiceAccountAsyncEPNS0_12AsyncContextERKNS0_3UidE
 00000000:000000710004AA80       _ZNK2nn7account38ExternalNetworkServiceAccountRegistrar11GetNicknameEPNS0_8NicknameE
 00000000:000000710004AAC0       _ZNK2nn7account38ExternalNetworkServiceAccountRegistrar15GetProfileImageEPmPvm
 00000000:000000710004AB30       _ZNK2nn7account38ExternalNetworkServiceAccountRegistrar26GetNetworkServiceAccountIdEPNS0_23NetworkServiceAccountIdE
 00000000:000000710004AB60       _ZN2nn7account38ExternalNetworkServiceAccountRegistrar30SetSystemProgramIdentificationERKNS0_27SystemProgramIdentificationE
 00000000:000000710004AB90       _ZN2nn7account38ExternalNetworkServiceAccountRegistrar44EnsureNetworkServiceAccountIdTokenCacheAsyncEPNS0_12AsyncContextE
 00000000:000000710004AC30       _ZNK2nn7account38ExternalNetworkServiceAccountRegistrar37LoadNetworkServiceAccountIdTokenCacheEPmPcm
 00000000:000000710004ACA0       _ZN2nn7account20MakePreselectionInfoERKNS0_3UidE
 00000000:000000710004AD90       _ZN2nn7account36EnsureNetworkServiceAccountAvailableERKNS0_10UserHandleE
 00000000:000000710004AE40       _ZN2nn7account32IsNetworkServiceAccountAvailableEPbRKNS0_10UserHandleE
 00000000:000000710004AEC0       _ZN2nn7account26GetNetworkServiceAccountIdEPNS0_23NetworkServiceAccountIdERKNS0_10UserHandleE
 00000000:000000710004AEF0       _ZN2nn7account44EnsureNetworkServiceAccountIdTokenCacheAsyncEPNS0_12AsyncContextERKNS0_10UserHandleE
 00000000:000000710004AFC0       _ZN2nn7account37LoadNetworkServiceAccountIdTokenCacheEPmPcmRKNS0_10UserHandleE
 00000000:000000710004B030       _ZN2nn7account41CreateNintendoAccountAuthorizationRequestEPNS0_42NintendoAccountAuthorizationRequestContextERKNS0_10UserHandleERKNS0_45NintendoAccountAuthorizationRequestParametersEPvm
 00000000:000000710004B1C0       _ZN2nn7account29LoadCachedNintendoAccountInfoEPNS0_25CachedNintendoAccountInfoERKNS0_10UserHandleEPvm
 00000000:000000710004B230       _ZN2nn7account28NetworkServiceAccountManagerC2Ev
 00000000:000000710004B250       _ZN2nn7account28NetworkServiceAccountManagerC1ERKNS0_3UidEPNS0_4baas24IManagerForSystemServiceE
 00000000:000000710004B280       _ZN2nn7account28NetworkServiceAccountManagerD0Ev
 00000000:000000710004B2D0       _ZN2nn7account28NetworkServiceAccountManager4SwapERS1_
 00000000:000000710004B320       _ZNK2nn7account28NetworkServiceAccountManager6GetPtrEv
 00000000:000000710004B330       _ZN2nn7account28NetworkServiceAccountManager36EnsureNetworkServiceAccountAvailableENS0_32NintendoAccountStartupDialogTypeE
 00000000:000000710004B3E0       _ZN2nn7account28NetworkServiceAccountManager38CheckNetworkServiceAccountAvailabilityEv
 00000000:000000710004B410       _ZN2nn7account28NetworkServiceAccountManager32IsNetworkServiceAccountAvailableEPb
 00000000:000000710004B490       _ZN2nn7account28NetworkServiceAccountManager26GetNetworkServiceAccountIdEPNS0_23NetworkServiceAccountIdE
 00000000:000000710004B4C0       _ZN2nn7account28NetworkServiceAccountManager20GetNintendoAccountIdEPNS0_17NintendoAccountIdE
 00000000:000000710004B4F0       _ZN2nn7account28NetworkServiceAccountManager29LoadCachedNintendoAccountInfoEPNS0_41CachedNintendoAccountInfoForSystemServiceEPvm
 00000000:000000710004B530       _ZN2nn7account28NetworkServiceAccountManager37RefreshCachedNintendoAccountInfoAsyncEPNS0_12AsyncContextE
 00000000:000000710004B5D0       _ZN2nn7account28NetworkServiceAccountManager50RefreshCachedNintendoAccountInfoAsyncIfTimeElapsedEPbPNS0_12AsyncContextENS_8TimeSpanE
 00000000:000000710004B6E0       _ZN2nn7account28NetworkServiceAccountManager34GetCachedNetworkServiceLicenseInfoEPNS0_31CachedNetworkServiceLicenseInfoE
 00000000:000000710004B770       _ZN2nn7account28NetworkServiceAccountManager43RefreshCachedNetworkServiceLicenseInfoAsyncEPNS0_12AsyncContextE
 00000000:000000710004B810       _ZN2nn7account28NetworkServiceAccountManager56RefreshCachedNetworkServiceLicenseInfoAsyncIfTimeElapsedEPbPNS0_12AsyncContextENS_8TimeSpanE
 00000000:000000710004B920       _ZN2nn7account28NetworkServiceAccountManager44EnsureNetworkServiceAccountIdTokenCacheAsyncEPNS0_12AsyncContextE
 00000000:000000710004B9C0       _ZN2nn7account28NetworkServiceAccountManager37LoadNetworkServiceAccountIdTokenCacheEPmPcm
 00000000:000000710004BA30       _ZN2nn7account28NetworkServiceAccountManager41CreateNintendoAccountAuthorizationRequestEPNS0_42NintendoAccountAuthorizationRequestContextEmPKcmRKNS0_45NintendoAccountAuthorizationRequestParametersEPvm
 00000000:000000710004BBC0       _ZN2nn7account28NetworkServiceAccountManager46DebugCreateNintendoAccountAuthorizationRequestEPNS0_42NintendoAccountAuthorizationRequestContextEmPKcmRKNS0_45NintendoAccountAuthorizationRequestParametersEPvm
 00000000:000000710004BD50       _ZN2nn7account28NetworkServiceAccountManager30SetSystemProgramIdentificationERKNS0_27SystemProgramIdentificationE
 00000000:000000710004BD80       _ZN2nn7account34NetworkServiceAccountAdministratorC2Ev
 00000000:000000710004BDA0       _ZN2nn7account34NetworkServiceAccountAdministratorC2ERKNS0_3UidEPNS0_4baas14IAdministratorE
 00000000:000000710004BDE0       _ZN2nn7account34NetworkServiceAccountAdministrator4SwapERS1_
 00000000:000000710004BE30       _ZN2nn7account34NetworkServiceAccountAdministrator33IsNetworkServiceAccountRegisteredEPb
 00000000:000000710004BE60       _ZN2nn7account34NetworkServiceAccountAdministrator13RegisterAsyncEPNS0_12AsyncContextE
 00000000:000000710004BF10       _ZN2nn7account34NetworkServiceAccountAdministrator15UnregisterAsyncEPNS0_12AsyncContextE
 00000000:000000710004BFC0       _ZN2nn7account34NetworkServiceAccountAdministrator29DeleteRegistrationInfoLocallyEv
 00000000:000000710004BFF0       _ZN2nn7account34NetworkServiceAccountAdministrator23SynchronizeProfileAsyncEPNS0_12AsyncContextE
 00000000:000000710004C0A0       _ZN2nn7account34NetworkServiceAccountAdministrator36SynchronizeProfileAsyncIfTimeElapsedEPbPNS0_12AsyncContextENS_8TimeSpanE
 00000000:000000710004C1B0       _ZN2nn7account34NetworkServiceAccountAdministrator27IsLinkedWithNintendoAccountEPb
 00000000:000000710004C1E0       _ZN2nn7account34NetworkServiceAccountAdministrator40CreateProcedureToLinkWithNintendoAccountEPNS0_31NintendoAccountLinkageProcedureE
 00000000:000000710004C290       _ZN2nn7account34NetworkServiceAccountAdministrator40ResumeProcedureToLinkWithNintendoAccountEPNS0_31NintendoAccountLinkageProcedureERKNS0_9SessionIdE
 00000000:000000710004C350       _ZN2nn7account34NetworkServiceAccountAdministrator52CreateProcedureToUpdateLinkageStateOfNintendoAccountEPNS0_6detail24SimpleOAuthProcedureBaseE
 00000000:000000710004C400       _ZN2nn7account34NetworkServiceAccountAdministrator52ResumeProcedureToUpdateLinkageStateOfNintendoAccountEPNS0_6detail24SimpleOAuthProcedureBaseERKNS0_9SessionIdE
 00000000:000000710004C4C0       _ZN2nn7account34NetworkServiceAccountAdministrator44CreateProcedureToLinkNnidWithNintendoAccountEPNS0_6detail24SimpleOAuthProcedureBaseE
 00000000:000000710004C570       _ZN2nn7account34NetworkServiceAccountAdministrator44ResumeProcedureToLinkNnidWithNintendoAccountEPNS0_6detail24SimpleOAuthProcedureBaseERKNS0_9SessionIdE
 00000000:000000710004C630       _ZN2nn7account34NetworkServiceAccountAdministrator65ProxyProcedureToAcquireApplicationAuthorizationForNintendoAccountEPNS0_48NintendoAccountApplicationAuthorizationProcedureERKNS0_9SessionIdE
 00000000:000000710004C6F0       _ZNK2nn7account34NetworkServiceAccountAdministrator31GetRequiredLicenseCacheForLoginEPNS0_25NetworkServiceLicenseKindERKNS_13ApplicationIdE
 00000000:000000710004C770       _ZNK2nn7account34NetworkServiceAccountAdministrator36GetRequiredLicenseCacheForOnlinePlayEPNS0_25NetworkServiceLicenseKindERKNS_13ApplicationIdE
 00000000:000000710004C7F0       _ZNK2nn7account34NetworkServiceAccountAdministrator50IsRequiredLicenseCacheRefreshRequiredForOnlinePlayEPbRKNS_13ApplicationIdE
 00000000:000000710004C820       _ZN2nn7account34NetworkServiceAccountAdministrator44RefreshRequiredLicenseCacheForOnlinePlayAyncEPNS0_12AsyncContextERKNS_13ApplicationIdE
 00000000:000000710004C8D0       _ZN2nn7account34NetworkServiceAccountAdministrator30InvalidateRequiredLicenseCacheERKNS_13ApplicationIdE
 00000000:000000710004C900       _ZN2nn7account34NetworkServiceAccountAdministrator43InvalidateNetworkServiceAccountIdTokenCacheERKNS_13ApplicationIdE
 00000000:000000710004C930       _ZN2nn7account34NetworkServiceAccountAdministrator39TryRecoverNintendoAccountUserStateAsyncEPNS0_12AsyncContextE
 00000000:000000710004C9E0       _ZN2nn7account34NetworkServiceAccountAdministrator46DebugSetNetworkServiceAccountAvailabilityErrorENS_6ResultE
 00000000:000000710004CB50       _ZN2nn7account34NetworkServiceAccountAdministrator31DebugUnlinkNintendoAccountAsyncEPNS0_12AsyncContextE
 00000000:000000710004CC20       _ZN2nn7account34NetworkServiceAccountAdministrator18UploadProfileAsyncEPNS0_12AsyncContextE
 00000000:000000710004CCF0       _ZN2nn7account28NetworkServiceAccountManagerD2Ev
 00000000:000000710004CD20       _ZN2nn7account34NetworkServiceAccountAdministratorD0Ev
 00000000:000000710004CD70       _ZN2nn7account37AsyncNetworkServiceLicenseKindContextC2EPNS0_6detail38IAsyncNetworkServiceLicenseKindContextE
 00000000:000000710004CDA0       _ZN2nn7account37AsyncNetworkServiceLicenseKindContextC2Ev
 00000000:000000710004CDD0       _ZN2nn7account37AsyncNetworkServiceLicenseKindContextC1EOS1_
 00000000:000000710004CE00       _ZN2nn7account37AsyncNetworkServiceLicenseKindContextaSEOS1_
 00000000:000000710004CE60       _ZN2nn7account37AsyncNetworkServiceLicenseKindContext28GetNetworkServiceLicenseKindEv
 00000000:000000710004CEE0       _ZN2nn7account34LoadNetworkServiceLicenseKindAsyncEPNS0_37AsyncNetworkServiceLicenseKindContextERKNS0_10UserHandleE
 00000000:000000710004CFA0       _ZN2nn7account37AsyncNetworkServiceLicenseKindContextD0Ev
 00000000:000000710004CFD0       _ZN2nn7account42NintendoAccountAuthorizationRequestContextC2Ev
 00000000:000000710004CFF0       _ZN2nn7account42NintendoAccountAuthorizationRequestContextC1EPNS0_3nas21IAuthorizationRequestERKNS0_3UidE
 00000000:000000710004D010       _ZN2nn7account42NintendoAccountAuthorizationRequestContextC2EOS1_
 00000000:000000710004D060       _ZN2nn7account42NintendoAccountAuthorizationRequestContextD2Ev
 00000000:000000710004D0A0       _ZN2nn7account42NintendoAccountAuthorizationRequestContextaSEOS1_
 00000000:000000710004D190       _ZN2nn7account42NintendoAccountAuthorizationRequestContext4SwapERS1_
 00000000:000000710004D240       _ZN2nn7account42NintendoAccountAuthorizationRequestContext6InvokeEv
 00000000:000000710004D2E0       _ZN2nn7account42NintendoAccountAuthorizationRequestContext14GetSystemEventEPNS_2os11SystemEventE
 00000000:000000710004D300       _ZN2nn7account42NintendoAccountAuthorizationRequestContext6CancelEv
 00000000:000000710004D320       _ZN2nn7account42NintendoAccountAuthorizationRequestContext7HasDoneEPb
 00000000:000000710004D340       _ZN2nn7account42NintendoAccountAuthorizationRequestContext12GetRawResultEv
 00000000:000000710004D3B0       _ZN2nn7account42NintendoAccountAuthorizationRequestContext9GetResultEv
 00000000:000000710004D460       _ZN2nn7account42NintendoAccountAuthorizationRequestContext34GetResultWithInteractionIfRequiredEv
 00000000:000000710004D590       _ZN2nn7account42NintendoAccountAuthorizationRequestContext20GetAuthorizationCodeEPmPcm
 00000000:000000710004D600       _ZN2nn7account42NintendoAccountAuthorizationRequestContext10GetIdTokenEPmPcm
 00000000:000000710004D670       _ZN2nn7account42NintendoAccountAuthorizationRequestContext8GetStateEPmPcm
 00000000:000000710004D700       _ZN2nn7account42NintendoAccountAuthorizationRequestContext12DebugGetInfoEPmm
 00000000:000000710004D770       _ZN2nn7account8Notifier4SwapERS1_
 00000000:000000710004D790       _ZN2nn7account8NotifierC1EPNS0_6detail9INotifierE
 00000000:000000710004D7B0       _ZN2nn7account8NotifierC2Ev
 00000000:000000710004D7D0       _ZN2nn7account8NotifierC2EOS1_
 00000000:000000710004D7F0       _ZN2nn7account8NotifierD1Ev
 00000000:000000710004D820       _ZN2nn7account8NotifierD0Ev
 00000000:000000710004D870       _ZN2nn7account8NotifieraSEOS1_
 00000000:000000710004D8B0       _ZN2nn7account8Notifier14GetSystemEventEPNS_2os11SystemEventE
 00000000:000000710004D960       _ZN2nn7account31NintendoAccountLinkageProcedureC2Ev
 00000000:000000710004D990       _ZN2nn7account31NintendoAccountLinkageProcedureC2ERKNS0_3UidEPNS0_3nas40IOAuthProcedureForNintendoAccountLinkageE
 00000000:000000710004D9C0       _ZN2nn7account31NintendoAccountLinkageProcedureC2EOS1_
 00000000:000000710004D9F0       _ZN2nn7account31NintendoAccountLinkageProcedureaSEOS1_
 00000000:000000710004DA50       _ZN2nn7account31NintendoAccountLinkageProcedure4SwapERS1_
 00000000:000000710004DA80       _ZN2nn7account31NintendoAccountLinkageProcedure10GetRequestEPNS0_10RequestUrlEPNS0_11CallbackUriENS0_37NintendoAccountAuthorizationPageThemeE
 00000000:000000710004DB00       _ZN2nn7account31NintendoAccountLinkageProcedure31IsNetworkServiceAccountReplacedEPb
 00000000:000000710004DB60       _ZN2nn7account48NintendoAccountApplicationAuthorizationProcedureC1Ev
 00000000:000000710004DB90       _ZN2nn7account48NintendoAccountApplicationAuthorizationProcedureC2ERKNS0_3UidEPNS0_4http15IOAuthProcedureE
 00000000:000000710004DBC0       _ZN2nn7account48NintendoAccountApplicationAuthorizationProcedureC1EOS1_
 00000000:000000710004DBF0       _ZN2nn7account48NintendoAccountApplicationAuthorizationProcedureaSEOS1_
 00000000:000000710004DC50       _ZN2nn7account48NintendoAccountApplicationAuthorizationProcedure4SwapERS1_
 00000000:000000710004DC80       _ZN2nn7account49ExternalNetworkServiceAccountIntroducingProcedureC2Ev
 00000000:000000710004DCB0       _ZN2nn7account49ExternalNetworkServiceAccountIntroducingProcedureC1EPNS0_3nas29IOAuthProcedureForExternalNsaE
 00000000:000000710004DCF0       _ZN2nn7account49ExternalNetworkServiceAccountIntroducingProcedureC1EOS1_
 00000000:000000710004DD20       _ZN2nn7account49ExternalNetworkServiceAccountIntroducingProcedureaSEOS1_
 00000000:000000710004DD80       _ZN2nn7account49ExternalNetworkServiceAccountIntroducingProcedure4SwapERS1_
 00000000:000000710004DDB0       _ZNK2nn7account49ExternalNetworkServiceAccountIntroducingProcedure11GetNicknameEPNS0_8NicknameE
 00000000:000000710004DE00       _ZNK2nn7account49ExternalNetworkServiceAccountIntroducingProcedure15GetProfileImageEPmPvm
 00000000:000000710004DE70       _ZNK2nn7account49ExternalNetworkServiceAccountIntroducingProcedure26GetNetworkServiceAccountIdEPNS0_23NetworkServiceAccountIdE
 00000000:000000710004DEB0       _ZNK2nn7account49ExternalNetworkServiceAccountIntroducingProcedure26GetLinkedNintendoAccountIdEPNS0_17NintendoAccountIdE
 00000000:000000710004DEF0       _ZN2nn7account31NintendoAccountLinkageProcedureD0Ev
 00000000:000000710004DF20       _ZN2nn7account48NintendoAccountApplicationAuthorizationProcedureD0Ev
 00000000:000000710004DF50       _ZN2nn7account49ExternalNetworkServiceAccountIntroducingProcedureD0Ev
 00000000:000000710004DF80       _ZN2nn7account13ProfileEditor4SwapERS1_
 00000000:000000710004E070       _ZN2nn7account13ProfileEditorC2ERKNS0_3UidEPNS0_7profile14IProfileEditorE
 00000000:000000710004E0C0       _ZNK2nn7account13ProfileEditor19GetProfileImageSizeEPm
 00000000:000000710004E110       _ZN2nn7account13ProfileEditorC2Ev
 00000000:000000710004E140       _ZN2nn7account13ProfileEditorC2EOS1_
 00000000:000000710004E1C0       _ZN2nn7account13ProfileEditorD1Ev
 00000000:000000710004E1F0       _ZN2nn7account13ProfileEditorD0Ev
 00000000:000000710004E240       _ZN2nn7account13ProfileEditoraSEOS1_
 00000000:000000710004E350       _ZN2nn7account13ProfileEditor7RefreshEv
 00000000:000000710004E390       _ZNK2nn7account13ProfileEditor13IsLocalOriginEv
 00000000:000000710004E3C0       _ZNK2nn7account13ProfileEditor12GetTimeStampEv
 00000000:000000710004E3D0       _ZNK2nn7account13ProfileEditor11GetNicknameEPNS0_8NicknameE
 00000000:000000710004E400       _ZNK2nn7account13ProfileEditor11GetUserDataEPcm
 00000000:000000710004E420       _ZNK2nn7account13ProfileEditor16LoadProfileImageEPmPvm
 00000000:000000710004E4C0       _ZN2nn7account13ProfileEditor11SetNicknameERKNS0_8NicknameE
 00000000:000000710004E4D0       _ZN2nn7account13ProfileEditor11SetUserDataEPKcm
 00000000:000000710004E4E0       _ZN2nn7account13ProfileEditor5FlushEv
 00000000:000000710004E510       _ZN2nn7account13ProfileEditor14FlushWithImageEPKvm
 00000000:000000710004E560       _ZN2nn5album21GetExtraMovieFileListEPiPNS0_14AlbumFileEntryEi
 00000000:000000710004E660       _ZN2nn5album20DeleteExtraMovieFileERKNS0_14AlbumFileEntryE
 00000000:000000710004E6C0       _ZN2nn5album26GetAlbumScreenshotFileListEPiPNS0_14AlbumFileEntryEi
 00000000:000000710004E7C0       _ZN2nn5album26GetAlbumScreenshotFileListEPiPNS0_14AlbumFileEntryEiRKNS_7account3UidE
 00000000:000000710004E8E0       _ZN2nn5album21GetAlbumMovieFileListEPiPNS0_14AlbumFileEntryEi
 00000000:000000710004E9E0       _ZN2nn5album14LoadAlbumImageEPiS1_PvmS2_mRKNS0_14AlbumFileEntryE
 00000000:000000710004EB80       _ZN2nn5album14LoadAlbumImageEPiS1_PmPvmS3_mS3_mRKNS0_14AlbumFileEntryE
 00000000:000000710004ED80       _ZN2nn5album23LoadAlbumThumbnailImageEPiS1_PvmS2_mRKNS0_14AlbumFileEntryE
 00000000:000000710004EF20       _ZN2nn5album23LoadAlbumThumbnailImageEPiS1_PmPvmS3_mS3_mRKNS0_14AlbumFileEntryE
 00000000:000000710004F120       _ZN2nn5album20OpenAlbumMovieStreamEPNS0_17MovieStreamHandleERKNS0_14AlbumFileEntryE
 00000000:000000710004F2A0       _ZN2nn5album21CloseAlbumMovieStreamENS0_17MovieStreamHandleE
 00000000:000000710004F330       _ZN2nn5album23GetAlbumMovieStreamSizeEPmNS0_17MovieStreamHandleE
 00000000:000000710004F380       _ZN2nn5album20ReadAlbumMovieStreamEPmPvmNS0_17MovieStreamHandleEl
 00000000:000000710004F490       _ZN2nn5album23GetAlbumFileCreatedTimeERKNS0_14AlbumFileEntryE
 00000000:000000710004F530       _ZN2nn5album10InitializeEv
 00000000:000000710004F560       _ZN2nn5album8FinalizeEv
 00000000:000000710004F570       _ZN2nn5album19ConvertCapsrvResultENS_6ResultE
 00000000:000000710004F670       _ZN2nn5album13GetImageWidthENS0_9ImageSizeE
 00000000:000000710004F6A0       _ZN2nn5album14GetImageHeightENS0_9ImageSizeE
 00000000:000000710004F6D0       _ZN2nn5album12LibraryStateC2Ev
 00000000:000000710004F6E0       _ZNK2nn5album12LibraryState13IsInitializedEv
 00000000:000000710004F6F0       _ZNK2nn5album12LibraryState16IsAlbumAvailableEv
 00000000:000000710004F700       _ZNK2nn5album12LibraryState16IsShareAvailableEv
 00000000:000000710004F710       _ZN2nn5album12LibraryState10InitializeEv
 00000000:000000710004F750       _ZN2nn5album12LibraryState8FinalizeEv
 00000000:000000710004F7B0       _ZN2nn5album12LibraryState15GetLibraryMutexEv
 00000000:000000710004F7C0       _ZN2nn5album12LibraryState20EnsureAlbumAvailableEv
 00000000:000000710004F850       _ZN2nn5album12LibraryState20EnsureShareAvailableEv
 00000000:000000710004F870       _ZN2nn5album35GetMovieMakerRequiredWorkMemorySizeEv
 00000000:000000710004F880       _ZN2nn5album40GetMovieMakerRequiredWorkMemoryAlignmentEv
 00000000:000000710004F890       _ZN2nn5album23IsMovieMakerInitializedEv
 00000000:000000710004F8E0       _ZN2nn5album19IsMovieMakerRunningEv
 00000000:000000710004F940       _ZN2nn2sf13SharedPointerINS_2am7service11IMovieMakerEED2Ev
 00000000:000000710004F960       _ZN2nn5album20InitializeMovieMakerEPvm
 00000000:000000710004FC24       def_710004FC10
 00000000:000000710004FC64       def_710004FB1C
 00000000:000000710004FE50       _ZN2nn5album28InitializeMovieMakerInternalEONS_2sf13SharedPointerINS_6grcsrv11IMovieMakerEEEm
 00000000:000000710004FEB0       _ZN2nn5album18FinalizeMovieMakerEv
 00000000:000000710004FF80       _ZN2nn5album15AbortMovieMakerEv
 00000000:000000710004FFF0       _ZN2nn5album25GetMovieMakerNativeWindowEPPv
 00000000:0000007100050080       _ZN2nn5album25PrecheckToStartMovieMakerEm
 00000000:00000071000500F0       _ZN2nn5album15StartMovieMakerERKNS0_24MovieMakerMovieParameterE
 00000000:00000071000501AC       def_7100050188
 00000000:0000007100050210       _ZN2nn5album16FinishMovieMakerEv
 00000000:0000007100050240       _ZN2nn5album16FinishMovieMakerEPKvmS2_mNS0_9ImageSizeE
 00000000:0000007100050398       def_7100050384
 00000000:0000007100050410       _ZN2nn5album16FinishMovieMakerEPKvm
 00000000:0000007100050440       _ZN2nn5album20CheckMovieMakerErrorEv
 00000000:00000071000504DC       def_71000504C0
 00000000:0000007100050530       _ZN2nn5album27EncodeMovieMakerAudioSampleEPKvm
 00000000:0000007100050634       def_7100050628
 00000000:00000071000506A0       _ZN2nn5album35SetMovieMakerErrorConversionEnabledEb
 00000000:00000071000506B0       _ZN2nn5album24MovieMakerMovieParameter15GetDefaultValueEv
 00000000:0000007100050700       _ZN2nn5album24MovieMakerMovieParameterC1Ev
 00000000:0000007100050760       _ZNK2nn5album24MovieMakerMovieParameter15GetVideoBitRateEv
 00000000:0000007100050770       _ZN2nn5album24MovieMakerMovieParameter15SetVideoBitRateEi
 00000000:0000007100050780       _ZNK2nn5album24MovieMakerMovieParameter13GetVideoWidthEv
 00000000:0000007100050790       _ZN2nn5album24MovieMakerMovieParameter13SetVideoWidthEi
 00000000:00000071000507A0       _ZNK2nn5album24MovieMakerMovieParameter14GetVideoHeightEv
 00000000:00000071000507B0       _ZN2nn5album24MovieMakerMovieParameter14SetVideoHeightEi
 00000000:00000071000507C0       _ZNK2nn5album24MovieMakerMovieParameter17GetVideoFrameRateEv
 00000000:00000071000507D0       _ZN2nn5album24MovieMakerMovieParameter17SetVideoFrameRateEi
 00000000:00000071000507E0       _ZNK2nn5album24MovieMakerMovieParameter24GetVideoKeyFrameIntervalEv
 00000000:00000071000507F0       _ZN2nn5album24MovieMakerMovieParameter24SetVideoKeyFrameIntervalEi
 00000000:0000007100050800       _ZN2nn5album24MovieMakerMovieParameter24SetVideoImageOrientationENS0_16ImageOrientationE
 00000000:0000007100050810       _ZNK2nn5album24MovieMakerMovieParameter15GetAudioBitRateEv
 00000000:0000007100050820       _ZN2nn5album24MovieMakerMovieParameter15SetAudioBitRateEi
 00000000:0000007100050830       _ZNK2nn5album24MovieMakerMovieParameter18GetAudioSampleRateEv
 00000000:0000007100050840       _ZN2nn5album24MovieMakerMovieParameter18SetAudioSampleRateEi
 00000000:0000007100050850       _ZNK2nn5album24MovieMakerMovieParameter20GetAudioChannelCountEv
 00000000:0000007100050860       _ZN2nn5album24MovieMakerMovieParameter20SetAudioChannelCountEi
 00000000:0000007100050870       _ZNK2nn5album24MovieMakerMovieParameter20GetAudioSampleFormatEv
 00000000:0000007100050880       _ZN2nn5album24MovieMakerMovieParameter20SetAudioSampleFormatENS_5audio12SampleFormatE
 00000000:00000071000508E0       _ZN2nn5album14SaveScreenshotEPKvmNS0_9ImageSizeENS0_17AlbumReportOptionE
 00000000:0000007100050AC0       _ZN2nn5album14SaveScreenshotEPKvmNS0_9ImageSizeENS0_16ImageOrientationENS0_17AlbumReportOptionE
 00000000:0000007100050CD0       _ZN2nn5album14SaveScreenshotEPKvmNS0_9ImageSizeENS0_16ImageOrientationENS0_17AlbumReportOptionEPKNS_7account3UidEi
 00000000:0000007100050EF0       _ZN2nn5album22SaveAndShareScreenshotEPKvmNS0_9ImageSizeENS0_17AlbumReportOptionERKNS_7account3UidE
 00000000:0000007100051630       _ZN2nn5album22SaveAndShareScreenshotEPNS0_7ShareIdEPKvmNS0_9ImageSizeENS0_17AlbumReportOptionERKNS_7account3UidE
 00000000:0000007100051700       _ZN2nn5album22SaveAndShareScreenshotEPKvmNS0_9ImageSizeENS0_16ImageOrientationENS0_17AlbumReportOptionERKNS_7account3UidE
 00000000:00000071000517D0       _ZN2nn5album22SaveAndShareScreenshotEPNS0_7ShareIdEPKvmNS0_9ImageSizeENS0_16ImageOrientationENS0_17AlbumReportOptionERKNS_7account3UidE
 00000000:00000071000518B0       _ZN2nn5album22SaveAndShareScreenshotEPKvmNS0_9ImageSizeENS0_17AlbumReportOptionERKNS_7account3UidEPKc
 00000000:00000071000519B0       _ZN2nn5album22SaveAndShareScreenshotEPNS0_7ShareIdEPKvmNS0_9ImageSizeENS0_17AlbumReportOptionERKNS_7account3UidEPKc
 00000000:0000007100051AC0       _ZN2nn5album22SaveAndShareScreenshotEPKvmNS0_9ImageSizeENS0_16ImageOrientationENS0_17AlbumReportOptionERKNS_7account3UidEPKc
 00000000:0000007100051BD0       _ZN2nn5album22SaveAndShareScreenshotEPNS0_7ShareIdEPKvmNS0_9ImageSizeENS0_16ImageOrientationENS0_17AlbumReportOptionERKNS_7account3UidEPKc
 00000000:0000007100051CF0       _ZN2nn5album25GetSharePostedServiceNameEPcmRKNS0_7ShareIdE
 00000000:0000007100051D90       _ZN2nn5album21GetSharePostedEntryIdEPcmRKNS0_7ShareIdE
 00000000:0000007100051E30       _ZN2nn5album21GetSharePostedLastUrlEPcmRKNS0_7ShareIdE
 00000000:0000007100051ED0       _ZN2nn5album23DeleteAlbumFileForDebugERKNS0_14AlbumFileEntryE
 00000000:0000007100051F30       _ZN2nn5album14ShowAlbumFilesEv
 00000000:0000007100052020       _ZN2nn5album17ShowAllAlbumFilesEv
 00000000:0000007100052060       _ZN2nn5album28ShowAllAlbumFilesForHomeMenuEv
 00000000:00000071000520A0       _ZN2nn2am23GetApplicationFunctionsEv
 00000000:00000071000520F0       _ZN2nn2am20GetSystemAppletProxyEv
 00000000:0000007100052140       _ZN2nn2am20GetHomeMenuFunctionsEv
 00000000:0000007100052190       _ZN2nn2am24GetGlobalStateControllerEv
 00000000:00000071000521E0       _ZN2nn2am21GetApplicationCreatorEv
 00000000:0000007100052230       _ZN2nn2am21GetLibraryAppletProxyEv
 00000000:0000007100052280       _ZN2nn2am28GetLibraryAppletSelfAccessorEv
 00000000:00000071000522D0       _ZN2nn2am21GetOverlayAppletProxyEv
 00000000:0000007100052320       _ZN2nn2am19GetOverlayFunctionsEv
 00000000:0000007100052370       _ZN2nn2am19GetApplicationProxyEv
 00000000:00000071000523C0       _ZN2nn2am23GetLibraryAppletCreatorEv
 00000000:0000007100052410       _ZN2nn2am27GetProcessWindingControllerEv
 00000000:0000007100052460       _ZN2nn2am20GetCommonStateGetterEv
 00000000:00000071000524B0       _ZN2nn2am17GetSelfControllerEv
 00000000:0000007100052500       _ZN2nn2am18GetAudioControllerEv
 00000000:0000007100052550       _ZN2nn2am20GetDisplayControllerEv
 00000000:00000071000525A0       _ZN2nn2am19GetWindowControllerEv
 00000000:00000071000525F0       _ZN2nn2am17GetDebugFunctionsEv
 00000000:0000007100052640       _ZN2nn2am26IsInitializedAsApplicationEv
 00000000:00000071000526A0       _ZN2nn2am27IsInitializedAsSystemAppletEv
 00000000:0000007100052700       _ZN2nn2am28IsInitializedAsLibraryAppletEv
 00000000:0000007100052760       _ZN2nn2am28IsInitializedAsOverlayAppletEv
 00000000:00000071000527C0       _ZN2nn2am26InitializeCommonInterfacesEPNS0_7service21IStackableAppletProxyE
 00000000:0000007100052D50       _ZN2nn2am24FinalizeCommonInterfacesEv
 00000000:0000007100052FB0       _ZN2nn2am32InitializeSystemAppletInterfacesEv
 00000000:0000007100053430       _ZN2nn2am30FinalizeSystemAppletInterfacesEv
 00000000:00000071000535F0       _ZN2nn2am24SetLibraryAppletResolverEPFvvE
 00000000:0000007100053600       _ZN2nn2am35InvokeWithSelfLibraryCreatorEnabledEPFvvE
 00000000:0000007100053780       _ZN2nn2am33InitializeLibraryAppletInterfacesEPKNS0_15AppletAttributeE
 00000000:0000007100053BF0       _ZN2nn2am31FinalizeLibraryAppletInterfacesEv
 00000000:0000007100053D60       _ZN2nn2am33InitializeOverlayAppletInterfacesEv
 00000000:0000007100054080       _ZN2nn2am31FinalizeOverlayAppletInterfacesEv
 00000000:00000071000541B0       _ZN2nn2am31InitializeApplicationInterfacesEv
 00000000:00000071000544A0       _ZN2nn2am29FinalizeApplicationInterfacesEv
 00000000:0000007100054570       _ZN2nn2am37InitializeSystemApplicationInterfacesEv
 00000000:0000007100054880       _ZN2nn2am35FinalizeSystemApplicationInterfacesEv
 00000000:0000007100054950       _ZN2nn2am23GetAppletResourceUserIdEv
 00000000:0000007100054960       _ZN2nn2am36CreateSystemAppletControllerForDebugEv
 00000000:0000007100054BC0       _ZN2nn2am28CreateDebugFunctionsForDebugEv
 00000000:0000007100054E30       _ZZN2nn2sf40SimpleAllInOneHipcSubDomainClientManagerILm100EE27InitializeShimLibraryHolderINS_2am7service30IAllSystemAppletProxiesServiceEEENS_6ResultEPNS0_23ShimLibraryObjectHolderIT_EEPKcPNS_14MemoryResourceEENUlPNS0_13SharedPointerIS6_EEE_clESI_
 00000000:0000007100055180       _ZN2nn2sf4hipc6client34HipcSimpleClientSessionManagerBaseINS2_29DefaultSessionResourceManagerEE4Impl18InitializeByHandleINS_2am7service30IAllSystemAppletProxiesServiceENS0_30MemoryResourceAllocationPolicyEEENS_6ResultEPNS0_13SharedPointerIT_EEPNT0_9AllocatorENS_3svc6HandleE
 00000000:0000007100055290       _ZN2nn2sf6detail38ObjectImplFactoryWithStatefulAllocatorINS0_4cmif6client16CmifProxyFactoryINS_2am7service30IAllSystemAppletProxiesServiceENS4_15CmifDomainProxyINS0_4hipc6client38Hipc2ClientSessionManagedProxyKindBaseINSB_18Hipc2ProxyKindBaseILNSA_6detail11MessageTypeE6EEEEEEENS0_30MemoryResourceAllocationPolicyEE13ServiceObjectESJ_E6Object12AddReferenceEv
 00000000:00000071000552A0       _ZN2nn2sf6detail38ObjectImplFactoryWithStatefulAllocatorINS0_4cmif6client16CmifProxyFactoryINS_2am7service30IAllSystemAppletProxiesServiceENS4_15CmifDomainProxyINS0_4hipc6client38Hipc2ClientSessionManagedProxyKindBaseINSB_18Hipc2ProxyKindBaseILNSA_6detail11MessageTypeE6EEEEEEENS0_30MemoryResourceAllocationPolicyEE13ServiceObjectESJ_E6Object7ReleaseEv
 00000000:0000007100055300       _ZN2nn2sf4cmif6client6detail13CmifProxyImplINS_2am7service30IAllSystemAppletProxiesServiceENS2_15CmifDomainProxyINS0_4hipc6client38Hipc2ClientSessionManagedProxyKindBaseINSA_18Hipc2ProxyKindBaseILNS9_6detail11MessageTypeE6EEEEEEENS0_30MemoryResourceAllocationPolicyES7_E12GetProxyInfoEv
 00000000:0000007100055310       _ZN2nn2sf4cmif6client6detail13CmifProxyImplINS_2am7service30IAllSystemAppletProxiesServiceENS2_15CmifDomainProxyINS0_4hipc6client38Hipc2ClientSessionManagedProxyKindBaseINSA_18Hipc2ProxyKindBaseILNS9_6detail11MessageTypeE6EEEEEEENS0_30MemoryResourceAllocationPolicyES7_E33_nn_sf_sync_OpenSystemAppletProxyENS0_3OutINS0_13SharedPointerINS6_18ISystemAppletProxyEEEvEEmONS0_12NativeHandleE
 00000000:00000071000553C0       _ZN2nn2sf4cmif6client6detail13CmifProxyImplINS_2am7service30IAllSystemAppletProxiesServiceENS2_15CmifDomainProxyINS0_4hipc6client38Hipc2ClientSessionManagedProxyKindBaseINSA_18Hipc2ProxyKindBaseILNS9_6detail11MessageTypeE6EEEEEEENS0_30MemoryResourceAllocationPolicyES7_E37_nn_sf_sync_OpenLibraryAppletProxyOldENS0_3OutINS0_13SharedPointerINS6_19ILibraryAppletProxyEEEvEEmONS0_12NativeHandleE
 00000000:0000007100055470       _ZN2nn2sf4cmif6client6detail13CmifProxyImplINS_2am7service30IAllSystemAppletProxiesServiceENS2_15CmifDomainProxyINS0_4hipc6client38Hipc2ClientSessionManagedProxyKindBaseINSA_18Hipc2ProxyKindBaseILNS9_6detail11MessageTypeE6EEEEEEENS0_30MemoryResourceAllocationPolicyES7_E34_nn_sf_sync_OpenLibraryAppletProxyENS0_3OutINS0_13SharedPointerINS6_19ILibraryAppletProxyEEEvEEmONS0_12NativeHandleERKNS5_15AppletAttributeE
 00000000:0000007100055530       _ZN2nn2sf4cmif6client6detail13CmifProxyImplINS_2am7service30IAllSystemAppletProxiesServiceENS2_15CmifDomainProxyINS0_4hipc6client38Hipc2ClientSessionManagedProxyKindBaseINSA_18Hipc2ProxyKindBaseILNS9_6detail11MessageTypeE6EEEEEEENS0_30MemoryResourceAllocationPolicyES7_E34_nn_sf_sync_OpenOverlayAppletProxyENS0_3OutINS0_13SharedPointerINS6_19IOverlayAppletProxyEEEvEEmONS0_12NativeHandleE
 00000000:00000071000555E0       _ZN2nn2sf4cmif6client6detail13CmifProxyImplINS_2am7service30IAllSystemAppletProxiesServiceENS2_15CmifDomainProxyINS0_4hipc6client38Hipc2ClientSessionManagedProxyKindBaseINSA_18Hipc2ProxyKindBaseILNS9_6detail11MessageTypeE6EEEEEEENS0_30MemoryResourceAllocationPolicyES7_E38_nn_sf_sync_OpenSystemApplicationProxyENS0_3OutINS0_13SharedPointerINS6_17IApplicationProxyEEEvEEmONS0_12NativeHandleE
 00000000:0000007100055690       _ZN2nn2sf4cmif6client6detail13CmifProxyImplINS_2am7service30IAllSystemAppletProxiesServiceENS2_15CmifDomainProxyINS0_4hipc6client38Hipc2ClientSessionManagedProxyKindBaseINSA_18Hipc2ProxyKindBaseILNS9_6detail11MessageTypeE6EEEEEEENS0_30MemoryResourceAllocationPolicyES7_E52_nn_sf_sync_CreateSelfLibraryAppletCreatorForDevelopENS0_3OutINS0_13SharedPointerINS6_21ILibraryAppletCreatorEEEvEEm
 00000000:0000007100055740       _ZN2nn2sf4cmif6client6detail13CmifProxyImplINS_2am7service30IAllSystemAppletProxiesServiceENS2_15CmifDomainProxyINS0_4hipc6client38Hipc2ClientSessionManagedProxyKindBaseINSA_18Hipc2ProxyKindBaseILNS9_6detail11MessageTypeE6EEEEEEENS0_30MemoryResourceAllocationPolicyES7_E45_nn_sf_sync_GetSystemAppletControllerForDebugENS0_3OutINS0_13SharedPointerINS6_31ISystemAppletControllerForDebugEEEvEE
 00000000:00000071000557E0       _ZN2nn2sf4cmif6client6detail13CmifProxyImplINS_2am7service30IAllSystemAppletProxiesServiceENS2_15CmifDomainProxyINS0_4hipc6client38Hipc2ClientSessionManagedProxyKindBaseINSA_18Hipc2ProxyKindBaseILNS9_6detail11MessageTypeE6EEEEEEENS0_30MemoryResourceAllocationPolicyES7_E29_nn_sf_sync_GetDebugFunctionsENS0_3OutINS0_13SharedPointerINS6_15IDebugFunctionsEEEvEE
 00000000:0000007100055880       _ZN2nn2sf4cmif6client6detail13CmifProxyImplINS_2am7service30IAllSystemAppletProxiesServiceENS2_15CmifDomainProxyINS0_4hipc6client38Hipc2ClientSessionManagedProxyKindBaseINSA_18Hipc2ProxyKindBaseILNS9_6detail11MessageTypeE6EEEEEEENS0_30MemoryResourceAllocationPolicyES7_E17GetCmifBaseObjectEv
 00000000:0000007100055890       _ZThn32_N2nn2sf4cmif6client6detail13CmifProxyImplINS_2am7service30IAllSystemAppletProxiesServiceENS2_15CmifDomainProxyINS0_4hipc6client38Hipc2ClientSessionManagedProxyKindBaseINSA_18Hipc2ProxyKindBaseILNS9_6detail11MessageTypeE6EEEEEEENS0_30MemoryResourceAllocationPolicyES7_E17GetCmifBaseObjectEv
 00000000:00000071000558A0       _ZN2nn2sf4cmif6client34CmifDomainProxyClientCoreProcessorINS0_4hipc6client38Hipc2ClientSessionManagedProxyKindBaseINS5_18Hipc2ProxyKindBaseILNS4_6detail11MessageTypeE6EEEEENS1_6detail14CoreMethodInfoINSt3__15tupleIJNSC_21OutObjectArgumentInfoILi0ELi0EEENSC_17InRawArgumentInfoILm8ELm8ELl0EEENSC_20InHandleArgumentInfoILi0ELi1EEEEEELm8ELm0ELb1EEESM_E21ProcessWithOutObjectsEPNS2_23CmifDomainClientMessageISB_E15ProxyBaseObjectENS2_27OutObjectClientArgumentTypeENS2_23InRawClientArgumentTypeILm8ELm8EvEENS2_26InHandleClientArgumentTypeEjPNS0_13SharedPointerINS0_14IServiceObjectEEE
 00000000:0000007100055AB0       _ZN2nn2sf4cmif6client32GetClientProcessorWithObjectBaseINS2_15CmifDomainProxyINS0_4hipc6client38Hipc2ClientSessionManagedProxyKindBaseINS6_18Hipc2ProxyKindBaseILNS5_6detail11MessageTypeE6EEEEEEEE14ObjectAssignerINS0_30MemoryResourceAllocationPolicyENS_14MemoryResourceEE14AllocateObjectINS_2am7service18ISystemAppletProxyEEEvi
 00000000:0000007100055B60       _ZN2nn2sf6detail38ObjectImplFactoryWithStatefulAllocatorINS0_4cmif6client16CmifProxyFactoryINS_2am7service18ISystemAppletProxyENS4_15CmifDomainProxyINS0_4hipc6client38Hipc2ClientSessionManagedProxyKindBaseINSB_18Hipc2ProxyKindBaseILNSA_6detail11MessageTypeE6EEEEEEENS0_30MemoryResourceAllocationPolicyEE13ServiceObjectESJ_E6Object12AddReferenceEv
 00000000:0000007100055B70       _ZN2nn2sf6detail38ObjectImplFactoryWithStatefulAllocatorINS0_4cmif6client16CmifProxyFactoryINS_2am7service18ISystemAppletProxyENS4_15CmifDomainProxyINS0_4hipc6client38Hipc2ClientSessionManagedProxyKindBaseINSB_18Hipc2ProxyKindBaseILNSA_6detail11MessageTypeE6EEEEEEENS0_30MemoryResourceAllocationPolicyEE13ServiceObjectESJ_E6Object7ReleaseEv
 00000000:0000007100055BD0       _ZN2nn2sf4cmif6client6detail13CmifProxyImplINS_2am7service18IAppletProxyCommonENS2_15CmifDomainProxyINS0_4hipc6client38Hipc2ClientSessionManagedProxyKindBaseINSA_18Hipc2ProxyKindBaseILNS9_6detail11MessageTypeE6EEEEEEENS0_30MemoryResourceAllocationPolicyENS6_18ISystemAppletProxyEE12GetProxyInfoEv
 00000000:0000007100055BE0       _ZN2nn2sf4cmif6client6detail13CmifProxyImplINS_2am7service18IAppletProxyCommonENS2_15CmifDomainProxyINS0_4hipc6client38Hipc2ClientSessionManagedProxyKindBaseINSA_18Hipc2ProxyKindBaseILNS9_6detail11MessageTypeE6EEEEEEENS0_30MemoryResourceAllocationPolicyENS6_18ISystemAppletProxyEE32_nn_sf_sync_GetCommonStateGetterENS0_3OutINS0_13SharedPointerINS6_18ICommonStateGetterEEEvEE
 00000000:0000007100055C80       _ZN2nn2sf4cmif6client6detail13CmifProxyImplINS_2am7service18IAppletProxyCommonENS2_15CmifDomainProxyINS0_4hipc6client38Hipc2ClientSessionManagedProxyKindBaseINSA_18Hipc2ProxyKindBaseILNS9_6detail11MessageTypeE6EEEEEEENS0_30MemoryResourceAllocationPolicyENS6_18ISystemAppletProxyEE29_nn_sf_sync_GetSelfControllerENS0_3OutINS0_13SharedPointerINS6_15ISelfControllerEEEvEE
 00000000:0000007100055D20       _ZN2nn2sf4cmif6client6detail13CmifProxyImplINS_2am7service18IAppletProxyCommonENS2_15CmifDomainProxyINS0_4hipc6client38Hipc2ClientSessionManagedProxyKindBaseINSA_18Hipc2ProxyKindBaseILNS9_6detail11MessageTypeE6EEEEEEENS0_30MemoryResourceAllocationPolicyENS6_18ISystemAppletProxyEE31_nn_sf_sync_GetWindowControllerENS0_3OutINS0_13SharedPointerINS6_17IWindowControllerEEEvEE
 00000000:0000007100055DC0       _ZN2nn2sf4cmif6client6detail13CmifProxyImplINS_2am7service18IAppletProxyCommonENS2_15CmifDomainProxyINS0_4hipc6client38Hipc2ClientSessionManagedProxyKindBaseINSA_18Hipc2ProxyKindBaseILNS9_6detail11MessageTypeE6EEEEEEENS0_30MemoryResourceAllocationPolicyENS6_18ISystemAppletProxyEE30_nn_sf_sync_GetAudioControllerENS0_3OutINS0_13SharedPointerINS6_16IAudioControllerEEEvEE
 00000000:0000007100055E60       _ZN2nn2sf4cmif6client6detail13CmifProxyImplINS_2am7service18IAppletProxyCommonENS2_15CmifDomainProxyINS0_4hipc6client38Hipc2ClientSessionManagedProxyKindBaseINSA_18Hipc2ProxyKindBaseILNS9_6detail11MessageTypeE6EEEEEEENS0_30MemoryResourceAllocationPolicyENS6_18ISystemAppletProxyEE32_nn_sf_sync_GetDisplayControllerENS0_3OutINS0_13SharedPointerINS6_18IDisplayControllerEEEvEE
 00000000:0000007100055F00       _ZN2nn2sf4cmif6client6detail13CmifProxyImplINS_2am7service18IAppletProxyCommonENS2_15CmifDomainProxyINS0_4hipc6client38Hipc2ClientSessionManagedProxyKindBaseINSA_18Hipc2ProxyKindBaseILNS9_6detail11MessageTypeE6EEEEEEENS0_30MemoryResourceAllocationPolicyENS6_18ISystemAppletProxyEE29_nn_sf_sync_GetDebugFunctionsENS0_3OutINS0_13SharedPointerINS6_15IDebugFunctionsEEEvEE
 00000000:0000007100055FA0       _ZN2nn2sf4cmif6client6detail13CmifProxyImplINS_2am7service21IStackableAppletProxyENS2_15CmifDomainProxyINS0_4hipc6client38Hipc2ClientSessionManagedProxyKindBaseINSA_18Hipc2ProxyKindBaseILNS9_6detail11MessageTypeE6EEEEEEENS0_30MemoryResourceAllocationPolicyENS6_18ISystemAppletProxyEE39_nn_sf_sync_GetProcessWindingControllerENS0_3OutINS0_13SharedPointerINS6_25IProcessWindingControllerEEEvEE
 00000000:0000007100056040       _ZN2nn2sf4cmif6client6detail13CmifProxyImplINS_2am7service21IStackableAppletProxyENS2_15CmifDomainProxyINS0_4hipc6client38Hipc2ClientSessionManagedProxyKindBaseINSA_18Hipc2ProxyKindBaseILNS9_6detail11MessageTypeE6EEEEEEENS0_30MemoryResourceAllocationPolicyENS6_18ISystemAppletProxyEE35_nn_sf_sync_GetLibraryAppletCreatorENS0_3OutINS0_13SharedPointerINS6_21ILibraryAppletCreatorEEEvEE
 00000000:00000071000560E0       _ZN2nn2sf4cmif6client6detail13CmifProxyImplINS_2am7service18ISystemAppletProxyENS2_15CmifDomainProxyINS0_4hipc6client38Hipc2ClientSessionManagedProxyKindBaseINSA_18Hipc2ProxyKindBaseILNS9_6detail11MessageTypeE6EEEEEEENS0_30MemoryResourceAllocationPolicyES7_E32_nn_sf_sync_GetHomeMenuFunctionsENS0_3OutINS0_13SharedPointerINS6_18IHomeMenuFunctionsEEEvEE
 00000000:0000007100056180       _ZN2nn2sf4cmif6client6detail13CmifProxyImplINS_2am7service18ISystemAppletProxyENS2_15CmifDomainProxyINS0_4hipc6client38Hipc2ClientSessionManagedProxyKindBaseINSA_18Hipc2ProxyKindBaseILNS9_6detail11MessageTypeE6EEEEEEENS0_30MemoryResourceAllocationPolicyES7_E36_nn_sf_sync_GetGlobalStateControllerENS0_3OutINS0_13SharedPointerINS6_22IGlobalStateControllerEEEvEE
 00000000:0000007100056220       _ZN2nn2sf4cmif6client6detail13CmifProxyImplINS_2am7service18ISystemAppletProxyENS2_15CmifDomainProxyINS0_4hipc6client38Hipc2ClientSessionManagedProxyKindBaseINSA_18Hipc2ProxyKindBaseILNS9_6detail11MessageTypeE6EEEEEEENS0_30MemoryResourceAllocationPolicyES7_E33_nn_sf_sync_GetApplicationCreatorENS0_3OutINS0_13SharedPointerINS6_19IApplicationCreatorEEEvEE
 00000000:00000071000562C0       _ZN2nn2sf4cmif6client6detail13CmifProxyImplINS_2am7service18IAppletProxyCommonENS2_15CmifDomainProxyINS0_4hipc6client38Hipc2ClientSessionManagedProxyKindBaseINSA_18Hipc2ProxyKindBaseILNS9_6detail11MessageTypeE6EEEEEEENS0_30MemoryResourceAllocationPolicyENS6_18ISystemAppletProxyEE17GetCmifBaseObjectEv
 00000000:00000071000562D0       _ZThn32_N2nn2sf4cmif6client6detail13CmifProxyImplINS_2am7service18IAppletProxyCommonENS2_15CmifDomainProxyINS0_4hipc6client38Hipc2ClientSessionManagedProxyKindBaseINSA_18Hipc2ProxyKindBaseILNS9_6detail11MessageTypeE6EEEEEEENS0_30MemoryResourceAllocationPolicyENS6_18ISystemAppletProxyEE17GetCmifBaseObjectEv
 00000000:00000071000562E0       _ZN2nn2sf4cmif6client32GetClientProcessorWithObjectBaseINS2_15CmifDomainProxyINS0_4hipc6client38Hipc2ClientSessionManagedProxyKindBaseINS6_18Hipc2ProxyKindBaseILNS5_6detail11MessageTypeE6EEEEEEEE14ObjectAssignerINS0_30MemoryResourceAllocationPolicyENS_14MemoryResourceEE14AllocateObjectINS_2am7service18ICommonStateGetterEEEvi
 00000000:0000007100056390       _ZN2nn2sf6detail38ObjectImplFactoryWithStatefulAllocatorINS0_4cmif6client16CmifProxyFactoryINS_2am7service18ICommonStateGetterENS4_15CmifDomainProxyINS0_4hipc6client38Hipc2ClientSessionManagedProxyKindBaseINSB_18Hipc2ProxyKindBaseILNSA_6detail11MessageTypeE6EEEEEEENS0_30MemoryResourceAllocationPolicyEE13ServiceObjectESJ_E6Object12AddReferenceEv
 00000000:00000071000563A0       _ZN2nn2sf6detail38ObjectImplFactoryWithStatefulAllocatorINS0_4cmif6client16CmifProxyFactoryINS_2am7service18ICommonStateGetterENS4_15CmifDomainProxyINS0_4hipc6client38Hipc2ClientSessionManagedProxyKindBaseINSB_18Hipc2ProxyKindBaseILNSA_6detail11MessageTypeE6EEEEEEENS0_30MemoryResourceAllocationPolicyEE13ServiceObjectESJ_E6Object7ReleaseEv
 00000000:0000007100056400       _ZN2nn2sf4cmif6client6detail13CmifProxyImplINS_2am7service18ICommonStateGetterENS2_15CmifDomainProxyINS0_4hipc6client38Hipc2ClientSessionManagedProxyKindBaseINSA_18Hipc2ProxyKindBaseILNS9_6detail11MessageTypeE6EEEEEEENS0_30MemoryResourceAllocationPolicyES7_E12GetProxyInfoEv
 00000000:0000007100056410       _ZN2nn2sf4cmif6client6detail13CmifProxyImplINS_2am7service18ICommonStateGetterENS2_15CmifDomainProxyINS0_4hipc6client38Hipc2ClientSessionManagedProxyKindBaseINSA_18Hipc2ProxyKindBaseILNS9_6detail11MessageTypeE6EEEEEEENS0_30MemoryResourceAllocationPolicyES7_E26_nn_sf_sync_GetEventHandleENS0_3OutINS0_12NativeHandleEvEE
 00000000:0000007100056430       _ZN2nn2sf4cmif6client6detail13CmifProxyImplINS_2am7service18ICommonStateGetterENS2_15CmifDomainProxyINS0_4hipc6client38Hipc2ClientSessionManagedProxyKindBaseINSA_18Hipc2ProxyKindBaseILNS9_6detail11MessageTypeE6EEEEEEENS0_30MemoryResourceAllocationPolicyES7_E26_nn_sf_sync_ReceiveMessageENS0_3OutINS5_13AppletMessageEvEE
 00000000:0000007100056450       _ZN2nn2sf4cmif6client6detail13CmifProxyImplINS_2am7service18ICommonStateGetterENS2_15CmifDomainProxyINS0_4hipc6client38Hipc2ClientSessionManagedProxyKindBaseINSA_18Hipc2ProxyKindBaseILNS9_6detail11MessageTypeE6EEEEEEENS0_30MemoryResourceAllocationPolicyES7_E29_nn_sf_sync_GetThisAppletKindENS0_3OutINS6_10AppletKindEvEE
 00000000:0000007100056470       _ZN2nn2sf4cmif6client6detail13CmifProxyImplINS_2am7service18ICommonStateGetterENS2_15CmifDomainProxyINS0_4hipc6client38Hipc2ClientSessionManagedProxyKindBaseINSA_18Hipc2ProxyKindBaseILNS9_6detail11MessageTypeE6EEEEEEENS0_30MemoryResourceAllocationPolicyES7_E29_nn_sf_sync_AllowToEnterSleepEv
 00000000:0000007100056490       _ZN2nn2sf4cmif6client6detail13CmifProxyImplINS_2am7service18ICommonStateGetterENS2_15CmifDomainProxyINS0_4hipc6client38Hipc2ClientSessionManagedProxyKindBaseINSA_18Hipc2ProxyKindBaseILNS9_6detail11MessageTypeE6EEEEEEENS0_30MemoryResourceAllocationPolicyES7_E32_nn_sf_sync_DisallowToEnterSleepEv
 00000000:00000071000564B0       _ZN2nn2sf4cmif6client6detail13CmifProxyImplINS_2am7service18ICommonStateGetterENS2_15CmifDomainProxyINS0_4hipc6client38Hipc2ClientSessionManagedProxyKindBaseINSA_18Hipc2ProxyKindBaseILNS9_6detail11MessageTypeE6EEEEEEENS0_30MemoryResourceAllocationPolicyES7_E28_nn_sf_sync_GetOperationModeENS0_3OutIhvEE
 00000000:00000071000564D0       _ZN2nn2sf4cmif6client6detail13CmifProxyImplINS_2am7service18ICommonStateGetterENS2_15CmifDomainProxyINS0_4hipc6client38Hipc2ClientSessionManagedProxyKindBaseINSA_18Hipc2ProxyKindBaseILNS9_6detail11MessageTypeE6EEEEEEENS0_30MemoryResourceAllocationPolicyES7_E30_nn_sf_sync_GetPerformanceModeENS0_3OutIjvEE
 00000000:00000071000564F0       _ZN2nn2sf4cmif6client6detail13CmifProxyImplINS_2am7service18ICommonStateGetterENS2_15CmifDomainProxyINS0_4hipc6client38Hipc2ClientSessionManagedProxyKindBaseINSA_18Hipc2ProxyKindBaseILNS9_6detail11MessageTypeE6EEEEEEENS0_30MemoryResourceAllocationPolicyES7_E27_nn_sf_sync_GetCradleStatusENS0_3OutIhvEE
 00000000:0000007100056510       _ZN2nn2sf4cmif6client6detail13CmifProxyImplINS_2am7service18ICommonStateGetterENS2_15CmifDomainProxyINS0_4hipc6client38Hipc2ClientSessionManagedProxyKindBaseINSA_18Hipc2ProxyKindBaseILNS9_6detail11MessageTypeE6EEEEEEENS0_30MemoryResourceAllocationPolicyES7_E23_nn_sf_sync_GetBootModeENS0_3OutIhvEE
 00000000:0000007100056530       _ZN2nn2sf4cmif6client6detail13CmifProxyImplINS_2am7service18ICommonStateGetterENS2_15CmifDomainProxyINS0_4hipc6client38Hipc2ClientSessionManagedProxyKindBaseINSA_18Hipc2ProxyKindBaseILNS9_6detail11MessageTypeE6EEEEEEENS0_30MemoryResourceAllocationPolicyES7_E32_nn_sf_sync_GetCurrentFocusStateENS0_3OutIhvEE
 00000000:0000007100056550       _ZN2nn2sf4cmif6client6detail13CmifProxyImplINS_2am7service18ICommonStateGetterENS2_15CmifDomainProxyINS0_4hipc6client38Hipc2ClientSessionManagedProxyKindBaseINSA_18Hipc2ProxyKindBaseILNS9_6detail11MessageTypeE6EEEEEEENS0_30MemoryResourceAllocationPolicyES7_E37_nn_sf_sync_RequestToAcquireSleepLockEv
 00000000:0000007100056570       _ZN2nn2sf4cmif6client6detail13CmifProxyImplINS_2am7service18ICommonStateGetterENS2_15CmifDomainProxyINS0_4hipc6client38Hipc2ClientSessionManagedProxyKindBaseINSA_18Hipc2ProxyKindBaseILNS9_6detail11MessageTypeE6EEEEEEENS0_30MemoryResourceAllocationPolicyES7_E28_nn_sf_sync_ReleaseSleepLockEv
 00000000:0000007100056590       _ZN2nn2sf4cmif6client6detail13CmifProxyImplINS_2am7service18ICommonStateGetterENS2_15CmifDomainProxyINS0_4hipc6client38Hipc2ClientSessionManagedProxyKindBaseINSA_18Hipc2ProxyKindBaseILNS9_6detail11MessageTypeE6EEEEEEENS0_30MemoryResourceAllocationPolicyES7_E39_nn_sf_sync_ReleaseSleepLockTransientlyEv
 00000000:00000071000565B0       _ZN2nn2sf4cmif6client6detail13CmifProxyImplINS_2am7service18ICommonStateGetterENS2_15CmifDomainProxyINS0_4hipc6client38Hipc2ClientSessionManagedProxyKindBaseINSA_18Hipc2ProxyKindBaseILNS9_6detail11MessageTypeE6EEEEEEENS0_30MemoryResourceAllocationPolicyES7_E37_nn_sf_sync_GetAcquiredSleepLockEventENS0_3OutINS0_12NativeHandleEvEE
 00000000:00000071000565D0       _ZN2nn2sf4cmif6client6detail13CmifProxyImplINS_2am7service18ICommonStateGetterENS2_15CmifDomainProxyINS0_4hipc6client38Hipc2ClientSessionManagedProxyKindBaseINSA_18Hipc2ProxyKindBaseILNS9_6detail11MessageTypeE6EEEEEEENS0_30MemoryResourceAllocationPolicyES7_E32_nn_sf_sync_PushToGeneralChannelENS0_13SharedPointerINS6_8IStorageEEE
 00000000:0000007100056620       _ZN2nn2sf4cmif6client6detail13CmifProxyImplINS_2am7service18ICommonStateGetterENS2_15CmifDomainProxyINS0_4hipc6client38Hipc2ClientSessionManagedProxyKindBaseINSA_18Hipc2ProxyKindBaseILNS9_6detail11MessageTypeE6EEEEEEENS0_30MemoryResourceAllocationPolicyES7_E43_nn_sf_sync_GetHomeButtonReaderLockAccessorENS0_3OutINS0_13SharedPointerINS6_13ILockAccessorEEEvEE
 00000000:00000071000566C0       _ZN2nn2sf4cmif6client6detail13CmifProxyImplINS_2am7service18ICommonStateGetterENS2_15CmifDomainProxyINS0_4hipc6client38Hipc2ClientSessionManagedProxyKindBaseINSA_18Hipc2ProxyKindBaseILNS9_6detail11MessageTypeE6EEEEEEENS0_30MemoryResourceAllocationPolicyES7_E35_nn_sf_sync_GetReaderLockAccessorExENS0_3OutINS0_13SharedPointerINS6_13ILockAccessorEEEvEEi
 00000000:0000007100056770       _ZN2nn2sf4cmif6client6detail13CmifProxyImplINS_2am7service18ICommonStateGetterENS2_15CmifDomainProxyINS0_4hipc6client38Hipc2ClientSessionManagedProxyKindBaseINSA_18Hipc2ProxyKindBaseILNS9_6detail11MessageTypeE6EEEEEEENS0_30MemoryResourceAllocationPolicyES7_E30_nn_sf_sync_GetCradleFwVersionENS0_3OutIjvEESL_SL_SL_
 00000000:0000007100056790       _ZN2nn2sf4cmif6client6detail13CmifProxyImplINS_2am7service18ICommonStateGetterENS2_15CmifDomainProxyINS0_4hipc6client38Hipc2ClientSessionManagedProxyKindBaseINSA_18Hipc2ProxyKindBaseILNS9_6detail11MessageTypeE6EEEEEEENS0_30MemoryResourceAllocationPolicyES7_E27_nn_sf_sync_IsVrModeEnabledENS0_3OutIbvEE
 00000000:00000071000567B0       _ZN2nn2sf4cmif6client6detail13CmifProxyImplINS_2am7service18ICommonStateGetterENS2_15CmifDomainProxyINS0_4hipc6client38Hipc2ClientSessionManagedProxyKindBaseINSA_18Hipc2ProxyKindBaseILNS9_6detail11MessageTypeE6EEEEEEENS0_30MemoryResourceAllocationPolicyES7_E28_nn_sf_sync_SetVrModeEnabledEb
 00000000:00000071000567E0       _ZN2nn2sf4cmif6client6detail13CmifProxyImplINS_2am7service18ICommonStateGetterENS2_15CmifDomainProxyINS0_4hipc6client38Hipc2ClientSessionManagedProxyKindBaseINSA_18Hipc2ProxyKindBaseILNS9_6detail11MessageTypeE6EEEEEEENS0_30MemoryResourceAllocationPolicyES7_E36_nn_sf_sync_SetLcdBacklighOffEnabledEb
 00000000:0000007100056810       _ZN2nn2sf4cmif6client6detail13CmifProxyImplINS_2am7service18ICommonStateGetterENS2_15CmifDomainProxyINS0_4hipc6client38Hipc2ClientSessionManagedProxyKindBaseINSA_18Hipc2ProxyKindBaseILNS9_6detail11MessageTypeE6EEEEEEENS0_30MemoryResourceAllocationPolicyES7_E47_nn_sf_sync_IsInControllerFirmwareUpdateSectionENS0_3OutIbvEE
 00000000:0000007100056830       _ZN2nn2sf4cmif6client6detail13CmifProxyImplINS_2am7service18ICommonStateGetterENS2_15CmifDomainProxyINS0_4hipc6client38Hipc2ClientSessionManagedProxyKindBaseINSA_18Hipc2ProxyKindBaseILNS9_6detail11MessageTypeE6EEEEEEENS0_30MemoryResourceAllocationPolicyES7_E39_nn_sf_sync_GetDefaultDisplayResolutionENS0_3OutIivEESL_
 00000000:0000007100056850       _ZN2nn2sf4cmif6client6detail13CmifProxyImplINS_2am7service18ICommonStateGetterENS2_15CmifDomainProxyINS0_4hipc6client38Hipc2ClientSessionManagedProxyKindBaseINSA_18Hipc2ProxyKindBaseILNS9_6detail11MessageTypeE6EEEEEEENS0_30MemoryResourceAllocationPolicyES7_E50_nn_sf_sync_GetDefaultDisplayResolutionChangeEventENS0_3OutINS0_12NativeHandleEvEE
 00000000:0000007100056870       _ZN2nn2sf4cmif6client6detail13CmifProxyImplINS_2am7service18ICommonStateGetterENS2_15CmifDomainProxyINS0_4hipc6client38Hipc2ClientSessionManagedProxyKindBaseINSA_18Hipc2ProxyKindBaseILNS9_6detail11MessageTypeE6EEEEEEENS0_30MemoryResourceAllocationPolicyES7_E38_nn_sf_sync_GetHdcpAuthenticationStateENS0_3OutIivEE
 00000000:0000007100056890       _ZN2nn2sf4cmif6client6detail13CmifProxyImplINS_2am7service18ICommonStateGetterENS2_15CmifDomainProxyINS0_4hipc6client38Hipc2ClientSessionManagedProxyKindBaseINSA_18Hipc2ProxyKindBaseILNS9_6detail11MessageTypeE6EEEEEEENS0_30MemoryResourceAllocationPolicyES7_E49_nn_sf_sync_GetHdcpAuthenticationStateChangeEventENS0_3OutINS0_12NativeHandleEvEE
 00000000:00000071000568B0       _ZN2nn2sf4cmif6client6detail13CmifProxyImplINS_2am7service18ICommonStateGetterENS2_15CmifDomainProxyINS0_4hipc6client38Hipc2ClientSessionManagedProxyKindBaseINSA_18Hipc2ProxyKindBaseILNS9_6detail11MessageTypeE6EEEEEEENS0_30MemoryResourceAllocationPolicyES7_E39_nn_sf_sync_SetTvPowerStateMatchingModeEi
 00000000:00000071000568E0       _ZN2nn2sf4cmif6client6detail13CmifProxyImplINS_2am7service18ICommonStateGetterENS2_15CmifDomainProxyINS0_4hipc6client38Hipc2ClientSessionManagedProxyKindBaseINSA_18Hipc2ProxyKindBaseILNS9_6detail11MessageTypeE6EEEEEEENS0_30MemoryResourceAllocationPolicyES7_E47_nn_sf_sync_GetApplicationIdByContentActionNameENS0_3OutImvEERKNS0_7InArrayIcEE
 00000000:0000007100056910       _ZN2nn2sf4cmif6client6detail13CmifProxyImplINS_2am7service18ICommonStateGetterENS2_15CmifDomainProxyINS0_4hipc6client38Hipc2ClientSessionManagedProxyKindBaseINSA_18Hipc2ProxyKindBaseILNS9_6detail11MessageTypeE6EEEEEEENS0_30MemoryResourceAllocationPolicyES7_E33_nn_sf_sync_SetCpuAndGpuBoostModeEi
 00000000:0000007100056940       _ZN2nn2sf4cmif6client6detail13CmifProxyImplINS_2am7service18ICommonStateGetterENS2_15CmifDomainProxyINS0_4hipc6client38Hipc2ClientSessionManagedProxyKindBaseINSA_18Hipc2ProxyKindBaseILNS9_6detail11MessageTypeE6EEEEEEENS0_30MemoryResourceAllocationPolicyES7_E48_nn_sf_sync_PerformSystemButtonPressingIfInFocusENS6_16SystemButtonTypeE
 00000000:0000007100056970       _ZN2nn2sf4cmif6client6detail13CmifProxyImplINS_2am7service18ICommonStateGetterENS2_15CmifDomainProxyINS0_4hipc6client38Hipc2ClientSessionManagedProxyKindBaseINSA_18Hipc2ProxyKindBaseILNS9_6detail11MessageTypeE6EEEEEEENS0_30MemoryResourceAllocationPolicyES7_E17GetCmifBaseObjectEv
 00000000:0000007100056980       _ZThn32_N2nn2sf4cmif6client6detail13CmifProxyImplINS_2am7service18ICommonStateGetterENS2_15CmifDomainProxyINS0_4hipc6client38Hipc2ClientSessionManagedProxyKindBaseINSA_18Hipc2ProxyKindBaseILNS9_6detail11MessageTypeE6EEEEEEENS0_30MemoryResourceAllocationPolicyES7_E17GetCmifBaseObjectEv
 00000000:0000007100056990       _ZN2nn2sf4cmif6client34CmifDomainProxyClientCoreProcessorINS0_4hipc6client38Hipc2ClientSessionManagedProxyKindBaseINS5_18Hipc2ProxyKindBaseILNS4_6detail11MessageTypeE6EEEEENS1_6detail14CoreMethodInfoINSt3__15tupleIJNSC_18OutRawArgumentInfoILm8ELm4ELl0EEEEEELm0ELm8ELb0EEESI_E7ProcessEPNS2_23CmifDomainClientMessageISB_E15ProxyBaseObjectENS2_24OutRawClientArgumentTypeILm8ELm4EEEj
 00000000:0000007100056AE0       _ZN2nn2sf4cmif6client32GetClientProcessorWithObjectBaseINS2_15CmifDomainProxyINS0_4hipc6client38Hipc2ClientSessionManagedProxyKindBaseINS6_18Hipc2ProxyKindBaseILNS5_6detail11MessageTypeE6EEEEEEEE14ObjectAssignerINS0_30MemoryResourceAllocationPolicyENS_14MemoryResourceEE14AllocateObjectINS_2am7service13ILockAccessorEEEvi
 00000000:0000007100056B90       _ZN2nn2sf6detail38ObjectImplFactoryWithStatefulAllocatorINS0_4cmif6client16CmifProxyFactoryINS_2am7service13ILockAccessorENS4_15CmifDomainProxyINS0_4hipc6client38Hipc2ClientSessionManagedProxyKindBaseINSB_18Hipc2ProxyKindBaseILNSA_6detail11MessageTypeE6EEEEEEENS0_30MemoryResourceAllocationPolicyEE13ServiceObjectESJ_E6Object12AddReferenceEv
 00000000:0000007100056BA0       _ZN2nn2sf6detail38ObjectImplFactoryWithStatefulAllocatorINS0_4cmif6client16CmifProxyFactoryINS_2am7service13ILockAccessorENS4_15CmifDomainProxyINS0_4hipc6client38Hipc2ClientSessionManagedProxyKindBaseINSB_18Hipc2ProxyKindBaseILNSA_6detail11MessageTypeE6EEEEEEENS0_30MemoryResourceAllocationPolicyEE13ServiceObjectESJ_E6Object7ReleaseEv
 00000000:0000007100056C00       _ZN2nn2sf4cmif6client6detail13CmifProxyImplINS_2am7service13ILockAccessorENS2_15CmifDomainProxyINS0_4hipc6client38Hipc2ClientSessionManagedProxyKindBaseINSA_18Hipc2ProxyKindBaseILNS9_6detail11MessageTypeE6EEEEEEENS0_30MemoryResourceAllocationPolicyES7_E12GetProxyInfoEv
 00000000:0000007100056C10       _ZN2nn2sf4cmif6client6detail13CmifProxyImplINS_2am7service13ILockAccessorENS2_15CmifDomainProxyINS0_4hipc6client38Hipc2ClientSessionManagedProxyKindBaseINSA_18Hipc2ProxyKindBaseILNS9_6detail11MessageTypeE6EEEEEEENS0_30MemoryResourceAllocationPolicyES7_E19_nn_sf_sync_TryLockENS0_3OutIbvEENSK_INS0_12NativeHandleEvEEb
 00000000:0000007100056C40       _ZN2nn2sf4cmif6client6detail13CmifProxyImplINS_2am7service13ILockAccessorENS2_15CmifDomainProxyINS0_4hipc6client38Hipc2ClientSessionManagedProxyKindBaseINSA_18Hipc2ProxyKindBaseILNS9_6detail11MessageTypeE6EEEEEEENS0_30MemoryResourceAllocationPolicyES7_E18_nn_sf_sync_UnlockEv
 00000000:0000007100056C60       _ZN2nn2sf4cmif6client6detail13CmifProxyImplINS_2am7service13ILockAccessorENS2_15CmifDomainProxyINS0_4hipc6client38Hipc2ClientSessionManagedProxyKindBaseINSA_18Hipc2ProxyKindBaseILNS9_6detail11MessageTypeE6EEEEEEENS0_30MemoryResourceAllocationPolicyES7_E20_nn_sf_sync_GetEventENS0_3OutINS0_12NativeHandleEvEE
 00000000:0000007100056C80       _ZN2nn2sf4cmif6client6detail13CmifProxyImplINS_2am7service13ILockAccessorENS2_15CmifDomainProxyINS0_4hipc6client38Hipc2ClientSessionManagedProxyKindBaseINSA_18Hipc2ProxyKindBaseILNS9_6detail11MessageTypeE6EEEEEEENS0_30MemoryResourceAllocationPolicyES7_E17GetCmifBaseObjectEv
 00000000:0000007100056C90       _ZThn32_N2nn2sf4cmif6client6detail13CmifProxyImplINS_2am7service13ILockAccessorENS2_15CmifDomainProxyINS0_4hipc6client38Hipc2ClientSessionManagedProxyKindBaseINSA_18Hipc2ProxyKindBaseILNS9_6detail11MessageTypeE6EEEEEEENS0_30MemoryResourceAllocationPolicyES7_E17GetCmifBaseObjectEv
 00000000:0000007100056CA0       _ZN2nn2sf4cmif6client34CmifDomainProxyClientCoreProcessorINS0_4hipc6client38Hipc2ClientSessionManagedProxyKindBaseINS5_18Hipc2ProxyKindBaseILNS4_6detail11MessageTypeE6EEEEENS1_6detail14CoreMethodInfoINSt3__15tupleIJNSC_18OutRawArgumentInfoILm1ELm1ELl0EEENSC_21OutHandleArgumentInfoILi0ELi1EEENSC_17InRawArgumentInfoILm1ELm1ELl0EEEEEELm1ELm1ELb0EEESM_E7ProcessEPNS2_23CmifDomainClientMessageISB_E15ProxyBaseObjectENS2_24OutRawClientArgumentTypeILm1ELm1EEENS2_27OutHandleClientArgumentTypeENS2_23InRawClientArgumentTypeILm1ELm1EvEEj
 00000000:0000007100056E30       _ZN2nn2sf4cmif6client34CmifDomainProxyClientCoreProcessorINS0_4hipc6client38Hipc2ClientSessionManagedProxyKindBaseINS5_18Hipc2ProxyKindBaseILNS4_6detail11MessageTypeE6EEEEENS1_6detail14CoreMethodInfoINSt3__15tupleIJNSC_18OutRawArgumentInfoILm4ELm4ELl0EEENSG_ILm4ELm4ELl4EEENSG_ILm4ELm4ELl8EEENSG_ILm4ELm4ELl12EEEEEELm0ELm16ELb0EEESL_E7ProcessEPNS2_23CmifDomainClientMessageISB_E15ProxyBaseObjectENS2_24OutRawClientArgumentTypeILm4ELm4EEEST_ST_ST_j
 00000000:0000007100056FB0       _ZN2nn2sf4cmif6client34CmifDomainProxyClientCoreProcessorINS0_4hipc6client38Hipc2ClientSessionManagedProxyKindBaseINS5_18Hipc2ProxyKindBaseILNS4_6detail11MessageTypeE6EEEEENS1_6detail14CoreMethodInfoINSt3__15tupleIJNSC_18OutRawArgumentInfoILm4ELm4ELl0EEENSG_ILm4ELm4ELl4EEEEEELm0ELm8ELb0EEESJ_E7ProcessEPNS2_23CmifDomainClientMessageISB_E15ProxyBaseObjectENS2_24OutRawClientArgumentTypeILm4ELm4EEESR_j
 00000000:0000007100057110       _ZN2nn2sf4cmif6client34CmifDomainProxyClientCoreProcessorINS0_4hipc6client38Hipc2ClientSessionManagedProxyKindBaseINS5_18Hipc2ProxyKindBaseILNS4_6detail11MessageTypeE6EEEEENS1_6detail14CoreMethodInfoINSt3__15tupleIJNSC_18OutRawArgumentInfoILm8ELm8ELl0EEENSC_18BufferArgumentInfoILi0ELi5ELm0EEEEEELm0ELm8ELb0EEESK_E7ProcessEPNS2_23CmifDomainClientMessageISB_E15ProxyBaseObjectENS2_24OutRawClientArgumentTypeILm8ELm8EEENS2_24BufferClientArgumentTypeEj
 00000000:0000007100057320       _ZN2nn2sf4cmif6client32GetClientProcessorWithObjectBaseINS2_15CmifDomainProxyINS0_4hipc6client38Hipc2ClientSessionManagedProxyKindBaseINS6_18Hipc2ProxyKindBaseILNS5_6detail11MessageTypeE6EEEEEEEE14ObjectAssignerINS0_30MemoryResourceAllocationPolicyENS_14MemoryResourceEE14AllocateObjectINS_2am7service15ISelfControllerEEEvi
 00000000:00000071000573D0       _ZN2nn2sf6detail38ObjectImplFactoryWithStatefulAllocatorINS0_4cmif6client16CmifProxyFactoryINS_2am7service15ISelfControllerENS4_15CmifDomainProxyINS0_4hipc6client38Hipc2ClientSessionManagedProxyKindBaseINSB_18Hipc2ProxyKindBaseILNSA_6detail11MessageTypeE6EEEEEEENS0_30MemoryResourceAllocationPolicyEE13ServiceObjectESJ_E6Object12AddReferenceEv
 00000000:00000071000573E0       _ZN2nn2sf6detail38ObjectImplFactoryWithStatefulAllocatorINS0_4cmif6client16CmifProxyFactoryINS_2am7service15ISelfControllerENS4_15CmifDomainProxyINS0_4hipc6client38Hipc2ClientSessionManagedProxyKindBaseINSB_18Hipc2ProxyKindBaseILNSA_6detail11MessageTypeE6EEEEEEENS0_30MemoryResourceAllocationPolicyEE13ServiceObjectESJ_E6Object7ReleaseEv
 00000000:0000007100057440       _ZN2nn2sf4cmif6client6detail13CmifProxyImplINS_2am7service15ISelfControllerENS2_15CmifDomainProxyINS0_4hipc6client38Hipc2ClientSessionManagedProxyKindBaseINSA_18Hipc2ProxyKindBaseILNS9_6detail11MessageTypeE6EEEEEEENS0_30MemoryResourceAllocationPolicyES7_E12GetProxyInfoEv
 00000000:0000007100057450       _ZN2nn2sf4cmif6client6detail13CmifProxyImplINS_2am7service15ISelfControllerENS2_15CmifDomainProxyINS0_4hipc6client38Hipc2ClientSessionManagedProxyKindBaseINSA_18Hipc2ProxyKindBaseILNS9_6detail11MessageTypeE6EEEEEEENS0_30MemoryResourceAllocationPolicyES7_E16_nn_sf_sync_ExitEv
 00000000:0000007100057470       _ZN2nn2sf4cmif6client6detail13CmifProxyImplINS_2am7service15ISelfControllerENS2_15CmifDomainProxyINS0_4hipc6client38Hipc2ClientSessionManagedProxyKindBaseINSA_18Hipc2ProxyKindBaseILNS9_6detail11MessageTypeE6EEEEEEENS0_30MemoryResourceAllocationPolicyES7_E20_nn_sf_sync_LockExitEv
 00000000:0000007100057490       _ZN2nn2sf4cmif6client6detail13CmifProxyImplINS_2am7service15ISelfControllerENS2_15CmifDomainProxyINS0_4hipc6client38Hipc2ClientSessionManagedProxyKindBaseINSA_18Hipc2ProxyKindBaseILNS9_6detail11MessageTypeE6EEEEEEENS0_30MemoryResourceAllocationPolicyES7_E22_nn_sf_sync_UnlockExitEv
 00000000:00000071000574B0       _ZN2nn2sf4cmif6client6detail13CmifProxyImplINS_2am7service15ISelfControllerENS2_15CmifDomainProxyINS0_4hipc6client38Hipc2ClientSessionManagedProxyKindBaseINSA_18Hipc2ProxyKindBaseILNS9_6detail11MessageTypeE6EEEEEEENS0_30MemoryResourceAllocationPolicyES7_E29_nn_sf_sync_EnterFatalSectionEv
 00000000:00000071000574D0       _ZN2nn2sf4cmif6client6detail13CmifProxyImplINS_2am7service15ISelfControllerENS2_15CmifDomainProxyINS0_4hipc6client38Hipc2ClientSessionManagedProxyKindBaseINSA_18Hipc2ProxyKindBaseILNS9_6detail11MessageTypeE6EEEEEEENS0_30MemoryResourceAllocationPolicyES7_E29_nn_sf_sync_LeaveFatalSectionEv
 00000000:00000071000574F0       _ZN2nn2sf4cmif6client6detail13CmifProxyImplINS_2am7service15ISelfControllerENS2_15CmifDomainProxyINS0_4hipc6client38Hipc2ClientSessionManagedProxyKindBaseINSA_18Hipc2ProxyKindBaseILNS9_6detail11MessageTypeE6EEEEEEENS0_30MemoryResourceAllocationPolicyES7_E43_nn_sf_sync_GetLibraryAppletLaunchableEventENS0_3OutINS0_12NativeHandleEvEE
 00000000:0000007100057510       _ZN2nn2sf4cmif6client6detail13CmifProxyImplINS_2am7service15ISelfControllerENS2_15CmifDomainProxyINS0_4hipc6client38Hipc2ClientSessionManagedProxyKindBaseINSA_18Hipc2ProxyKindBaseILNS9_6detail11MessageTypeE6EEEEEEENS0_30MemoryResourceAllocationPolicyES7_E35_nn_sf_sync_SetScreenShotPermissionEi
 00000000:0000007100057540       _ZN2nn2sf4cmif6client6detail13CmifProxyImplINS_2am7service15ISelfControllerENS2_15CmifDomainProxyINS0_4hipc6client38Hipc2ClientSessionManagedProxyKindBaseINSA_18Hipc2ProxyKindBaseILNS9_6detail11MessageTypeE6EEEEEEENS0_30MemoryResourceAllocationPolicyES7_E47_nn_sf_sync_SetOperationModeChangedNotificationEb
 00000000:0000007100057570       _ZN2nn2sf4cmif6client6detail13CmifProxyImplINS_2am7service15ISelfControllerENS2_15CmifDomainProxyINS0_4hipc6client38Hipc2ClientSessionManagedProxyKindBaseINSA_18Hipc2ProxyKindBaseILNS9_6detail11MessageTypeE6EEEEEEENS0_30MemoryResourceAllocationPolicyES7_E49_nn_sf_sync_SetPerformanceModeChangedNotificationEb
 00000000:00000071000575A0       _ZN2nn2sf4cmif6client6detail13CmifProxyImplINS_2am7service15ISelfControllerENS2_15CmifDomainProxyINS0_4hipc6client38Hipc2ClientSessionManagedProxyKindBaseINSA_18Hipc2ProxyKindBaseILNS9_6detail11MessageTypeE6EEEEEEENS0_30MemoryResourceAllocationPolicyES7_E32_nn_sf_sync_SetFocusHandlingModeEbbb
 00000000:00000071000575D0       _ZN2nn2sf4cmif6client6detail13CmifProxyImplINS_2am7service15ISelfControllerENS2_15CmifDomainProxyINS0_4hipc6client38Hipc2ClientSessionManagedProxyKindBaseINSA_18Hipc2ProxyKindBaseILNS9_6detail11MessageTypeE6EEEEEEENS0_30MemoryResourceAllocationPolicyES7_E36_nn_sf_sync_SetRestartMessageEnabledEb
 00000000:0000007100057600       _ZN2nn2sf4cmif6client6detail13CmifProxyImplINS_2am7service15ISelfControllerENS2_15CmifDomainProxyINS0_4hipc6client38Hipc2ClientSessionManagedProxyKindBaseINSA_18Hipc2ProxyKindBaseILNS9_6detail11MessageTypeE6EEEEEEENS0_30MemoryResourceAllocationPolicyES7_E43_nn_sf_sync_SetScreenShotAppletIdentityInfoERKNS6_18AppletIdentityInfoE
 00000000:0000007100057620       _ZN2nn2sf4cmif6client6detail13CmifProxyImplINS_2am7service15ISelfControllerENS2_15CmifDomainProxyINS0_4hipc6client38Hipc2ClientSessionManagedProxyKindBaseINSA_18Hipc2ProxyKindBaseILNS9_6detail11MessageTypeE6EEEEEEENS0_30MemoryResourceAllocationPolicyES7_E42_nn_sf_sync_SetOutOfFocusSuspendingEnabledEb
 00000000:0000007100057650       _ZN2nn2sf4cmif6client6detail13CmifProxyImplINS_2am7service15ISelfControllerENS2_15CmifDomainProxyINS0_4hipc6client38Hipc2ClientSessionManagedProxyKindBaseINSA_18Hipc2ProxyKindBaseILNS9_6detail11MessageTypeE6EEEEEEENS0_30MemoryResourceAllocationPolicyES7_E46_nn_sf_sync_SetControllerFirmwareUpdateSectionEb
 00000000:0000007100057680       _ZN2nn2sf4cmif6client6detail13CmifProxyImplINS_2am7service15ISelfControllerENS2_15CmifDomainProxyINS0_4hipc6client38Hipc2ClientSessionManagedProxyKindBaseINSA_18Hipc2ProxyKindBaseILNS9_6detail11MessageTypeE6EEEEEEENS0_30MemoryResourceAllocationPolicyES7_E55_nn_sf_sync_SetRequiresCaptureButtonShortPressedMessageEb
 00000000:00000071000576B0       _ZN2nn2sf4cmif6client6detail13CmifProxyImplINS_2am7service15ISelfControllerENS2_15CmifDomainProxyINS0_4hipc6client38Hipc2ClientSessionManagedProxyKindBaseINSA_18Hipc2ProxyKindBaseILNS9_6detail11MessageTypeE6EEEEEEENS0_30MemoryResourceAllocationPolicyES7_E36_nn_sf_sync_SetAlbumImageOrientationEi
 00000000:00000071000576E0       _ZN2nn2sf4cmif6client6detail13CmifProxyImplINS_2am7service15ISelfControllerENS2_15CmifDomainProxyINS0_4hipc6client38Hipc2ClientSessionManagedProxyKindBaseINSA_18Hipc2ProxyKindBaseILNS9_6detail11MessageTypeE6EEEEEEENS0_30MemoryResourceAllocationPolicyES7_E38_nn_sf_sync_SetDesirableKeyboardLayoutEj
 00000000:0000007100057710       _ZN2nn2sf4cmif6client6detail13CmifProxyImplINS_2am7service15ISelfControllerENS2_15CmifDomainProxyINS0_4hipc6client38Hipc2ClientSessionManagedProxyKindBaseINSA_18Hipc2ProxyKindBaseILNS9_6detail11MessageTypeE6EEEEEEENS0_30MemoryResourceAllocationPolicyES7_E37_nn_sf_sync_CreateManagedDisplayLayerENS0_3OutImvEE
 00000000:0000007100057730       _ZN2nn2sf4cmif6client6detail13CmifProxyImplINS_2am7service15ISelfControllerENS2_15CmifDomainProxyINS0_4hipc6client38Hipc2ClientSessionManagedProxyKindBaseINSA_18Hipc2ProxyKindBaseILNS9_6detail11MessageTypeE6EEEEEEENS0_30MemoryResourceAllocationPolicyES7_E40_nn_sf_sync_IsSystemBufferSharingEnabledEv
 00000000:0000007100057750       _ZN2nn2sf4cmif6client6detail13CmifProxyImplINS_2am7service15ISelfControllerENS2_15CmifDomainProxyINS0_4hipc6client38Hipc2ClientSessionManagedProxyKindBaseINSA_18Hipc2ProxyKindBaseILNS9_6detail11MessageTypeE6EEEEEEENS0_30MemoryResourceAllocationPolicyES7_E38_nn_sf_sync_GetSystemSharedLayerHandleENS0_3OutINS_2vi7fbshare18SharedBufferHandleEvEENSK_INSM_17SharedLayerHandleEvEE
 00000000:0000007100057770       _ZN2nn2sf4cmif6client6detail13CmifProxyImplINS_2am7service15ISelfControllerENS2_15CmifDomainProxyINS0_4hipc6client38Hipc2ClientSessionManagedProxyKindBaseINSA_18Hipc2ProxyKindBaseILNS9_6detail11MessageTypeE6EEEEEEENS0_30MemoryResourceAllocationPolicyES7_E39_nn_sf_sync_GetSystemSharedBufferHandleENS0_3OutINS_2vi7fbshare18SharedBufferHandleEvEE
 00000000:0000007100057790       _ZN2nn2sf4cmif6client6detail13CmifProxyImplINS_2am7service15ISelfControllerENS2_15CmifDomainProxyINS0_4hipc6client38Hipc2ClientSessionManagedProxyKindBaseINSA_18Hipc2ProxyKindBaseILNS9_6detail11MessageTypeE6EEEEEEENS0_30MemoryResourceAllocationPolicyES7_E38_nn_sf_sync_SetHandlesRequestToDisplayEb
 00000000:00000071000577C0       _ZN2nn2sf4cmif6client6detail13CmifProxyImplINS_2am7service15ISelfControllerENS2_15CmifDomainProxyINS0_4hipc6client38Hipc2ClientSessionManagedProxyKindBaseINSA_18Hipc2ProxyKindBaseILNS9_6detail11MessageTypeE6EEEEEEENS0_30MemoryResourceAllocationPolicyES7_E28_nn_sf_sync_ApproveToDisplayEv
 00000000:00000071000577E0       _ZN2nn2sf4cmif6client6detail13CmifProxyImplINS_2am7service15ISelfControllerENS2_15CmifDomainProxyINS0_4hipc6client38Hipc2ClientSessionManagedProxyKindBaseINSA_18Hipc2ProxyKindBaseILNS9_6detail11MessageTypeE6EEEEEEENS0_30MemoryResourceAllocationPolicyES7_E47_nn_sf_sync_OverrideAutoSleepTimeAndDimmingTimeEiiii
 00000000:0000007100057810       _ZN2nn2sf4cmif6client6detail13CmifProxyImplINS_2am7service15ISelfControllerENS2_15CmifDomainProxyINS0_4hipc6client38Hipc2ClientSessionManagedProxyKindBaseINSA_18Hipc2ProxyKindBaseILNS9_6detail11MessageTypeE6EEEEEEENS0_30MemoryResourceAllocationPolicyES7_E33_nn_sf_sync_SetMediaPlaybackStateEb
 00000000:0000007100057840       _ZN2nn2sf4cmif6client6detail13CmifProxyImplINS_2am7service15ISelfControllerENS2_15CmifDomainProxyINS0_4hipc6client38Hipc2ClientSessionManagedProxyKindBaseINSA_18Hipc2ProxyKindBaseILNS9_6detail11MessageTypeE6EEEEEEENS0_30MemoryResourceAllocationPolicyES7_E41_nn_sf_sync_SetIdleTimeDetectionExtensionEj
 00000000:0000007100057870       _ZN2nn2sf4cmif6client6detail13CmifProxyImplINS_2am7service15ISelfControllerENS2_15CmifDomainProxyINS0_4hipc6client38Hipc2ClientSessionManagedProxyKindBaseINSA_18Hipc2ProxyKindBaseILNS9_6detail11MessageTypeE6EEEEEEENS0_30MemoryResourceAllocationPolicyES7_E41_nn_sf_sync_GetIdleTimeDetectionExtensionENS0_3OutIjvEE
 00000000:0000007100057890       _ZN2nn2sf4cmif6client6detail13CmifProxyImplINS_2am7service15ISelfControllerENS2_15CmifDomainProxyINS0_4hipc6client38Hipc2ClientSessionManagedProxyKindBaseINSA_18Hipc2ProxyKindBaseILNS9_6detail11MessageTypeE6EEEEEEENS0_30MemoryResourceAllocationPolicyES7_E38_nn_sf_sync_SetInputDetectionSourceSetEj
 00000000:00000071000578C0       _ZN2nn2sf4cmif6client6detail13CmifProxyImplINS_2am7service15ISelfControllerENS2_15CmifDomainProxyINS0_4hipc6client38Hipc2ClientSessionManagedProxyKindBaseINSA_18Hipc2ProxyKindBaseILNS9_6detail11MessageTypeE6EEEEEEENS0_30MemoryResourceAllocationPolicyES7_E30_nn_sf_sync_ReportUserIsActiveEv
 00000000:00000071000578E0       _ZN2nn2sf4cmif6client6detail13CmifProxyImplINS_2am7service15ISelfControllerENS2_15CmifDomainProxyINS0_4hipc6client38Hipc2ClientSessionManagedProxyKindBaseINSA_18Hipc2ProxyKindBaseILNS9_6detail11MessageTypeE6EEEEEEENS0_30MemoryResourceAllocationPolicyES7_E33_nn_sf_sync_GetCurrentIlluminanceENS0_3OutIfvEE
 00000000:0000007100057900       _ZN2nn2sf4cmif6client6detail13CmifProxyImplINS_2am7service15ISelfControllerENS2_15CmifDomainProxyINS0_4hipc6client38Hipc2ClientSessionManagedProxyKindBaseINSA_18Hipc2ProxyKindBaseILNS9_6detail11MessageTypeE6EEEEEEENS0_30MemoryResourceAllocationPolicyES7_E34_nn_sf_sync_IsIlluminanceAvailableENS0_3OutIbvEE
 00000000:0000007100057920       _ZN2nn2sf4cmif6client6detail13CmifProxyImplINS_2am7service15ISelfControllerENS2_15CmifDomainProxyINS0_4hipc6client38Hipc2ClientSessionManagedProxyKindBaseINSA_18Hipc2ProxyKindBaseILNS9_6detail11MessageTypeE6EEEEEEENS0_30MemoryResourceAllocationPolicyES7_E32_nn_sf_sync_SetAutoSleepDisabledEb
 00000000:0000007100057950       _ZN2nn2sf4cmif6client6detail13CmifProxyImplINS_2am7service15ISelfControllerENS2_15CmifDomainProxyINS0_4hipc6client38Hipc2ClientSessionManagedProxyKindBaseINSA_18Hipc2ProxyKindBaseILNS9_6detail11MessageTypeE6EEEEEEENS0_30MemoryResourceAllocationPolicyES7_E31_nn_sf_sync_IsAutoSleepDisabledENS0_3OutIbvEE
 00000000:0000007100057970       _ZN2nn2sf4cmif6client6detail13CmifProxyImplINS_2am7service15ISelfControllerENS2_15CmifDomainProxyINS0_4hipc6client38Hipc2ClientSessionManagedProxyKindBaseINSA_18Hipc2ProxyKindBaseILNS9_6detail11MessageTypeE6EEEEEEENS0_30MemoryResourceAllocationPolicyES7_E33_nn_sf_sync_ReportMultimediaErrorEjRKNS0_8InBufferE
 00000000:00000071000579A0       _ZN2nn2sf4cmif6client6detail13CmifProxyImplINS_2am7service15ISelfControllerENS2_15CmifDomainProxyINS0_4hipc6client38Hipc2ClientSessionManagedProxyKindBaseINSA_18Hipc2ProxyKindBaseILNS9_6detail11MessageTypeE6EEEEEEENS0_30MemoryResourceAllocationPolicyES7_E35_nn_sf_sync_GetCurrentIlluminanceExENS0_3OutIfvEENSK_IbvEE
 00000000:00000071000579C0       _ZN2nn2sf4cmif6client6detail13CmifProxyImplINS_2am7service15ISelfControllerENS2_15CmifDomainProxyINS0_4hipc6client38Hipc2ClientSessionManagedProxyKindBaseINSA_18Hipc2ProxyKindBaseILNS9_6detail11MessageTypeE6EEEEEEENS0_30MemoryResourceAllocationPolicyES7_E35_nn_sf_sync_SetWirelessPriorityModeEi
 00000000:00000071000579F0       _ZN2nn2sf4cmif6client6detail13CmifProxyImplINS_2am7service15ISelfControllerENS2_15CmifDomainProxyINS0_4hipc6client38Hipc2ClientSessionManagedProxyKindBaseINSA_18Hipc2ProxyKindBaseILNS9_6detail11MessageTypeE6EEEEEEENS0_30MemoryResourceAllocationPolicyES7_E44_nn_sf_sync_GetAccumulatedSuspendedTickValueENS0_3OutIlvEE
 00000000:0000007100057A10       _ZN2nn2sf4cmif6client6detail13CmifProxyImplINS_2am7service15ISelfControllerENS2_15CmifDomainProxyINS0_4hipc6client38Hipc2ClientSessionManagedProxyKindBaseINSA_18Hipc2ProxyKindBaseILNS9_6detail11MessageTypeE6EEEEEEENS0_30MemoryResourceAllocationPolicyES7_E51_nn_sf_sync_GetAccumulatedSuspendedTickChangedEventENS0_3OutINS0_12NativeHandleEvEE
 00000000:0000007100057A30       _ZN2nn2sf4cmif6client6detail13CmifProxyImplINS_2am7service15ISelfControllerENS2_15CmifDomainProxyINS0_4hipc6client38Hipc2ClientSessionManagedProxyKindBaseINSA_18Hipc2ProxyKindBaseILNS9_6detail11MessageTypeE6EEEEEEENS0_30MemoryResourceAllocationPolicyES7_E17GetCmifBaseObjectEv
 00000000:0000007100057A40       _ZThn32_N2nn2sf4cmif6client6detail13CmifProxyImplINS_2am7service15ISelfControllerENS2_15CmifDomainProxyINS0_4hipc6client38Hipc2ClientSessionManagedProxyKindBaseINSA_18Hipc2ProxyKindBaseILNS9_6detail11MessageTypeE6EEEEEEENS0_30MemoryResourceAllocationPolicyES7_E17GetCmifBaseObjectEv
 00000000:0000007100057A50       _ZN2nn2sf4cmif6client34CmifDomainProxyClientCoreProcessorINS0_4hipc6client38Hipc2ClientSessionManagedProxyKindBaseINS5_18Hipc2ProxyKindBaseILNS4_6detail11MessageTypeE6EEEEENS1_6detail14CoreMethodInfoINSt3__15tupleIJNSC_17InRawArgumentInfoILm1ELm1ELl0EEENSG_ILm1ELm1ELl1EEENSG_ILm1ELm1ELl2EEEEEELm3ELm0ELb0EEESK_E7ProcessEPNS2_23CmifDomainClientMessageISB_E15ProxyBaseObjectENS2_23InRawClientArgumentTypeILm1ELm1EvEESS_SS_j
 00000000:0000007100057BB0       _ZN2nn2sf4cmif6client34CmifDomainProxyClientCoreProcessorINS0_4hipc6client38Hipc2ClientSessionManagedProxyKindBaseINS5_18Hipc2ProxyKindBaseILNS4_6detail11MessageTypeE6EEEEENS1_6detail14CoreMethodInfoINSt3__15tupleIJNSC_18OutRawArgumentInfoILm8ELm8ELl0EEENSG_ILm8ELm8ELl8EEEEEELm0ELm16ELb0EEESJ_E7ProcessEPNS2_23CmifDomainClientMessageISB_E15ProxyBaseObjectENS2_24OutRawClientArgumentTypeILm8ELm8EEESR_j
 00000000:0000007100057D10       _ZN2nn2sf4cmif6client34CmifDomainProxyClientCoreProcessorINS0_4hipc6client38Hipc2ClientSessionManagedProxyKindBaseINS5_18Hipc2ProxyKindBaseILNS4_6detail11MessageTypeE6EEEEENS1_6detail14CoreMethodInfoINSt3__15tupleIJNSC_17InRawArgumentInfoILm4ELm4ELl0EEENSG_ILm4ELm4ELl4EEENSG_ILm4ELm4ELl8EEENSG_ILm4ELm4ELl12EEEEEELm16ELm0ELb0EEESL_E7ProcessEPNS2_23CmifDomainClientMessageISB_E15ProxyBaseObjectENS2_23InRawClientArgumentTypeILm4ELm4EvEEST_ST_ST_j
 00000000:0000007100057E70       _ZN2nn2sf4cmif6client34CmifDomainProxyClientCoreProcessorINS0_4hipc6client38Hipc2ClientSessionManagedProxyKindBaseINS5_18Hipc2ProxyKindBaseILNS4_6detail11MessageTypeE6EEEEENS1_6detail14CoreMethodInfoINSt3__15tupleIJNSC_17InRawArgumentInfoILm4ELm4ELl0EEENSC_18BufferArgumentInfoILi0ELi5ELm0EEEEEELm4ELm0ELb0EEESK_E7ProcessEPNS2_23CmifDomainClientMessageISB_E15ProxyBaseObjectENS2_23InRawClientArgumentTypeILm4ELm4EvEENS2_24BufferClientArgumentTypeEj
 00000000:0000007100058080       _ZN2nn2sf4cmif6client34CmifDomainProxyClientCoreProcessorINS0_4hipc6client38Hipc2ClientSessionManagedProxyKindBaseINS5_18Hipc2ProxyKindBaseILNS4_6detail11MessageTypeE6EEEEENS1_6detail14CoreMethodInfoINSt3__15tupleIJNSC_18OutRawArgumentInfoILm4ELm4ELl4EEENSG_ILm1ELm1ELl0EEEEEELm0ELm8ELb0EEESJ_E7ProcessEPNS2_23CmifDomainClientMessageISB_E15ProxyBaseObjectENS2_24OutRawClientArgumentTypeILm4ELm4EEENSQ_ILm1ELm1EEEj
 00000000:00000071000581E0       _ZN2nn2sf4cmif6client32GetClientProcessorWithObjectBaseINS2_15CmifDomainProxyINS0_4hipc6client38Hipc2ClientSessionManagedProxyKindBaseINS6_18Hipc2ProxyKindBaseILNS5_6detail11MessageTypeE6EEEEEEEE14ObjectAssignerINS0_30MemoryResourceAllocationPolicyENS_14MemoryResourceEE14AllocateObjectINS_2am7service17IWindowControllerEEEvi
 00000000:0000007100058290       _ZN2nn2sf6detail38ObjectImplFactoryWithStatefulAllocatorINS0_4cmif6client16CmifProxyFactoryINS_2am7service17IWindowControllerENS4_15CmifDomainProxyINS0_4hipc6client38Hipc2ClientSessionManagedProxyKindBaseINSB_18Hipc2ProxyKindBaseILNSA_6detail11MessageTypeE6EEEEEEENS0_30MemoryResourceAllocationPolicyEE13ServiceObjectESJ_E6Object12AddReferenceEv
 00000000:00000071000582A0       _ZN2nn2sf6detail38ObjectImplFactoryWithStatefulAllocatorINS0_4cmif6client16CmifProxyFactoryINS_2am7service17IWindowControllerENS4_15CmifDomainProxyINS0_4hipc6client38Hipc2ClientSessionManagedProxyKindBaseINSB_18Hipc2ProxyKindBaseILNSA_6detail11MessageTypeE6EEEEEEENS0_30MemoryResourceAllocationPolicyEE13ServiceObjectESJ_E6Object7ReleaseEv
 00000000:0000007100058300       _ZN2nn2sf4cmif6client6detail13CmifProxyImplINS_2am7service17IWindowControllerENS2_15CmifDomainProxyINS0_4hipc6client38Hipc2ClientSessionManagedProxyKindBaseINSA_18Hipc2ProxyKindBaseILNS9_6detail11MessageTypeE6EEEEEEENS0_30MemoryResourceAllocationPolicyES7_E12GetProxyInfoEv
 00000000:0000007100058310       _ZN2nn2sf4cmif6client6detail13CmifProxyImplINS_2am7service17IWindowControllerENS2_15CmifDomainProxyINS0_4hipc6client38Hipc2ClientSessionManagedProxyKindBaseINSA_18Hipc2ProxyKindBaseILNS9_6detail11MessageTypeE6EEEEEEENS0_30MemoryResourceAllocationPolicyES7_E24_nn_sf_sync_CreateWindowENS0_3OutINS0_13SharedPointerINS6_7IWindowEEEvEENS6_20WindowCreationOptionE
 00000000:00000071000583C0       _ZN2nn2sf4cmif6client6detail13CmifProxyImplINS_2am7service17IWindowControllerENS2_15CmifDomainProxyINS0_4hipc6client38Hipc2ClientSessionManagedProxyKindBaseINSA_18Hipc2ProxyKindBaseILNS9_6detail11MessageTypeE6EEEEEEENS0_30MemoryResourceAllocationPolicyES7_E35_nn_sf_sync_GetAppletResourceUserIdENS0_3OutINS_6applet20AppletResourceUserIdEvEE
 00000000:00000071000583E0       _ZN2nn2sf4cmif6client6detail13CmifProxyImplINS_2am7service17IWindowControllerENS2_15CmifDomainProxyINS0_4hipc6client38Hipc2ClientSessionManagedProxyKindBaseINSA_18Hipc2ProxyKindBaseILNS9_6detail11MessageTypeE6EEEEEEENS0_30MemoryResourceAllocationPolicyES7_E49_nn_sf_sync_GetAppletResourceUserIdOfCallerAppletENS0_3OutINS_6applet20AppletResourceUserIdEvEE
 00000000:0000007100058400       _ZN2nn2sf4cmif6client6detail13CmifProxyImplINS_2am7service17IWindowControllerENS2_15CmifDomainProxyINS0_4hipc6client38Hipc2ClientSessionManagedProxyKindBaseINSA_18Hipc2ProxyKindBaseILNS9_6detail11MessageTypeE6EEEEEEENS0_30MemoryResourceAllocationPolicyES7_E35_nn_sf_sync_AcquireForegroundRightsEv
 00000000:0000007100058420       _ZN2nn2sf4cmif6client6detail13CmifProxyImplINS_2am7service17IWindowControllerENS2_15CmifDomainProxyINS0_4hipc6client38Hipc2ClientSessionManagedProxyKindBaseINSA_18Hipc2ProxyKindBaseILNS9_6detail11MessageTypeE6EEEEEEENS0_30MemoryResourceAllocationPolicyES7_E35_nn_sf_sync_ReleaseForegroundRightsEv
 00000000:0000007100058440       _ZN2nn2sf4cmif6client6detail13CmifProxyImplINS_2am7service17IWindowControllerENS2_15CmifDomainProxyINS0_4hipc6client38Hipc2ClientSessionManagedProxyKindBaseINSA_18Hipc2ProxyKindBaseILNS9_6detail11MessageTypeE6EEEEEEENS0_30MemoryResourceAllocationPolicyES7_E40_nn_sf_sync_RejectToChangeIntoBackgroundEv
 00000000:0000007100058460       _ZN2nn2sf4cmif6client6detail13CmifProxyImplINS_2am7service17IWindowControllerENS2_15CmifDomainProxyINS0_4hipc6client38Hipc2ClientSessionManagedProxyKindBaseINSA_18Hipc2ProxyKindBaseILNS9_6detail11MessageTypeE6EEEEEEENS0_30MemoryResourceAllocationPolicyES7_E17GetCmifBaseObjectEv
 00000000:0000007100058470       _ZThn32_N2nn2sf4cmif6client6detail13CmifProxyImplINS_2am7service17IWindowControllerENS2_15CmifDomainProxyINS0_4hipc6client38Hipc2ClientSessionManagedProxyKindBaseINSA_18Hipc2ProxyKindBaseILNS9_6detail11MessageTypeE6EEEEEEENS0_30MemoryResourceAllocationPolicyES7_E17GetCmifBaseObjectEv
 00000000:0000007100058480       _ZN2nn2sf4cmif6client32GetClientProcessorWithObjectBaseINS2_15CmifDomainProxyINS0_4hipc6client38Hipc2ClientSessionManagedProxyKindBaseINS6_18Hipc2ProxyKindBaseILNS5_6detail11MessageTypeE6EEEEEEEE14ObjectAssignerINS0_30MemoryResourceAllocationPolicyENS_14MemoryResourceEE14AllocateObjectINS_2am7service7IWindowEEEvi
 00000000:0000007100058530       _ZN2nn2sf6detail38ObjectImplFactoryWithStatefulAllocatorINS0_4cmif6client16CmifProxyFactoryINS_2am7service7IWindowENS4_15CmifDomainProxyINS0_4hipc6client38Hipc2ClientSessionManagedProxyKindBaseINSB_18Hipc2ProxyKindBaseILNSA_6detail11MessageTypeE6EEEEEEENS0_30MemoryResourceAllocationPolicyEE13ServiceObjectESJ_E6Object12AddReferenceEv
 00000000:0000007100058540       _ZN2nn2sf6detail38ObjectImplFactoryWithStatefulAllocatorINS0_4cmif6client16CmifProxyFactoryINS_2am7service7IWindowENS4_15CmifDomainProxyINS0_4hipc6client38Hipc2ClientSessionManagedProxyKindBaseINSB_18Hipc2ProxyKindBaseILNSA_6detail11MessageTypeE6EEEEEEENS0_30MemoryResourceAllocationPolicyEE13ServiceObjectESJ_E6Object7ReleaseEv
 00000000:00000071000585A0       _ZN2nn2sf4cmif6client6detail13CmifProxyImplINS_2am7service7IWindowENS2_15CmifDomainProxyINS0_4hipc6client38Hipc2ClientSessionManagedProxyKindBaseINSA_18Hipc2ProxyKindBaseILNS9_6detail11MessageTypeE6EEEEEEENS0_30MemoryResourceAllocationPolicyES7_E12GetProxyInfoEv
 00000000:00000071000585B0       _ZN2nn2sf4cmif6client6detail13CmifProxyImplINS_2am7service7IWindowENS2_15CmifDomainProxyINS0_4hipc6client38Hipc2ClientSessionManagedProxyKindBaseINSA_18Hipc2ProxyKindBaseILNS9_6detail11MessageTypeE6EEEEEEENS0_30MemoryResourceAllocationPolicyES7_E17GetCmifBaseObjectEv
 00000000:00000071000585C0       _ZThn32_N2nn2sf4cmif6client6detail13CmifProxyImplINS_2am7service7IWindowENS2_15CmifDomainProxyINS0_4hipc6client38Hipc2ClientSessionManagedProxyKindBaseINSA_18Hipc2ProxyKindBaseILNS9_6detail11MessageTypeE6EEEEEEENS0_30MemoryResourceAllocationPolicyES7_E17GetCmifBaseObjectEv
 00000000:00000071000585D0       _ZN2nn2sf4cmif6client32GetClientProcessorWithObjectBaseINS2_15CmifDomainProxyINS0_4hipc6client38Hipc2ClientSessionManagedProxyKindBaseINS6_18Hipc2ProxyKindBaseILNS5_6detail11MessageTypeE6EEEEEEEE14ObjectAssignerINS0_30MemoryResourceAllocationPolicyENS_14MemoryResourceEE14AllocateObjectINS_2am7service16IAudioControllerEEEvi
 00000000:0000007100058680       _ZN2nn2sf6detail38ObjectImplFactoryWithStatefulAllocatorINS0_4cmif6client16CmifProxyFactoryINS_2am7service16IAudioControllerENS4_15CmifDomainProxyINS0_4hipc6client38Hipc2ClientSessionManagedProxyKindBaseINSB_18Hipc2ProxyKindBaseILNSA_6detail11MessageTypeE6EEEEEEENS0_30MemoryResourceAllocationPolicyEE13ServiceObjectESJ_E6Object12AddReferenceEv
 00000000:0000007100058690       _ZN2nn2sf6detail38ObjectImplFactoryWithStatefulAllocatorINS0_4cmif6client16CmifProxyFactoryINS_2am7service16IAudioControllerENS4_15CmifDomainProxyINS0_4hipc6client38Hipc2ClientSessionManagedProxyKindBaseINSB_18Hipc2ProxyKindBaseILNSA_6detail11MessageTypeE6EEEEEEENS0_30MemoryResourceAllocationPolicyEE13ServiceObjectESJ_E6Object7ReleaseEv
 00000000:00000071000586F0       _ZN2nn2sf4cmif6client6detail13CmifProxyImplINS_2am7service16IAudioControllerENS2_15CmifDomainProxyINS0_4hipc6client38Hipc2ClientSessionManagedProxyKindBaseINSA_18Hipc2ProxyKindBaseILNS9_6detail11MessageTypeE6EEEEEEENS0_30MemoryResourceAllocationPolicyES7_E12GetProxyInfoEv
 00000000:0000007100058700       _ZN2nn2sf4cmif6client6detail13CmifProxyImplINS_2am7service16IAudioControllerENS2_15CmifDomainProxyINS0_4hipc6client38Hipc2ClientSessionManagedProxyKindBaseINSA_18Hipc2ProxyKindBaseILNS9_6detail11MessageTypeE6EEEEEEENS0_30MemoryResourceAllocationPolicyES7_E35_nn_sf_sync_SetExpectedMasterVolumeEff
 00000000:0000007100058730       _ZN2nn2sf4cmif6client6detail13CmifProxyImplINS_2am7service16IAudioControllerENS2_15CmifDomainProxyINS0_4hipc6client38Hipc2ClientSessionManagedProxyKindBaseINSA_18Hipc2ProxyKindBaseILNS9_6detail11MessageTypeE6EEEEEEENS0_30MemoryResourceAllocationPolicyES7_E45_nn_sf_sync_GetMainAppletExpectedMasterVolumeENS0_3OutIfvEE
 00000000:0000007100058750       _ZN2nn2sf4cmif6client6detail13CmifProxyImplINS_2am7service16IAudioControllerENS2_15CmifDomainProxyINS0_4hipc6client38Hipc2ClientSessionManagedProxyKindBaseINSA_18Hipc2ProxyKindBaseILNS9_6detail11MessageTypeE6EEEEEEENS0_30MemoryResourceAllocationPolicyES7_E48_nn_sf_sync_GetLibraryAppletExpectedMasterVolumeENS0_3OutIfvEE
 00000000:0000007100058770       _ZN2nn2sf4cmif6client6detail13CmifProxyImplINS_2am7service16IAudioControllerENS2_15CmifDomainProxyINS0_4hipc6client38Hipc2ClientSessionManagedProxyKindBaseINSA_18Hipc2ProxyKindBaseILNS9_6detail11MessageTypeE6EEEEEEENS0_30MemoryResourceAllocationPolicyES7_E40_nn_sf_sync_ChangeMainAppletMasterVolumeEfl
 00000000:00000071000587A0       _ZN2nn2sf4cmif6client6detail13CmifProxyImplINS_2am7service16IAudioControllerENS2_15CmifDomainProxyINS0_4hipc6client38Hipc2ClientSessionManagedProxyKindBaseINSA_18Hipc2ProxyKindBaseILNS9_6detail11MessageTypeE6EEEEEEENS0_30MemoryResourceAllocationPolicyES7_E36_nn_sf_sync_SetTransparentVolumeRateEf
 00000000:00000071000587D0       _ZN2nn2sf4cmif6client6detail13CmifProxyImplINS_2am7service16IAudioControllerENS2_15CmifDomainProxyINS0_4hipc6client38Hipc2ClientSessionManagedProxyKindBaseINSA_18Hipc2ProxyKindBaseILNS9_6detail11MessageTypeE6EEEEEEENS0_30MemoryResourceAllocationPolicyES7_E17GetCmifBaseObjectEv
 00000000:00000071000587E0       _ZThn32_N2nn2sf4cmif6client6detail13CmifProxyImplINS_2am7service16IAudioControllerENS2_15CmifDomainProxyINS0_4hipc6client38Hipc2ClientSessionManagedProxyKindBaseINSA_18Hipc2ProxyKindBaseILNS9_6detail11MessageTypeE6EEEEEEENS0_30MemoryResourceAllocationPolicyES7_E17GetCmifBaseObjectEv
 00000000:00000071000587F0       _ZN2nn2sf4cmif6client34CmifDomainProxyClientCoreProcessorINS0_4hipc6client38Hipc2ClientSessionManagedProxyKindBaseINS5_18Hipc2ProxyKindBaseILNS4_6detail11MessageTypeE6EEEEENS1_6detail14CoreMethodInfoINSt3__15tupleIJNSC_17InRawArgumentInfoILm4ELm4ELl0EEENSG_ILm4ELm4ELl4EEEEEELm8ELm0ELb0EEESJ_E7ProcessEPNS2_23CmifDomainClientMessageISB_E15ProxyBaseObjectENS2_23InRawClientArgumentTypeILm4ELm4EvEESR_j
 00000000:0000007100058940       _ZN2nn2sf4cmif6client32GetClientProcessorWithObjectBaseINS2_15CmifDomainProxyINS0_4hipc6client38Hipc2ClientSessionManagedProxyKindBaseINS6_18Hipc2ProxyKindBaseILNS5_6detail11MessageTypeE6EEEEEEEE14ObjectAssignerINS0_30MemoryResourceAllocationPolicyENS_14MemoryResourceEE14AllocateObjectINS_2am7service18IDisplayControllerEEEvi
 00000000:00000071000589F0       _ZN2nn2sf6detail38ObjectImplFactoryWithStatefulAllocatorINS0_4cmif6client16CmifProxyFactoryINS_2am7service18IDisplayControllerENS4_15CmifDomainProxyINS0_4hipc6client38Hipc2ClientSessionManagedProxyKindBaseINSB_18Hipc2ProxyKindBaseILNSA_6detail11MessageTypeE6EEEEEEENS0_30MemoryResourceAllocationPolicyEE13ServiceObjectESJ_E6Object12AddReferenceEv
 00000000:0000007100058A00       _ZN2nn2sf6detail38ObjectImplFactoryWithStatefulAllocatorINS0_4cmif6client16CmifProxyFactoryINS_2am7service18IDisplayControllerENS4_15CmifDomainProxyINS0_4hipc6client38Hipc2ClientSessionManagedProxyKindBaseINSB_18Hipc2ProxyKindBaseILNSA_6detail11MessageTypeE6EEEEEEENS0_30MemoryResourceAllocationPolicyEE13ServiceObjectESJ_E6Object7ReleaseEv
 00000000:0000007100058A60       _ZN2nn2sf4cmif6client6detail13CmifProxyImplINS_2am7service18IDisplayControllerENS2_15CmifDomainProxyINS0_4hipc6client38Hipc2ClientSessionManagedProxyKindBaseINSA_18Hipc2ProxyKindBaseILNS9_6detail11MessageTypeE6EEEEEEENS0_30MemoryResourceAllocationPolicyES7_E12GetProxyInfoEv
 00000000:0000007100058A70       _ZN2nn2sf4cmif6client6detail13CmifProxyImplINS_2am7service18IDisplayControllerENS2_15CmifDomainProxyINS0_4hipc6client38Hipc2ClientSessionManagedProxyKindBaseINSA_18Hipc2ProxyKindBaseILNS9_6detail11MessageTypeE6EEEEEEENS0_30MemoryResourceAllocationPolicyES7_E41_nn_sf_sync_GetLastForegroundCaptureImageERKNS0_9OutBufferE
 00000000:0000007100058AA0       _ZN2nn2sf4cmif6client6detail13CmifProxyImplINS_2am7service18IDisplayControllerENS2_15CmifDomainProxyINS0_4hipc6client38Hipc2ClientSessionManagedProxyKindBaseINSA_18Hipc2ProxyKindBaseILNS9_6detail11MessageTypeE6EEEEEEENS0_30MemoryResourceAllocationPolicyES7_E44_nn_sf_sync_UpdateLastForegroundCaptureImageEv
 00000000:0000007100058AC0       _ZN2nn2sf4cmif6client6detail13CmifProxyImplINS_2am7service18IDisplayControllerENS2_15CmifDomainProxyINS0_4hipc6client38Hipc2ClientSessionManagedProxyKindBaseINSA_18Hipc2ProxyKindBaseILNS9_6detail11MessageTypeE6EEEEEEENS0_30MemoryResourceAllocationPolicyES7_E42_nn_sf_sync_GetLastApplicationCaptureImageERKNS0_9OutBufferE
 00000000:0000007100058AF0       _ZN2nn2sf4cmif6client6detail13CmifProxyImplINS_2am7service18IDisplayControllerENS2_15CmifDomainProxyINS0_4hipc6client38Hipc2ClientSessionManagedProxyKindBaseINSA_18Hipc2ProxyKindBaseILNS9_6detail11MessageTypeE6EEEEEEENS0_30MemoryResourceAllocationPolicyES7_E39_nn_sf_sync_GetCallerAppletCaptureImageERKNS0_9OutBufferE
 00000000:0000007100058B20       _ZN2nn2sf4cmif6client6detail13CmifProxyImplINS_2am7service18IDisplayControllerENS2_15CmifDomainProxyINS0_4hipc6client38Hipc2ClientSessionManagedProxyKindBaseINSA_18Hipc2ProxyKindBaseILNS9_6detail11MessageTypeE6EEEEEEENS0_30MemoryResourceAllocationPolicyES7_E42_nn_sf_sync_UpdateCallerAppletCaptureImageEv
 00000000:0000007100058B40       _ZN2nn2sf4cmif6client6detail13CmifProxyImplINS_2am7service18IDisplayControllerENS2_15CmifDomainProxyINS0_4hipc6client38Hipc2ClientSessionManagedProxyKindBaseINSA_18Hipc2ProxyKindBaseILNS9_6detail11MessageTypeE6EEEEEEENS0_30MemoryResourceAllocationPolicyES7_E43_nn_sf_sync_GetLastForegroundCaptureImageExENS0_3OutIbvEERKNS0_9OutBufferE
 00000000:0000007100058B70       _ZN2nn2sf4cmif6client6detail13CmifProxyImplINS_2am7service18IDisplayControllerENS2_15CmifDomainProxyINS0_4hipc6client38Hipc2ClientSessionManagedProxyKindBaseINSA_18Hipc2ProxyKindBaseILNS9_6detail11MessageTypeE6EEEEEEENS0_30MemoryResourceAllocationPolicyES7_E44_nn_sf_sync_GetLastApplicationCaptureImageExENS0_3OutIbvEERKNS0_9OutBufferE
 00000000:0000007100058BA0       _ZN2nn2sf4cmif6client6detail13CmifProxyImplINS_2am7service18IDisplayControllerENS2_15CmifDomainProxyINS0_4hipc6client38Hipc2ClientSessionManagedProxyKindBaseINSA_18Hipc2ProxyKindBaseILNS9_6detail11MessageTypeE6EEEEEEENS0_30MemoryResourceAllocationPolicyES7_E41_nn_sf_sync_GetCallerAppletCaptureImageExENS0_3OutIbvEERKNS0_9OutBufferE
 00000000:0000007100058BD0       _ZN2nn2sf4cmif6client6detail13CmifProxyImplINS_2am7service18IDisplayControllerENS2_15CmifDomainProxyINS0_4hipc6client38Hipc2ClientSessionManagedProxyKindBaseINSA_18Hipc2ProxyKindBaseILNS9_6detail11MessageTypeE6EEEEEEENS0_30MemoryResourceAllocationPolicyES7_E36_nn_sf_sync_TakeScreenShotOfOwnLayerEib
 00000000:0000007100058C00       _ZN2nn2sf4cmif6client6detail13CmifProxyImplINS_2am7service18IDisplayControllerENS2_15CmifDomainProxyINS0_4hipc6client38Hipc2ClientSessionManagedProxyKindBaseINSA_18Hipc2ProxyKindBaseILNS9_6detail11MessageTypeE6EEEEEEENS0_30MemoryResourceAllocationPolicyES7_E37_nn_sf_sync_CopyBetweenCaptureBuffersEii
 00000000:0000007100058C30       _ZN2nn2sf4cmif6client6detail13CmifProxyImplINS_2am7service18IDisplayControllerENS2_15CmifDomainProxyINS0_4hipc6client38Hipc2ClientSessionManagedProxyKindBaseINSA_18Hipc2ProxyKindBaseILNS9_6detail11MessageTypeE6EEEEEEENS0_30MemoryResourceAllocationPolicyES7_E47_nn_sf_sync_AcquireLastApplicationCaptureBufferENS0_3OutINS0_12NativeHandleEvEE
 00000000:0000007100058C50       _ZN2nn2sf4cmif6client6detail13CmifProxyImplINS_2am7service18IDisplayControllerENS2_15CmifDomainProxyINS0_4hipc6client38Hipc2ClientSessionManagedProxyKindBaseINSA_18Hipc2ProxyKindBaseILNS9_6detail11MessageTypeE6EEEEEEENS0_30MemoryResourceAllocationPolicyES7_E47_nn_sf_sync_ReleaseLastApplicationCaptureBufferEv
 00000000:0000007100058C70       _ZN2nn2sf4cmif6client6detail13CmifProxyImplINS_2am7service18IDisplayControllerENS2_15CmifDomainProxyINS0_4hipc6client38Hipc2ClientSessionManagedProxyKindBaseINSA_18Hipc2ProxyKindBaseILNS9_6detail11MessageTypeE6EEEEEEENS0_30MemoryResourceAllocationPolicyES7_E46_nn_sf_sync_AcquireLastForegroundCaptureBufferENS0_3OutINS0_12NativeHandleEvEE
 00000000:0000007100058C90       _ZN2nn2sf4cmif6client6detail13CmifProxyImplINS_2am7service18IDisplayControllerENS2_15CmifDomainProxyINS0_4hipc6client38Hipc2ClientSessionManagedProxyKindBaseINSA_18Hipc2ProxyKindBaseILNS9_6detail11MessageTypeE6EEEEEEENS0_30MemoryResourceAllocationPolicyES7_E46_nn_sf_sync_ReleaseLastForegroundCaptureBufferEv
 00000000:0000007100058CB0       _ZN2nn2sf4cmif6client6detail13CmifProxyImplINS_2am7service18IDisplayControllerENS2_15CmifDomainProxyINS0_4hipc6client38Hipc2ClientSessionManagedProxyKindBaseINSA_18Hipc2ProxyKindBaseILNS9_6detail11MessageTypeE6EEEEEEENS0_30MemoryResourceAllocationPolicyES7_E44_nn_sf_sync_AcquireCallerAppletCaptureBufferENS0_3OutINS0_12NativeHandleEvEE
 00000000:0000007100058CD0       _ZN2nn2sf4cmif6client6detail13CmifProxyImplINS_2am7service18IDisplayControllerENS2_15CmifDomainProxyINS0_4hipc6client38Hipc2ClientSessionManagedProxyKindBaseINSA_18Hipc2ProxyKindBaseILNS9_6detail11MessageTypeE6EEEEEEENS0_30MemoryResourceAllocationPolicyES7_E44_nn_sf_sync_ReleaseCallerAppletCaptureBufferEv
 00000000:0000007100058CF0       _ZN2nn2sf4cmif6client6detail13CmifProxyImplINS_2am7service18IDisplayControllerENS2_15CmifDomainProxyINS0_4hipc6client38Hipc2ClientSessionManagedProxyKindBaseINSA_18Hipc2ProxyKindBaseILNS9_6detail11MessageTypeE6EEEEEEENS0_30MemoryResourceAllocationPolicyES7_E49_nn_sf_sync_AcquireLastApplicationCaptureBufferExENS0_3OutIbvEENSK_INS0_12NativeHandleEvEE
 00000000:0000007100058D10       _ZN2nn2sf4cmif6client6detail13CmifProxyImplINS_2am7service18IDisplayControllerENS2_15CmifDomainProxyINS0_4hipc6client38Hipc2ClientSessionManagedProxyKindBaseINSA_18Hipc2ProxyKindBaseILNS9_6detail11MessageTypeE6EEEEEEENS0_30MemoryResourceAllocationPolicyES7_E48_nn_sf_sync_AcquireLastForegroundCaptureBufferExENS0_3OutIbvEENSK_INS0_12NativeHandleEvEE
 00000000:0000007100058D30       _ZN2nn2sf4cmif6client6detail13CmifProxyImplINS_2am7service18IDisplayControllerENS2_15CmifDomainProxyINS0_4hipc6client38Hipc2ClientSessionManagedProxyKindBaseINSA_18Hipc2ProxyKindBaseILNS9_6detail11MessageTypeE6EEEEEEENS0_30MemoryResourceAllocationPolicyES7_E46_nn_sf_sync_AcquireCallerAppletCaptureBufferExENS0_3OutIbvEENSK_INS0_12NativeHandleEvEE
 00000000:0000007100058D50       _ZN2nn2sf4cmif6client6detail13CmifProxyImplINS_2am7service18IDisplayControllerENS2_15CmifDomainProxyINS0_4hipc6client38Hipc2ClientSessionManagedProxyKindBaseINSA_18Hipc2ProxyKindBaseILNS9_6detail11MessageTypeE6EEEEEEENS0_30MemoryResourceAllocationPolicyES7_E30_nn_sf_sync_ClearCaptureBufferEibj
 00000000:0000007100058D80       _ZN2nn2sf4cmif6client6detail13CmifProxyImplINS_2am7service18IDisplayControllerENS2_15CmifDomainProxyINS0_4hipc6client38Hipc2ClientSessionManagedProxyKindBaseINSA_18Hipc2ProxyKindBaseILNS9_6detail11MessageTypeE6EEEEEEENS0_30MemoryResourceAllocationPolicyES7_E39_nn_sf_sync_ClearAppletTransitionBufferEj
 00000000:0000007100058DB0       _ZN2nn2sf4cmif6client6detail13CmifProxyImplINS_2am7service18IDisplayControllerENS2_15CmifDomainProxyINS0_4hipc6client38Hipc2ClientSessionManagedProxyKindBaseINSA_18Hipc2ProxyKindBaseILNS9_6detail11MessageTypeE6EEEEEEENS0_30MemoryResourceAllocationPolicyES7_E53_nn_sf_sync_AcquireLastApplicationCaptureSharedBufferENS0_3OutIbvEENSK_IivEE
 00000000:0000007100058DD0       _ZN2nn2sf4cmif6client6detail13CmifProxyImplINS_2am7service18IDisplayControllerENS2_15CmifDomainProxyINS0_4hipc6client38Hipc2ClientSessionManagedProxyKindBaseINSA_18Hipc2ProxyKindBaseILNS9_6detail11MessageTypeE6EEEEEEENS0_30MemoryResourceAllocationPolicyES7_E53_nn_sf_sync_ReleaseLastApplicationCaptureSharedBufferEv
 00000000:0000007100058DF0       _ZN2nn2sf4cmif6client6detail13CmifProxyImplINS_2am7service18IDisplayControllerENS2_15CmifDomainProxyINS0_4hipc6client38Hipc2ClientSessionManagedProxyKindBaseINSA_18Hipc2ProxyKindBaseILNS9_6detail11MessageTypeE6EEEEEEENS0_30MemoryResourceAllocationPolicyES7_E52_nn_sf_sync_AcquireLastForegroundCaptureSharedBufferENS0_3OutIbvEENSK_IivEE
 00000000:0000007100058E10       _ZN2nn2sf4cmif6client6detail13CmifProxyImplINS_2am7service18IDisplayControllerENS2_15CmifDomainProxyINS0_4hipc6client38Hipc2ClientSessionManagedProxyKindBaseINSA_18Hipc2ProxyKindBaseILNS9_6detail11MessageTypeE6EEEEEEENS0_30MemoryResourceAllocationPolicyES7_E52_nn_sf_sync_ReleaseLastForegroundCaptureSharedBufferEv
 00000000:0000007100058E30       _ZN2nn2sf4cmif6client6detail13CmifProxyImplINS_2am7service18IDisplayControllerENS2_15CmifDomainProxyINS0_4hipc6client38Hipc2ClientSessionManagedProxyKindBaseINSA_18Hipc2ProxyKindBaseILNS9_6detail11MessageTypeE6EEEEEEENS0_30MemoryResourceAllocationPolicyES7_E50_nn_sf_sync_AcquireCallerAppletCaptureSharedBufferENS0_3OutIbvEENSK_IivEE
 00000000:0000007100058E50       _ZN2nn2sf4cmif6client6detail13CmifProxyImplINS_2am7service18IDisplayControllerENS2_15CmifDomainProxyINS0_4hipc6client38Hipc2ClientSessionManagedProxyKindBaseINSA_18Hipc2ProxyKindBaseILNS9_6detail11MessageTypeE6EEEEEEENS0_30MemoryResourceAllocationPolicyES7_E50_nn_sf_sync_ReleaseCallerAppletCaptureSharedBufferEv
 00000000:0000007100058E70       _ZN2nn2sf4cmif6client6detail13CmifProxyImplINS_2am7service18IDisplayControllerENS2_15CmifDomainProxyINS0_4hipc6client38Hipc2ClientSessionManagedProxyKindBaseINSA_18Hipc2ProxyKindBaseILNS9_6detail11MessageTypeE6EEEEEEENS0_30MemoryResourceAllocationPolicyES7_E38_nn_sf_sync_TakeScreenShotOfOwnLayerExEibb
 00000000:0000007100058EA0       _ZN2nn2sf4cmif6client6detail13CmifProxyImplINS_2am7service18IDisplayControllerENS2_15CmifDomainProxyINS0_4hipc6client38Hipc2ClientSessionManagedProxyKindBaseINSA_18Hipc2ProxyKindBaseILNS9_6detail11MessageTypeE6EEEEEEENS0_30MemoryResourceAllocationPolicyES7_E17GetCmifBaseObjectEv
 00000000:0000007100058EB0       _ZThn32_N2nn2sf4cmif6client6detail13CmifProxyImplINS_2am7service18IDisplayControllerENS2_15CmifDomainProxyINS0_4hipc6client38Hipc2ClientSessionManagedProxyKindBaseINSA_18Hipc2ProxyKindBaseILNS9_6detail11MessageTypeE6EEEEEEENS0_30MemoryResourceAllocationPolicyES7_E17GetCmifBaseObjectEv
 00000000:0000007100058EC0       _ZN2nn2sf4cmif6client34CmifDomainProxyClientCoreProcessorINS0_4hipc6client38Hipc2ClientSessionManagedProxyKindBaseINS5_18Hipc2ProxyKindBaseILNS4_6detail11MessageTypeE6EEEEENS1_6detail14CoreMethodInfoINSt3__15tupleIJNSC_18OutRawArgumentInfoILm1ELm1ELl0EEENSC_18BufferArgumentInfoILi0ELi6ELm0EEEEEELm0ELm1ELb0EEESK_E7ProcessEPNS2_23CmifDomainClientMessageISB_E15ProxyBaseObjectENS2_24OutRawClientArgumentTypeILm1ELm1EEENS2_24BufferClientArgumentTypeEj
 00000000:00000071000590E0       _ZN2nn2sf4cmif6client34CmifDomainProxyClientCoreProcessorINS0_4hipc6client38Hipc2ClientSessionManagedProxyKindBaseINS5_18Hipc2ProxyKindBaseILNS4_6detail11MessageTypeE6EEEEENS1_6detail14CoreMethodInfoINSt3__15tupleIJNSC_17InRawArgumentInfoILm4ELm4ELl4EEENSG_ILm1ELm1ELl0EEEEEELm8ELm0ELb0EEESJ_E7ProcessEPNS2_23CmifDomainClientMessageISB_E15ProxyBaseObjectENS2_23InRawClientArgumentTypeILm4ELm4EvEENSQ_ILm1ELm1EvEEj
 00000000:0000007100059230       _ZN2nn2sf4cmif6client34CmifDomainProxyClientCoreProcessorINS0_4hipc6client38Hipc2ClientSessionManagedProxyKindBaseINS5_18Hipc2ProxyKindBaseILNS4_6detail11MessageTypeE6EEEEENS1_6detail14CoreMethodInfoINSt3__15tupleIJNSC_18OutRawArgumentInfoILm1ELm1ELl0EEENSC_21OutHandleArgumentInfoILi0ELi1EEEEEELm0ELm1ELb0EEESK_E7ProcessEPNS2_23CmifDomainClientMessageISB_E15ProxyBaseObjectENS2_24OutRawClientArgumentTypeILm1ELm1EEENS2_27OutHandleClientArgumentTypeEj
 00000000:00000071000593B0       _ZN2nn2sf4cmif6client34CmifDomainProxyClientCoreProcessorINS0_4hipc6client38Hipc2ClientSessionManagedProxyKindBaseINS5_18Hipc2ProxyKindBaseILNS4_6detail11MessageTypeE6EEEEENS1_6detail14CoreMethodInfoINSt3__15tupleIJNSC_17InRawArgumentInfoILm4ELm4ELl4EEENSG_ILm1ELm1ELl0EEENSG_ILm4ELm4ELl8EEEEEELm12ELm0ELb0EEESK_E7ProcessEPNS2_23CmifDomainClientMessageISB_E15ProxyBaseObjectENS2_23InRawClientArgumentTypeILm4ELm4EvEENSR_ILm1ELm1EvEESS_j
 00000000:0000007100059510       _ZN2nn2sf4cmif6client34CmifDomainProxyClientCoreProcessorINS0_4hipc6client38Hipc2ClientSessionManagedProxyKindBaseINS5_18Hipc2ProxyKindBaseILNS4_6detail11MessageTypeE6EEEEENS1_6detail14CoreMethodInfoINSt3__15tupleIJNSC_18OutRawArgumentInfoILm1ELm1ELl0EEENSG_ILm4ELm4ELl4EEEEEELm0ELm8ELb0EEESJ_E7ProcessEPNS2_23CmifDomainClientMessageISB_E15ProxyBaseObjectENS2_24OutRawClientArgumentTypeILm1ELm1EEENSQ_ILm4ELm4EEEj
 00000000:0000007100059670       _ZN2nn2sf4cmif6client34CmifDomainProxyClientCoreProcessorINS0_4hipc6client38Hipc2ClientSessionManagedProxyKindBaseINS5_18Hipc2ProxyKindBaseILNS4_6detail11MessageTypeE6EEEEENS1_6detail14CoreMethodInfoINSt3__15tupleIJNSC_17InRawArgumentInfoILm4ELm4ELl4EEENSG_ILm1ELm1ELl0EEENSG_ILm1ELm1ELl1EEEEEELm8ELm0ELb0EEESK_E7ProcessEPNS2_23CmifDomainClientMessageISB_E15ProxyBaseObjectENS2_23InRawClientArgumentTypeILm4ELm4EvEENSR_ILm1ELm1EvEEST_j
 00000000:00000071000597D0       _ZN2nn2sf4cmif6client32GetClientProcessorWithObjectBaseINS2_15CmifDomainProxyINS0_4hipc6client38Hipc2ClientSessionManagedProxyKindBaseINS6_18Hipc2ProxyKindBaseILNS5_6detail11MessageTypeE6EEEEEEEE14ObjectAssignerINS0_30MemoryResourceAllocationPolicyENS_14MemoryResourceEE14AllocateObjectINS_2am7service15IDebugFunctionsEEEvi
 00000000:0000007100059880       _ZN2nn2sf6detail38ObjectImplFactoryWithStatefulAllocatorINS0_4cmif6client16CmifProxyFactoryINS_2am7service15IDebugFunctionsENS4_15CmifDomainProxyINS0_4hipc6client38Hipc2ClientSessionManagedProxyKindBaseINSB_18Hipc2ProxyKindBaseILNSA_6detail11MessageTypeE6EEEEEEENS0_30MemoryResourceAllocationPolicyEE13ServiceObjectESJ_E6Object12AddReferenceEv
 00000000:0000007100059890       _ZN2nn2sf6detail38ObjectImplFactoryWithStatefulAllocatorINS0_4cmif6client16CmifProxyFactoryINS_2am7service15IDebugFunctionsENS4_15CmifDomainProxyINS0_4hipc6client38Hipc2ClientSessionManagedProxyKindBaseINSB_18Hipc2ProxyKindBaseILNSA_6detail11MessageTypeE6EEEEEEENS0_30MemoryResourceAllocationPolicyEE13ServiceObjectESJ_E6Object7ReleaseEv
 00000000:00000071000598F0       _ZN2nn2sf4cmif6client6detail13CmifProxyImplINS_2am7service15IDebugFunctionsENS2_15CmifDomainProxyINS0_4hipc6client38Hipc2ClientSessionManagedProxyKindBaseINSA_18Hipc2ProxyKindBaseILNS9_6detail11MessageTypeE6EEEEEEENS0_30MemoryResourceAllocationPolicyES7_E12GetProxyInfoEv
 00000000:0000007100059900       _ZN2nn2sf4cmif6client6detail13CmifProxyImplINS_2am7service15IDebugFunctionsENS2_15CmifDomainProxyINS0_4hipc6client38Hipc2ClientSessionManagedProxyKindBaseINSA_18Hipc2ProxyKindBaseILNS9_6detail11MessageTypeE6EEEEEEENS0_30MemoryResourceAllocationPolicyES7_E43_nn_sf_sync_NotifyMessageToHomeMenuForDebugENS5_13AppletMessageE
 00000000:0000007100059930       _ZN2nn2sf4cmif6client6detail13CmifProxyImplINS_2am7service15IDebugFunctionsENS2_15CmifDomainProxyINS0_4hipc6client38Hipc2ClientSessionManagedProxyKindBaseINSA_18Hipc2ProxyKindBaseILNS9_6detail11MessageTypeE6EEEEEEENS0_30MemoryResourceAllocationPolicyES7_E31_nn_sf_sync_OpenMainApplicationENS0_3OutINS0_13SharedPointerINS6_20IApplicationAccessorEEEvEE
 00000000:00000071000599D0       _ZN2nn2sf4cmif6client6detail13CmifProxyImplINS_2am7service15IDebugFunctionsENS2_15CmifDomainProxyINS0_4hipc6client38Hipc2ClientSessionManagedProxyKindBaseINSA_18Hipc2ProxyKindBaseILNS9_6detail11MessageTypeE6EEEEEEENS0_30MemoryResourceAllocationPolicyES7_E39_nn_sf_sync_PerformSystemButtonPressingENS6_16SystemButtonTypeE
 00000000:0000007100059A00       _ZN2nn2sf4cmif6client6detail13CmifProxyImplINS_2am7service15IDebugFunctionsENS2_15CmifDomainProxyINS0_4hipc6client38Hipc2ClientSessionManagedProxyKindBaseINSA_18Hipc2ProxyKindBaseILNS9_6detail11MessageTypeE6EEEEEEENS0_30MemoryResourceAllocationPolicyES7_E37_nn_sf_sync_InvalidateTransitionLayerEv
 00000000:0000007100059A20       _ZN2nn2sf4cmif6client6detail13CmifProxyImplINS_2am7service15IDebugFunctionsENS2_15CmifDomainProxyINS0_4hipc6client38Hipc2ClientSessionManagedProxyKindBaseINSA_18Hipc2ProxyKindBaseILNS9_6detail11MessageTypeE6EEEEEEENS0_30MemoryResourceAllocationPolicyES7_E63_nn_sf_sync_RequestLaunchApplicationWithUserAndArgumentForDebugENS_3ncm13ApplicationIdERKNS0_7InArrayINS_7account3UidEEEbRKNS0_8InBufferE
 00000000:0000007100059A60       _ZN2nn2sf4cmif6client6detail13CmifProxyImplINS_2am7service15IDebugFunctionsENS2_15CmifDomainProxyINS0_4hipc6client38Hipc2ClientSessionManagedProxyKindBaseINSA_18Hipc2ProxyKindBaseILNS9_6detail11MessageTypeE6EEEEEEENS0_30MemoryResourceAllocationPolicyES7_E38_nn_sf_sync_GetAppletResourceUsageInfoENS0_3OutINS6_23AppletResourceUsageInfoEvEE
 00000000:0000007100059A80       _ZN2nn2sf4cmif6client6detail13CmifProxyImplINS_2am7service15IDebugFunctionsENS2_15CmifDomainProxyINS0_4hipc6client38Hipc2ClientSessionManagedProxyKindBaseINSA_18Hipc2ProxyKindBaseILNS9_6detail11MessageTypeE6EEEEEEENS0_30MemoryResourceAllocationPolicyES7_E17GetCmifBaseObjectEv
 00000000:0000007100059A90       _ZThn32_N2nn2sf4cmif6client6detail13CmifProxyImplINS_2am7service15IDebugFunctionsENS2_15CmifDomainProxyINS0_4hipc6client38Hipc2ClientSessionManagedProxyKindBaseINSA_18Hipc2ProxyKindBaseILNS9_6detail11MessageTypeE6EEEEEEENS0_30MemoryResourceAllocationPolicyES7_E17GetCmifBaseObjectEv
 00000000:0000007100059AA0       _ZN2nn2sf4cmif6client32GetClientProcessorWithObjectBaseINS2_15CmifDomainProxyINS0_4hipc6client38Hipc2ClientSessionManagedProxyKindBaseINS6_18Hipc2ProxyKindBaseILNS5_6detail11MessageTypeE6EEEEEEEE14ObjectAssignerINS0_30MemoryResourceAllocationPolicyENS_14MemoryResourceEE14AllocateObjectINS_2am7service20IApplicationAccessorEEEvi
 00000000:0000007100059B50       _ZN2nn2sf6detail38ObjectImplFactoryWithStatefulAllocatorINS0_4cmif6client16CmifProxyFactoryINS_2am7service20IApplicationAccessorENS4_15CmifDomainProxyINS0_4hipc6client38Hipc2ClientSessionManagedProxyKindBaseINSB_18Hipc2ProxyKindBaseILNSA_6detail11MessageTypeE6EEEEEEENS0_30MemoryResourceAllocationPolicyEE13ServiceObjectESJ_E6Object12AddReferenceEv
 00000000:0000007100059B60       _ZN2nn2sf6detail38ObjectImplFactoryWithStatefulAllocatorINS0_4cmif6client16CmifProxyFactoryINS_2am7service20IApplicationAccessorENS4_15CmifDomainProxyINS0_4hipc6client38Hipc2ClientSessionManagedProxyKindBaseINSB_18Hipc2ProxyKindBaseILNSA_6detail11MessageTypeE6EEEEEEENS0_30MemoryResourceAllocationPolicyEE13ServiceObjectESJ_E6Object7ReleaseEv
 00000000:0000007100059BC0       _ZN2nn2sf4cmif6client6detail13CmifProxyImplINS_2am7service15IAppletAccessorENS2_15CmifDomainProxyINS0_4hipc6client38Hipc2ClientSessionManagedProxyKindBaseINSA_18Hipc2ProxyKindBaseILNS9_6detail11MessageTypeE6EEEEEEENS0_30MemoryResourceAllocationPolicyENS6_20IApplicationAccessorEE12GetProxyInfoEv
 00000000:0000007100059BD0       _ZN2nn2sf4cmif6client6detail13CmifProxyImplINS_2am7service15IAppletAccessorENS2_15CmifDomainProxyINS0_4hipc6client38Hipc2ClientSessionManagedProxyKindBaseINSA_18Hipc2ProxyKindBaseILNS9_6detail11MessageTypeE6EEEEEEENS0_30MemoryResourceAllocationPolicyENS6_20IApplicationAccessorEE38_nn_sf_sync_GetIntegratedAppletPointerENS0_3OutINSt3__110shared_ptrINS6_16IntegratedAppletEEEvEE
 00000000:0000007100059BF0       _ZN2nn2sf4cmif6client6detail13CmifProxyImplINS_2am7service15IAppletAccessorENS2_15CmifDomainProxyINS0_4hipc6client38Hipc2ClientSessionManagedProxyKindBaseINSA_18Hipc2ProxyKindBaseILNS9_6detail11MessageTypeE6EEEEEEENS0_30MemoryResourceAllocationPolicyENS6_20IApplicationAccessorEE38_nn_sf_sync_GetAppletStateChangedEventENS0_3OutINS0_12NativeHandleEvEE
 00000000:0000007100059C10       _ZN2nn2sf4cmif6client6detail13CmifProxyImplINS_2am7service15IAppletAccessorENS2_15CmifDomainProxyINS0_4hipc6client38Hipc2ClientSessionManagedProxyKindBaseINSA_18Hipc2ProxyKindBaseILNS9_6detail11MessageTypeE6EEEEEEENS0_30MemoryResourceAllocationPolicyENS6_20IApplicationAccessorEE23_nn_sf_sync_IsCompletedENS0_3OutIbvEE
 00000000:0000007100059C30       _ZN2nn2sf4cmif6client6detail13CmifProxyImplINS_2am7service15IAppletAccessorENS2_15CmifDomainProxyINS0_4hipc6client38Hipc2ClientSessionManagedProxyKindBaseINSA_18Hipc2ProxyKindBaseILNS9_6detail11MessageTypeE6EEEEEEENS0_30MemoryResourceAllocationPolicyENS6_20IApplicationAccessorEE17_nn_sf_sync_StartEv
 00000000:0000007100059C50       _ZN2nn2sf4cmif6client6detail13CmifProxyImplINS_2am7service15IAppletAccessorENS2_15CmifDomainProxyINS0_4hipc6client38Hipc2ClientSessionManagedProxyKindBaseINSA_18Hipc2ProxyKindBaseILNS9_6detail11MessageTypeE6EEEEEEENS0_30MemoryResourceAllocationPolicyENS6_20IApplicationAccessorEE23_nn_sf_sync_RequestExitEv
 00000000:0000007100059C70       _ZN2nn2sf4cmif6client6detail13CmifProxyImplINS_2am7service15IAppletAccessorENS2_15CmifDomainProxyINS0_4hipc6client38Hipc2ClientSessionManagedProxyKindBaseINSA_18Hipc2ProxyKindBaseILNS9_6detail11MessageTypeE6EEEEEEENS0_30MemoryResourceAllocationPolicyENS6_20IApplicationAccessorEE21_nn_sf_sync_TerminateEv
 00000000:0000007100059C90       _ZN2nn2sf4cmif6client6detail13CmifProxyImplINS_2am7service15IAppletAccessorENS2_15CmifDomainProxyINS0_4hipc6client38Hipc2ClientSessionManagedProxyKindBaseINSA_18Hipc2ProxyKindBaseILNS9_6detail11MessageTypeE6EEEEEEENS0_30MemoryResourceAllocationPolicyENS6_20IApplicationAccessorEE21_nn_sf_sync_GetResultEv
 00000000:0000007100059CB0       _ZN2nn2sf4cmif6client6detail13CmifProxyImplINS_2am7service20IApplicationAccessorENS2_15CmifDomainProxyINS0_4hipc6client38Hipc2ClientSessionManagedProxyKindBaseINSA_18Hipc2ProxyKindBaseILNS9_6detail11MessageTypeE6EEEEEEENS0_30MemoryResourceAllocationPolicyES7_E48_nn_sf_sync_RequestForApplicationToGetForegroundEv
 00000000:0000007100059CD0       _ZN2nn2sf4cmif6client6detail13CmifProxyImplINS_2am7service20IApplicationAccessorENS2_15CmifDomainProxyINS0_4hipc6client38Hipc2ClientSessionManagedProxyKindBaseINSA_18Hipc2ProxyKindBaseILNS9_6detail11MessageTypeE6EEEEEEENS0_30MemoryResourceAllocationPolicyES7_E38_nn_sf_sync_TerminateAllLibraryAppletsEv
 00000000:0000007100059CF0       _ZN2nn2sf4cmif6client6detail13CmifProxyImplINS_2am7service20IApplicationAccessorENS2_15CmifDomainProxyINS0_4hipc6client38Hipc2ClientSessionManagedProxyKindBaseINSA_18Hipc2ProxyKindBaseILNS9_6detail11MessageTypeE6EEEEEEENS0_30MemoryResourceAllocationPolicyES7_E36_nn_sf_sync_AreAnyLibraryAppletsLeftENS0_3OutIbvEE
 00000000:0000007100059D10       _ZN2nn2sf4cmif6client6detail13CmifProxyImplINS_2am7service20IApplicationAccessorENS2_15CmifDomainProxyINS0_4hipc6client38Hipc2ClientSessionManagedProxyKindBaseINSA_18Hipc2ProxyKindBaseILNS9_6detail11MessageTypeE6EEEEEEENS0_30MemoryResourceAllocationPolicyES7_E35_nn_sf_sync_GetCurrentLibraryAppletENS0_3OutINS0_13SharedPointerINS6_15IAppletAccessorEEEvEE
 00000000:0000007100059DB0       _ZN2nn2sf4cmif6client6detail13CmifProxyImplINS_2am7service20IApplicationAccessorENS2_15CmifDomainProxyINS0_4hipc6client38Hipc2ClientSessionManagedProxyKindBaseINSA_18Hipc2ProxyKindBaseILNS9_6detail11MessageTypeE6EEEEEEENS0_30MemoryResourceAllocationPolicyES7_E28_nn_sf_sync_GetApplicationIdENS0_3OutINS_3ncm13ApplicationIdEvEE
 00000000:0000007100059DD0       _ZN2nn2sf4cmif6client6detail13CmifProxyImplINS_2am7service20IApplicationAccessorENS2_15CmifDomainProxyINS0_4hipc6client38Hipc2ClientSessionManagedProxyKindBaseINSA_18Hipc2ProxyKindBaseILNS9_6detail11MessageTypeE6EEEEEEENS0_30MemoryResourceAllocationPolicyES7_E31_nn_sf_sync_PushLaunchParameterEjNS0_13SharedPointerINS6_8IStorageEEE
 00000000:0000007100059E20       _ZN2nn2sf4cmif6client6detail13CmifProxyImplINS_2am7service20IApplicationAccessorENS2_15CmifDomainProxyINS0_4hipc6client38Hipc2ClientSessionManagedProxyKindBaseINSA_18Hipc2ProxyKindBaseILNS9_6detail11MessageTypeE6EEEEEEENS0_30MemoryResourceAllocationPolicyES7_E41_nn_sf_sync_GetApplicationControlPropertyERKNS0_9OutBufferE
 00000000:0000007100059E50       _ZN2nn2sf4cmif6client6detail13CmifProxyImplINS_2am7service20IApplicationAccessorENS2_15CmifDomainProxyINS0_4hipc6client38Hipc2ClientSessionManagedProxyKindBaseINSA_18Hipc2ProxyKindBaseILNS9_6detail11MessageTypeE6EEEEEEENS0_30MemoryResourceAllocationPolicyES7_E40_nn_sf_sync_GetApplicationLaunchPropertyERKNS0_9OutBufferE
 00000000:0000007100059E80       _ZN2nn2sf4cmif6client6detail13CmifProxyImplINS_2am7service20IApplicationAccessorENS2_15CmifDomainProxyINS0_4hipc6client38Hipc2ClientSessionManagedProxyKindBaseINSA_18Hipc2ProxyKindBaseILNS9_6detail11MessageTypeE6EEEEEEENS0_30MemoryResourceAllocationPolicyES7_E43_nn_sf_sync_GetApplicationLaunchRequestInfoENS0_3OutINS_6applet28ApplicationLaunchRequestInfoEvEE
 00000000:0000007100059EA0       _ZN2nn2sf4cmif6client6detail13CmifProxyImplINS_2am7service20IApplicationAccessorENS2_15CmifDomainProxyINS0_4hipc6client38Hipc2ClientSessionManagedProxyKindBaseINSA_18Hipc2ProxyKindBaseILNS9_6detail11MessageTypeE6EEEEEEENS0_30MemoryResourceAllocationPolicyES7_E20_nn_sf_sync_SetUsersEbRKNS0_7InArrayINS_7account3UidEEE
 00000000:0000007100059ED0       _ZN2nn2sf4cmif6client6detail13CmifProxyImplINS_2am7service20IApplicationAccessorENS2_15CmifDomainProxyINS0_4hipc6client38Hipc2ClientSessionManagedProxyKindBaseINSA_18Hipc2ProxyKindBaseILNS9_6detail11MessageTypeE6EEEEEEENS0_30MemoryResourceAllocationPolicyES7_E43_nn_sf_sync_CheckRightsEnvironmentAvailableENS0_3OutIbvEE
 00000000:0000007100059EF0       _ZN2nn2sf4cmif6client6detail13CmifProxyImplINS_2am7service20IApplicationAccessorENS2_15CmifDomainProxyINS0_4hipc6client38Hipc2ClientSessionManagedProxyKindBaseINSA_18Hipc2ProxyKindBaseILNS9_6detail11MessageTypeE6EEEEEEENS0_30MemoryResourceAllocationPolicyES7_E40_nn_sf_sync_GetNsRightsEnvironmentHandleENS0_3OutImvEE
 00000000:0000007100059F10       _ZN2nn2sf4cmif6client6detail13CmifProxyImplINS_2am7service20IApplicationAccessorENS2_15CmifDomainProxyINS0_4hipc6client38Hipc2ClientSessionManagedProxyKindBaseINSA_18Hipc2ProxyKindBaseILNS9_6detail11MessageTypeE6EEEEEEENS0_30MemoryResourceAllocationPolicyES7_E28_nn_sf_sync_GetDesirableUidsENS0_3OutIivEERKNS0_8OutArrayINS_7account3UidEEE
 00000000:0000007100059F40       _ZN2nn2sf4cmif6client6detail13CmifProxyImplINS_2am7service20IApplicationAccessorENS2_15CmifDomainProxyINS0_4hipc6client38Hipc2ClientSessionManagedProxyKindBaseINSA_18Hipc2ProxyKindBaseILNS9_6detail11MessageTypeE6EEEEEEENS0_30MemoryResourceAllocationPolicyES7_E40_nn_sf_sync_ReportApplicationExitTimeoutEv
 00000000:0000007100059F60       _ZN2nn2sf4cmif6client6detail13CmifProxyImplINS_2am7service15IAppletAccessorENS2_15CmifDomainProxyINS0_4hipc6client38Hipc2ClientSessionManagedProxyKindBaseINSA_18Hipc2ProxyKindBaseILNS9_6detail11MessageTypeE6EEEEEEENS0_30MemoryResourceAllocationPolicyENS6_20IApplicationAccessorEE17GetCmifBaseObjectEv
 00000000:0000007100059F70       _ZThn32_N2nn2sf4cmif6client6detail13CmifProxyImplINS_2am7service15IAppletAccessorENS2_15CmifDomainProxyINS0_4hipc6client38Hipc2ClientSessionManagedProxyKindBaseINSA_18Hipc2ProxyKindBaseILNS9_6detail11MessageTypeE6EEEEEEENS0_30MemoryResourceAllocationPolicyENS6_20IApplicationAccessorEE17GetCmifBaseObjectEv
 00000000:0000007100059F80       _ZN2nn2sf4cmif6client32GetClientProcessorWithObjectBaseINS2_15CmifDomainProxyINS0_4hipc6client38Hipc2ClientSessionManagedProxyKindBaseINS6_18Hipc2ProxyKindBaseILNS5_6detail11MessageTypeE6EEEEEEEE14ObjectAssignerINS0_30MemoryResourceAllocationPolicyENS_14MemoryResourceEE14AllocateObjectINS_2am7service15IAppletAccessorEEEvi
 00000000:000000710005A030       _ZN2nn2sf6detail38ObjectImplFactoryWithStatefulAllocatorINS0_4cmif6client16CmifProxyFactoryINS_2am7service15IAppletAccessorENS4_15CmifDomainProxyINS0_4hipc6client38Hipc2ClientSessionManagedProxyKindBaseINSB_18Hipc2ProxyKindBaseILNSA_6detail11MessageTypeE6EEEEEEENS0_30MemoryResourceAllocationPolicyEE13ServiceObjectESJ_E6Object12AddReferenceEv
 00000000:000000710005A040       _ZN2nn2sf6detail38ObjectImplFactoryWithStatefulAllocatorINS0_4cmif6client16CmifProxyFactoryINS_2am7service15IAppletAccessorENS4_15CmifDomainProxyINS0_4hipc6client38Hipc2ClientSessionManagedProxyKindBaseINSB_18Hipc2ProxyKindBaseILNSA_6detail11MessageTypeE6EEEEEEENS0_30MemoryResourceAllocationPolicyEE13ServiceObjectESJ_E6Object7ReleaseEv
 00000000:000000710005A0A0       _ZN2nn2sf4cmif6client6detail13CmifProxyImplINS_2am7service15IAppletAccessorENS2_15CmifDomainProxyINS0_4hipc6client38Hipc2ClientSessionManagedProxyKindBaseINSA_18Hipc2ProxyKindBaseILNS9_6detail11MessageTypeE6EEEEEEENS0_30MemoryResourceAllocationPolicyES7_E12GetProxyInfoEv
 00000000:000000710005A0B0       _ZN2nn2sf4cmif6client6detail13CmifProxyImplINS_2am7service15IAppletAccessorENS2_15CmifDomainProxyINS0_4hipc6client38Hipc2ClientSessionManagedProxyKindBaseINSA_18Hipc2ProxyKindBaseILNS9_6detail11MessageTypeE6EEEEEEENS0_30MemoryResourceAllocationPolicyES7_E38_nn_sf_sync_GetIntegratedAppletPointerENS0_3OutINSt3__110shared_ptrINS6_16IntegratedAppletEEEvEE
 00000000:000000710005A0D0       _ZN2nn2sf4cmif6client6detail13CmifProxyImplINS_2am7service15IAppletAccessorENS2_15CmifDomainProxyINS0_4hipc6client38Hipc2ClientSessionManagedProxyKindBaseINSA_18Hipc2ProxyKindBaseILNS9_6detail11MessageTypeE6EEEEEEENS0_30MemoryResourceAllocationPolicyES7_E38_nn_sf_sync_GetAppletStateChangedEventENS0_3OutINS0_12NativeHandleEvEE
 00000000:000000710005A0F0       _ZN2nn2sf4cmif6client6detail13CmifProxyImplINS_2am7service15IAppletAccessorENS2_15CmifDomainProxyINS0_4hipc6client38Hipc2ClientSessionManagedProxyKindBaseINSA_18Hipc2ProxyKindBaseILNS9_6detail11MessageTypeE6EEEEEEENS0_30MemoryResourceAllocationPolicyES7_E23_nn_sf_sync_IsCompletedENS0_3OutIbvEE
 00000000:000000710005A110       _ZN2nn2sf4cmif6client6detail13CmifProxyImplINS_2am7service15IAppletAccessorENS2_15CmifDomainProxyINS0_4hipc6client38Hipc2ClientSessionManagedProxyKindBaseINSA_18Hipc2ProxyKindBaseILNS9_6detail11MessageTypeE6EEEEEEENS0_30MemoryResourceAllocationPolicyES7_E17_nn_sf_sync_StartEv
 00000000:000000710005A130       _ZN2nn2sf4cmif6client6detail13CmifProxyImplINS_2am7service15IAppletAccessorENS2_15CmifDomainProxyINS0_4hipc6client38Hipc2ClientSessionManagedProxyKindBaseINSA_18Hipc2ProxyKindBaseILNS9_6detail11MessageTypeE6EEEEEEENS0_30MemoryResourceAllocationPolicyES7_E23_nn_sf_sync_RequestExitEv
 00000000:000000710005A150       _ZN2nn2sf4cmif6client6detail13CmifProxyImplINS_2am7service15IAppletAccessorENS2_15CmifDomainProxyINS0_4hipc6client38Hipc2ClientSessionManagedProxyKindBaseINSA_18Hipc2ProxyKindBaseILNS9_6detail11MessageTypeE6EEEEEEENS0_30MemoryResourceAllocationPolicyES7_E21_nn_sf_sync_TerminateEv
 00000000:000000710005A170       _ZN2nn2sf4cmif6client6detail13CmifProxyImplINS_2am7service15IAppletAccessorENS2_15CmifDomainProxyINS0_4hipc6client38Hipc2ClientSessionManagedProxyKindBaseINSA_18Hipc2ProxyKindBaseILNS9_6detail11MessageTypeE6EEEEEEENS0_30MemoryResourceAllocationPolicyES7_E21_nn_sf_sync_GetResultEv
 00000000:000000710005A190       _ZN2nn2sf4cmif6client6detail13CmifProxyImplINS_2am7service15IAppletAccessorENS2_15CmifDomainProxyINS0_4hipc6client38Hipc2ClientSessionManagedProxyKindBaseINSA_18Hipc2ProxyKindBaseILNS9_6detail11MessageTypeE6EEEEEEENS0_30MemoryResourceAllocationPolicyES7_E17GetCmifBaseObjectEv
 00000000:000000710005A1A0       _ZThn32_N2nn2sf4cmif6client6detail13CmifProxyImplINS_2am7service15IAppletAccessorENS2_15CmifDomainProxyINS0_4hipc6client38Hipc2ClientSessionManagedProxyKindBaseINSA_18Hipc2ProxyKindBaseILNS9_6detail11MessageTypeE6EEEEEEENS0_30MemoryResourceAllocationPolicyES7_E17GetCmifBaseObjectEv
 00000000:000000710005A1B0       _ZN2nn2sf4cmif6client34CmifDomainProxyClientCoreProcessorINS0_4hipc6client38Hipc2ClientSessionManagedProxyKindBaseINS5_18Hipc2ProxyKindBaseILNS4_6detail11MessageTypeE6EEEEENS1_6detail14CoreMethodInfoINSt3__15tupleIJNSC_17InRawArgumentInfoILm4ELm4ELl0EEENSC_20InObjectArgumentInfoILi0ELi0EEEEEELm4ELm0ELb0EEESK_E7ProcessEPNS2_23CmifDomainClientMessageISB_E15ProxyBaseObjectENS2_23InRawClientArgumentTypeILm4ELm4EvEENS2_26InObjectClientArgumentTypeEj
 00000000:000000710005A320       _ZN2nn2sf4cmif6client34CmifDomainProxyClientCoreProcessorINS0_4hipc6client38Hipc2ClientSessionManagedProxyKindBaseINS5_18Hipc2ProxyKindBaseILNS4_6detail11MessageTypeE6EEEEENS1_6detail14CoreMethodInfoINSt3__15tupleIJNSC_17InRawArgumentInfoILm1ELm1ELl0EEENSC_18BufferArgumentInfoILi0ELi5ELm0EEEEEELm1ELm0ELb0EEESK_E7ProcessEPNS2_23CmifDomainClientMessageISB_E15ProxyBaseObjectENS2_23InRawClientArgumentTypeILm1ELm1EvEENS2_24BufferClientArgumentTypeEj
 00000000:000000710005A530       _ZN2nn2sf4cmif6client34CmifDomainProxyClientCoreProcessorINS0_4hipc6client38Hipc2ClientSessionManagedProxyKindBaseINS5_18Hipc2ProxyKindBaseILNS4_6detail11MessageTypeE6EEEEENS1_6detail14CoreMethodInfoINSt3__15tupleIJNSC_17InRawArgumentInfoILm8ELm8ELl8EEENSC_18BufferArgumentInfoILi0ELi5ELm0EEENSG_ILm1ELm1ELl0EEENSI_ILi1ELi5ELm0EEEEEELm16ELm0ELb0EEESM_E7ProcessEPNS2_23CmifDomainClientMessageISB_E15ProxyBaseObjectENS2_23InRawClientArgumentTypeILm8ELm8EvEENS2_24BufferClientArgumentTypeENST_ILm1ELm1EvEESV_j
 00000000:000000710005A760       _ZN2nn2sf4cmif6client34CmifDomainProxyClientCoreProcessorINS0_4hipc6client38Hipc2ClientSessionManagedProxyKindBaseINS5_18Hipc2ProxyKindBaseILNS4_6detail11MessageTypeE6EEEEENS1_6detail14CoreMethodInfoINSt3__15tupleIJNSC_18OutRawArgumentInfoILm32ELm4ELl0EEEEEELm0ELm32ELb0EEESI_E7ProcessEPNS2_23CmifDomainClientMessageISB_E15ProxyBaseObjectENS2_24OutRawClientArgumentTypeILm32ELm4EEEj
 00000000:000000710005A8D0       _ZN2nn2sf4cmif6client32GetClientProcessorWithObjectBaseINS2_15CmifDomainProxyINS0_4hipc6client38Hipc2ClientSessionManagedProxyKindBaseINS6_18Hipc2ProxyKindBaseILNS5_6detail11MessageTypeE6EEEEEEEE14ObjectAssignerINS0_30MemoryResourceAllocationPolicyENS_14MemoryResourceEE14AllocateObjectINS_2am7service25IProcessWindingControllerEEEvi
 00000000:000000710005A980       _ZN2nn2sf6detail38ObjectImplFactoryWithStatefulAllocatorINS0_4cmif6client16CmifProxyFactoryINS_2am7service25IProcessWindingControllerENS4_15CmifDomainProxyINS0_4hipc6client38Hipc2ClientSessionManagedProxyKindBaseINSB_18Hipc2ProxyKindBaseILNSA_6detail11MessageTypeE6EEEEEEENS0_30MemoryResourceAllocationPolicyEE13ServiceObjectESJ_E6Object12AddReferenceEv
 00000000:000000710005A990       _ZN2nn2sf6detail38ObjectImplFactoryWithStatefulAllocatorINS0_4cmif6client16CmifProxyFactoryINS_2am7service25IProcessWindingControllerENS4_15CmifDomainProxyINS0_4hipc6client38Hipc2ClientSessionManagedProxyKindBaseINSB_18Hipc2ProxyKindBaseILNSA_6detail11MessageTypeE6EEEEEEENS0_30MemoryResourceAllocationPolicyEE13ServiceObjectESJ_E6Object7ReleaseEv
 00000000:000000710005A9F0       _ZN2nn2sf4cmif6client6detail13CmifProxyImplINS_2am7service25IProcessWindingControllerENS2_15CmifDomainProxyINS0_4hipc6client38Hipc2ClientSessionManagedProxyKindBaseINSA_18Hipc2ProxyKindBaseILNS9_6detail11MessageTypeE6EEEEEEENS0_30MemoryResourceAllocationPolicyES7_E12GetProxyInfoEv
 00000000:000000710005AA00       _ZN2nn2sf4cmif6client6detail13CmifProxyImplINS_2am7service25IProcessWindingControllerENS2_15CmifDomainProxyINS0_4hipc6client38Hipc2ClientSessionManagedProxyKindBaseINSA_18Hipc2ProxyKindBaseILNS9_6detail11MessageTypeE6EEEEEEENS0_30MemoryResourceAllocationPolicyES7_E27_nn_sf_sync_GetLaunchReasonENS0_3OutINS6_25AppletProcessLaunchReasonEvEE
 00000000:000000710005AA20       _ZN2nn2sf4cmif6client6detail13CmifProxyImplINS_2am7service25IProcessWindingControllerENS2_15CmifDomainProxyINS0_4hipc6client38Hipc2ClientSessionManagedProxyKindBaseINSA_18Hipc2ProxyKindBaseILNS9_6detail11MessageTypeE6EEEEEEENS0_30MemoryResourceAllocationPolicyES7_E36_nn_sf_sync_OpenCallingLibraryAppletENS0_3OutINS0_13SharedPointerINS6_22ILibraryAppletAccessorEEEvEE
 00000000:000000710005AAC0       _ZN2nn2sf4cmif6client6detail13CmifProxyImplINS_2am7service25IProcessWindingControllerENS2_15CmifDomainProxyINS0_4hipc6client38Hipc2ClientSessionManagedProxyKindBaseINSA_18Hipc2ProxyKindBaseILNS9_6detail11MessageTypeE6EEEEEEENS0_30MemoryResourceAllocationPolicyES7_E23_nn_sf_sync_PushContextENS0_13SharedPointerINS6_8IStorageEEE
 00000000:000000710005AB10       _ZN2nn2sf4cmif6client6detail13CmifProxyImplINS_2am7service25IProcessWindingControllerENS2_15CmifDomainProxyINS0_4hipc6client38Hipc2ClientSessionManagedProxyKindBaseINSA_18Hipc2ProxyKindBaseILNS9_6detail11MessageTypeE6EEEEEEENS0_30MemoryResourceAllocationPolicyES7_E22_nn_sf_sync_PopContextENS0_3OutINS0_13SharedPointerINS6_8IStorageEEEvEE
 00000000:000000710005ABB0       _ZN2nn2sf4cmif6client6detail13CmifProxyImplINS_2am7service25IProcessWindingControllerENS2_15CmifDomainProxyINS0_4hipc6client38Hipc2ClientSessionManagedProxyKindBaseINSA_18Hipc2ProxyKindBaseILNS9_6detail11MessageTypeE6EEEEEEENS0_30MemoryResourceAllocationPolicyES7_E36_nn_sf_sync_CancelWindingReservationEv
 00000000:000000710005ABD0       _ZN2nn2sf4cmif6client6detail13CmifProxyImplINS_2am7service25IProcessWindingControllerENS2_15CmifDomainProxyINS0_4hipc6client38Hipc2ClientSessionManagedProxyKindBaseINSA_18Hipc2ProxyKindBaseILNS9_6detail11MessageTypeE6EEEEEEENS0_30MemoryResourceAllocationPolicyES7_E29_nn_sf_sync_WindAndDoReservedEv
 00000000:000000710005ABF0       _ZN2nn2sf4cmif6client6detail13CmifProxyImplINS_2am7service25IProcessWindingControllerENS2_15CmifDomainProxyINS0_4hipc6client38Hipc2ClientSessionManagedProxyKindBaseINSA_18Hipc2ProxyKindBaseILNS9_6detail11MessageTypeE6EEEEEEENS0_30MemoryResourceAllocationPolicyES7_E46_nn_sf_sync_ReserveToStartAndWaitAndUnwindThisENS0_13SharedPointerINS6_22ILibraryAppletAccessorEEE
 00000000:000000710005AC40       _ZN2nn2sf4cmif6client6detail13CmifProxyImplINS_2am7service25IProcessWindingControllerENS2_15CmifDomainProxyINS0_4hipc6client38Hipc2ClientSessionManagedProxyKindBaseINSA_18Hipc2ProxyKindBaseILNS9_6detail11MessageTypeE6EEEEEEENS0_30MemoryResourceAllocationPolicyES7_E33_nn_sf_sync_ReserveToStartAndWaitENS0_13SharedPointerINS6_22ILibraryAppletAccessorEEE
 00000000:000000710005AC90       _ZN2nn2sf4cmif6client6detail13CmifProxyImplINS_2am7service25IProcessWindingControllerENS2_15CmifDomainProxyINS0_4hipc6client38Hipc2ClientSessionManagedProxyKindBaseINSA_18Hipc2ProxyKindBaseILNS9_6detail11MessageTypeE6EEEEEEENS0_30MemoryResourceAllocationPolicyES7_E17GetCmifBaseObjectEv
 00000000:000000710005ACA0       _ZThn32_N2nn2sf4cmif6client6detail13CmifProxyImplINS_2am7service25IProcessWindingControllerENS2_15CmifDomainProxyINS0_4hipc6client38Hipc2ClientSessionManagedProxyKindBaseINSA_18Hipc2ProxyKindBaseILNS9_6detail11MessageTypeE6EEEEEEENS0_30MemoryResourceAllocationPolicyES7_E17GetCmifBaseObjectEv
 00000000:000000710005ACB0       _ZN2nn2sf4cmif6client34CmifDomainProxyClientCoreProcessorINS0_4hipc6client38Hipc2ClientSessionManagedProxyKindBaseINS5_18Hipc2ProxyKindBaseILNS4_6detail11MessageTypeE6EEEEENS1_6detail14CoreMethodInfoINSt3__15tupleIJNSC_18OutRawArgumentInfoILm4ELm1ELl0EEEEEELm0ELm4ELb0EEESI_E7ProcessEPNS2_23CmifDomainClientMessageISB_E15ProxyBaseObjectENS2_24OutRawClientArgumentTypeILm4ELm1EEEj
 00000000:000000710005AE00       _ZN2nn2sf4cmif6client32GetClientProcessorWithObjectBaseINS2_15CmifDomainProxyINS0_4hipc6client38Hipc2ClientSessionManagedProxyKindBaseINS6_18Hipc2ProxyKindBaseILNS5_6detail11MessageTypeE6EEEEEEEE14ObjectAssignerINS0_30MemoryResourceAllocationPolicyENS_14MemoryResourceEE14AllocateObjectINS_2am7service22ILibraryAppletAccessorEEEvi
 00000000:000000710005AEB0       _ZN2nn2sf6detail38ObjectImplFactoryWithStatefulAllocatorINS0_4cmif6client16CmifProxyFactoryINS_2am7service22ILibraryAppletAccessorENS4_15CmifDomainProxyINS0_4hipc6client38Hipc2ClientSessionManagedProxyKindBaseINSB_18Hipc2ProxyKindBaseILNSA_6detail11MessageTypeE6EEEEEEENS0_30MemoryResourceAllocationPolicyEE13ServiceObjectESJ_E6Object12AddReferenceEv
 00000000:000000710005AEC0       _ZN2nn2sf6detail38ObjectImplFactoryWithStatefulAllocatorINS0_4cmif6client16CmifProxyFactoryINS_2am7service22ILibraryAppletAccessorENS4_15CmifDomainProxyINS0_4hipc6client38Hipc2ClientSessionManagedProxyKindBaseINSB_18Hipc2ProxyKindBaseILNSA_6detail11MessageTypeE6EEEEEEENS0_30MemoryResourceAllocationPolicyEE13ServiceObjectESJ_E6Object7ReleaseEv
 00000000:000000710005AF20       _ZN2nn2sf4cmif6client6detail13CmifProxyImplINS_2am7service15IAppletAccessorENS2_15CmifDomainProxyINS0_4hipc6client38Hipc2ClientSessionManagedProxyKindBaseINSA_18Hipc2ProxyKindBaseILNS9_6detail11MessageTypeE6EEEEEEENS0_30MemoryResourceAllocationPolicyENS6_22ILibraryAppletAccessorEE12GetProxyInfoEv
 00000000:000000710005AF30       _ZN2nn2sf4cmif6client6detail13CmifProxyImplINS_2am7service15IAppletAccessorENS2_15CmifDomainProxyINS0_4hipc6client38Hipc2ClientSessionManagedProxyKindBaseINSA_18Hipc2ProxyKindBaseILNS9_6detail11MessageTypeE6EEEEEEENS0_30MemoryResourceAllocationPolicyENS6_22ILibraryAppletAccessorEE38_nn_sf_sync_GetIntegratedAppletPointerENS0_3OutINSt3__110shared_ptrINS6_16IntegratedAppletEEEvEE
 00000000:000000710005AF50       _ZN2nn2sf4cmif6client6detail13CmifProxyImplINS_2am7service15IAppletAccessorENS2_15CmifDomainProxyINS0_4hipc6client38Hipc2ClientSessionManagedProxyKindBaseINSA_18Hipc2ProxyKindBaseILNS9_6detail11MessageTypeE6EEEEEEENS0_30MemoryResourceAllocationPolicyENS6_22ILibraryAppletAccessorEE38_nn_sf_sync_GetAppletStateChangedEventENS0_3OutINS0_12NativeHandleEvEE
 00000000:000000710005AF70       _ZN2nn2sf4cmif6client6detail13CmifProxyImplINS_2am7service15IAppletAccessorENS2_15CmifDomainProxyINS0_4hipc6client38Hipc2ClientSessionManagedProxyKindBaseINSA_18Hipc2ProxyKindBaseILNS9_6detail11MessageTypeE6EEEEEEENS0_30MemoryResourceAllocationPolicyENS6_22ILibraryAppletAccessorEE23_nn_sf_sync_IsCompletedENS0_3OutIbvEE
 00000000:000000710005AF90       _ZN2nn2sf4cmif6client6detail13CmifProxyImplINS_2am7service15IAppletAccessorENS2_15CmifDomainProxyINS0_4hipc6client38Hipc2ClientSessionManagedProxyKindBaseINSA_18Hipc2ProxyKindBaseILNS9_6detail11MessageTypeE6EEEEEEENS0_30MemoryResourceAllocationPolicyENS6_22ILibraryAppletAccessorEE17_nn_sf_sync_StartEv
 00000000:000000710005AFB0       _ZN2nn2sf4cmif6client6detail13CmifProxyImplINS_2am7service15IAppletAccessorENS2_15CmifDomainProxyINS0_4hipc6client38Hipc2ClientSessionManagedProxyKindBaseINSA_18Hipc2ProxyKindBaseILNS9_6detail11MessageTypeE6EEEEEEENS0_30MemoryResourceAllocationPolicyENS6_22ILibraryAppletAccessorEE23_nn_sf_sync_RequestExitEv
 00000000:000000710005AFD0       _ZN2nn2sf4cmif6client6detail13CmifProxyImplINS_2am7service15IAppletAccessorENS2_15CmifDomainProxyINS0_4hipc6client38Hipc2ClientSessionManagedProxyKindBaseINSA_18Hipc2ProxyKindBaseILNS9_6detail11MessageTypeE6EEEEEEENS0_30MemoryResourceAllocationPolicyENS6_22ILibraryAppletAccessorEE21_nn_sf_sync_TerminateEv
 00000000:000000710005AFF0       _ZN2nn2sf4cmif6client6detail13CmifProxyImplINS_2am7service15IAppletAccessorENS2_15CmifDomainProxyINS0_4hipc6client38Hipc2ClientSessionManagedProxyKindBaseINSA_18Hipc2ProxyKindBaseILNS9_6detail11MessageTypeE6EEEEEEENS0_30MemoryResourceAllocationPolicyENS6_22ILibraryAppletAccessorEE21_nn_sf_sync_GetResultEv
 00000000:000000710005B010       _ZN2nn2sf4cmif6client6detail13CmifProxyImplINS_2am7service22ILibraryAppletAccessorENS2_15CmifDomainProxyINS0_4hipc6client38Hipc2ClientSessionManagedProxyKindBaseINSA_18Hipc2ProxyKindBaseILNS9_6detail11MessageTypeE6EEEEEEENS0_30MemoryResourceAllocationPolicyES7_E53_nn_sf_sync_SetOutOfFocusApplicationSuspendingEnabledEb
 00000000:000000710005B040       _ZN2nn2sf4cmif6client6detail13CmifProxyImplINS_2am7service22ILibraryAppletAccessorENS2_15CmifDomainProxyINS0_4hipc6client38Hipc2ClientSessionManagedProxyKindBaseINSA_18Hipc2ProxyKindBaseILNS9_6detail11MessageTypeE6EEEEEEENS0_30MemoryResourceAllocationPolicyES7_E22_nn_sf_sync_PushInDataENS0_13SharedPointerINS6_8IStorageEEE
 00000000:000000710005B090       _ZN2nn2sf4cmif6client6detail13CmifProxyImplINS_2am7service22ILibraryAppletAccessorENS2_15CmifDomainProxyINS0_4hipc6client38Hipc2ClientSessionManagedProxyKindBaseINSA_18Hipc2ProxyKindBaseILNS9_6detail11MessageTypeE6EEEEEEENS0_30MemoryResourceAllocationPolicyES7_E22_nn_sf_sync_PopOutDataENS0_3OutINS0_13SharedPointerINS6_8IStorageEEEvEE
 00000000:000000710005B130       _ZN2nn2sf4cmif6client6detail13CmifProxyImplINS_2am7service22ILibraryAppletAccessorENS2_15CmifDomainProxyINS0_4hipc6client38Hipc2ClientSessionManagedProxyKindBaseINSA_18Hipc2ProxyKindBaseILNS9_6detail11MessageTypeE6EEEEEEENS0_30MemoryResourceAllocationPolicyES7_E28_nn_sf_sync_PushExtraStorageENS0_13SharedPointerINS6_8IStorageEEE
 00000000:000000710005B180       _ZN2nn2sf4cmif6client6detail13CmifProxyImplINS_2am7service22ILibraryAppletAccessorENS2_15CmifDomainProxyINS0_4hipc6client38Hipc2ClientSessionManagedProxyKindBaseINSA_18Hipc2ProxyKindBaseILNS9_6detail11MessageTypeE6EEEEEEENS0_30MemoryResourceAllocationPolicyES7_E33_nn_sf_sync_PushInteractiveInDataENS0_13SharedPointerINS6_8IStorageEEE
 00000000:000000710005B1D0       _ZN2nn2sf4cmif6client6detail13CmifProxyImplINS_2am7service22ILibraryAppletAccessorENS2_15CmifDomainProxyINS0_4hipc6client38Hipc2ClientSessionManagedProxyKindBaseINSA_18Hipc2ProxyKindBaseILNS9_6detail11MessageTypeE6EEEEEEENS0_30MemoryResourceAllocationPolicyES7_E33_nn_sf_sync_PopInteractiveOutDataENS0_3OutINS0_13SharedPointerINS6_8IStorageEEEvEE
 00000000:000000710005B270       _ZN2nn2sf4cmif6client6detail13CmifProxyImplINS_2am7service22ILibraryAppletAccessorENS2_15CmifDomainProxyINS0_4hipc6client38Hipc2ClientSessionManagedProxyKindBaseINSA_18Hipc2ProxyKindBaseILNS9_6detail11MessageTypeE6EEEEEEENS0_30MemoryResourceAllocationPolicyES7_E30_nn_sf_sync_GetPopOutDataEventENS0_3OutINS0_12NativeHandleEvEE
 00000000:000000710005B290       _ZN2nn2sf4cmif6client6detail13CmifProxyImplINS_2am7service22ILibraryAppletAccessorENS2_15CmifDomainProxyINS0_4hipc6client38Hipc2ClientSessionManagedProxyKindBaseINSA_18Hipc2ProxyKindBaseILNS9_6detail11MessageTypeE6EEEEEEENS0_30MemoryResourceAllocationPolicyES7_E41_nn_sf_sync_GetPopInteractiveOutDataEventENS0_3OutINS0_12NativeHandleEvEE
 00000000:000000710005B2B0       _ZN2nn2sf4cmif6client6detail13CmifProxyImplINS_2am7service22ILibraryAppletAccessorENS2_15CmifDomainProxyINS0_4hipc6client38Hipc2ClientSessionManagedProxyKindBaseINSA_18Hipc2ProxyKindBaseILNS9_6detail11MessageTypeE6EEEEEEENS0_30MemoryResourceAllocationPolicyES7_E30_nn_sf_sync_NeedsToExitProcessENS0_3OutIbvEE
 00000000:000000710005B2D0       _ZN2nn2sf4cmif6client6detail13CmifProxyImplINS_2am7service22ILibraryAppletAccessorENS2_15CmifDomainProxyINS0_4hipc6client38Hipc2ClientSessionManagedProxyKindBaseINSA_18Hipc2ProxyKindBaseILNS9_6detail11MessageTypeE6EEEEEEENS0_30MemoryResourceAllocationPolicyES7_E32_nn_sf_sync_GetLibraryAppletInfoENS0_3OutINS6_17LibraryAppletInfoEvEE
 00000000:000000710005B2F0       _ZN2nn2sf4cmif6client6detail13CmifProxyImplINS_2am7service22ILibraryAppletAccessorENS2_15CmifDomainProxyINS0_4hipc6client38Hipc2ClientSessionManagedProxyKindBaseINSA_18Hipc2ProxyKindBaseILNS9_6detail11MessageTypeE6EEEEEEENS0_30MemoryResourceAllocationPolicyES7_E43_nn_sf_sync_RequestForAppletToGetForegroundEv
 00000000:000000710005B310       _ZN2nn2sf4cmif6client6detail13CmifProxyImplINS_2am7service22ILibraryAppletAccessorENS2_15CmifDomainProxyINS0_4hipc6client38Hipc2ClientSessionManagedProxyKindBaseINSA_18Hipc2ProxyKindBaseILNS9_6detail11MessageTypeE6EEEEEEENS0_30MemoryResourceAllocationPolicyES7_E42_nn_sf_sync_GetIndirectLayerConsumerHandleENS0_3OutImvEENS_6applet20AppletResourceUserIdE
 00000000:000000710005B330       _ZN2nn2sf4cmif6client6detail13CmifProxyImplINS_2am7service15IAppletAccessorENS2_15CmifDomainProxyINS0_4hipc6client38Hipc2ClientSessionManagedProxyKindBaseINSA_18Hipc2ProxyKindBaseILNS9_6detail11MessageTypeE6EEEEEEENS0_30MemoryResourceAllocationPolicyENS6_22ILibraryAppletAccessorEE17GetCmifBaseObjectEv
 00000000:000000710005B340       _ZThn32_N2nn2sf4cmif6client6detail13CmifProxyImplINS_2am7service15IAppletAccessorENS2_15CmifDomainProxyINS0_4hipc6client38Hipc2ClientSessionManagedProxyKindBaseINSA_18Hipc2ProxyKindBaseILNS9_6detail11MessageTypeE6EEEEEEENS0_30MemoryResourceAllocationPolicyENS6_22ILibraryAppletAccessorEE17GetCmifBaseObjectEv
 00000000:000000710005B350       _ZN2nn2sf4cmif6client32GetClientProcessorWithObjectBaseINS2_15CmifDomainProxyINS0_4hipc6client38Hipc2ClientSessionManagedProxyKindBaseINS6_18Hipc2ProxyKindBaseILNS5_6detail11MessageTypeE6EEEEEEEE14ObjectAssignerINS0_30MemoryResourceAllocationPolicyENS_14MemoryResourceEE14AllocateObjectINS_2am7service8IStorageEEEvi
 00000000:000000710005B400       _ZN2nn2sf6detail38ObjectImplFactoryWithStatefulAllocatorINS0_4cmif6client16CmifProxyFactoryINS_2am7service8IStorageENS4_15CmifDomainProxyINS0_4hipc6client38Hipc2ClientSessionManagedProxyKindBaseINSB_18Hipc2ProxyKindBaseILNSA_6detail11MessageTypeE6EEEEEEENS0_30MemoryResourceAllocationPolicyEE13ServiceObjectESJ_E6Object12AddReferenceEv
 00000000:000000710005B410       _ZN2nn2sf6detail38ObjectImplFactoryWithStatefulAllocatorINS0_4cmif6client16CmifProxyFactoryINS_2am7service8IStorageENS4_15CmifDomainProxyINS0_4hipc6client38Hipc2ClientSessionManagedProxyKindBaseINSB_18Hipc2ProxyKindBaseILNSA_6detail11MessageTypeE6EEEEEEENS0_30MemoryResourceAllocationPolicyEE13ServiceObjectESJ_E6Object7ReleaseEv
 00000000:000000710005B470       _ZN2nn2sf4cmif6client6detail13CmifProxyImplINS_2am7service8IStorageENS2_15CmifDomainProxyINS0_4hipc6client38Hipc2ClientSessionManagedProxyKindBaseINSA_18Hipc2ProxyKindBaseILNS9_6detail11MessageTypeE6EEEEEEENS0_30MemoryResourceAllocationPolicyES7_E12GetProxyInfoEv
 00000000:000000710005B480       _ZN2nn2sf4cmif6client6detail13CmifProxyImplINS_2am7service8IStorageENS2_15CmifDomainProxyINS0_4hipc6client38Hipc2ClientSessionManagedProxyKindBaseINSA_18Hipc2ProxyKindBaseILNS9_6detail11MessageTypeE6EEEEEEENS0_30MemoryResourceAllocationPolicyES7_E16_nn_sf_sync_OpenENS0_3OutINS0_13SharedPointerINS6_16IStorageAccessorEEEvEE
 00000000:000000710005B520       _ZN2nn2sf4cmif6client6detail13CmifProxyImplINS_2am7service8IStorageENS2_15CmifDomainProxyINS0_4hipc6client38Hipc2ClientSessionManagedProxyKindBaseINSA_18Hipc2ProxyKindBaseILNS9_6detail11MessageTypeE6EEEEEEENS0_30MemoryResourceAllocationPolicyES7_E31_nn_sf_sync_OpenTransferStorageENS0_3OutINS0_13SharedPointerINS6_24ITransferStorageAccessorEEEvEE
 00000000:000000710005B5C0       _ZN2nn2sf4cmif6client6detail13CmifProxyImplINS_2am7service8IStorageENS2_15CmifDomainProxyINS0_4hipc6client38Hipc2ClientSessionManagedProxyKindBaseINSA_18Hipc2ProxyKindBaseILNS9_6detail11MessageTypeE6EEEEEEENS0_30MemoryResourceAllocationPolicyES7_E28_nn_sf_sync_GetAndInvalidateENS0_3OutINS0_13SharedPointerIS7_EEvEE
 00000000:000000710005B5E0       _ZN2nn2sf4cmif6client6detail13CmifProxyImplINS_2am7service8IStorageENS2_15CmifDomainProxyINS0_4hipc6client38Hipc2ClientSessionManagedProxyKindBaseINSA_18Hipc2ProxyKindBaseILNS9_6detail11MessageTypeE6EEEEEEENS0_30MemoryResourceAllocationPolicyES7_E17GetCmifBaseObjectEv
 00000000:000000710005B5F0       _ZThn32_N2nn2sf4cmif6client6detail13CmifProxyImplINS_2am7service8IStorageENS2_15CmifDomainProxyINS0_4hipc6client38Hipc2ClientSessionManagedProxyKindBaseINSA_18Hipc2ProxyKindBaseILNS9_6detail11MessageTypeE6EEEEEEENS0_30MemoryResourceAllocationPolicyES7_E17GetCmifBaseObjectEv
 00000000:000000710005B600       _ZN2nn2sf4cmif6client32GetClientProcessorWithObjectBaseINS2_15CmifDomainProxyINS0_4hipc6client38Hipc2ClientSessionManagedProxyKindBaseINS6_18Hipc2ProxyKindBaseILNS5_6detail11MessageTypeE6EEEEEEEE14ObjectAssignerINS0_30MemoryResourceAllocationPolicyENS_14MemoryResourceEE14AllocateObjectINS_2am7service16IStorageAccessorEEEvi
 00000000:000000710005B6B0       _ZN2nn2sf6detail38ObjectImplFactoryWithStatefulAllocatorINS0_4cmif6client16CmifProxyFactoryINS_2am7service16IStorageAccessorENS4_15CmifDomainProxyINS0_4hipc6client38Hipc2ClientSessionManagedProxyKindBaseINSB_18Hipc2ProxyKindBaseILNSA_6detail11MessageTypeE6EEEEEEENS0_30MemoryResourceAllocationPolicyEE13ServiceObjectESJ_E6Object12AddReferenceEv
 00000000:000000710005B6C0       _ZN2nn2sf6detail38ObjectImplFactoryWithStatefulAllocatorINS0_4cmif6client16CmifProxyFactoryINS_2am7service16IStorageAccessorENS4_15CmifDomainProxyINS0_4hipc6client38Hipc2ClientSessionManagedProxyKindBaseINSB_18Hipc2ProxyKindBaseILNSA_6detail11MessageTypeE6EEEEEEENS0_30MemoryResourceAllocationPolicyEE13ServiceObjectESJ_E6Object7ReleaseEv
 00000000:000000710005B720       _ZN2nn2sf4cmif6client6detail13CmifProxyImplINS_2am7service16IStorageAccessorENS2_15CmifDomainProxyINS0_4hipc6client38Hipc2ClientSessionManagedProxyKindBaseINSA_18Hipc2ProxyKindBaseILNS9_6detail11MessageTypeE6EEEEEEENS0_30MemoryResourceAllocationPolicyES7_E12GetProxyInfoEv
 00000000:000000710005B730       _ZN2nn2sf4cmif6client6detail13CmifProxyImplINS_2am7service16IStorageAccessorENS2_15CmifDomainProxyINS0_4hipc6client38Hipc2ClientSessionManagedProxyKindBaseINSA_18Hipc2ProxyKindBaseILNS9_6detail11MessageTypeE6EEEEEEENS0_30MemoryResourceAllocationPolicyES7_E19_nn_sf_sync_GetSizeENS0_3OutIlvEE
 00000000:000000710005B750       _ZN2nn2sf4cmif6client6detail13CmifProxyImplINS_2am7service16IStorageAccessorENS2_15CmifDomainProxyINS0_4hipc6client38Hipc2ClientSessionManagedProxyKindBaseINSA_18Hipc2ProxyKindBaseILNS9_6detail11MessageTypeE6EEEEEEENS0_30MemoryResourceAllocationPolicyES7_E17_nn_sf_sync_WriteElRKNS0_8InBufferE
 00000000:000000710005B780       _ZN2nn2sf4cmif6client6detail13CmifProxyImplINS_2am7service16IStorageAccessorENS2_15CmifDomainProxyINS0_4hipc6client38Hipc2ClientSessionManagedProxyKindBaseINSA_18Hipc2ProxyKindBaseILNS9_6detail11MessageTypeE6EEEEEEENS0_30MemoryResourceAllocationPolicyES7_E16_nn_sf_sync_ReadElRKNS0_9OutBufferE
 00000000:000000710005B7B0       _ZN2nn2sf4cmif6client6detail13CmifProxyImplINS_2am7service16IStorageAccessorENS2_15CmifDomainProxyINS0_4hipc6client38Hipc2ClientSessionManagedProxyKindBaseINSA_18Hipc2ProxyKindBaseILNS9_6detail11MessageTypeE6EEEEEEENS0_30MemoryResourceAllocationPolicyES7_E17GetCmifBaseObjectEv
 00000000:000000710005B7C0       _ZThn32_N2nn2sf4cmif6client6detail13CmifProxyImplINS_2am7service16IStorageAccessorENS2_15CmifDomainProxyINS0_4hipc6client38Hipc2ClientSessionManagedProxyKindBaseINSA_18Hipc2ProxyKindBaseILNS9_6detail11MessageTypeE6EEEEEEENS0_30MemoryResourceAllocationPolicyES7_E17GetCmifBaseObjectEv
 00000000:000000710005B7D0       _ZN2nn2sf4cmif6client34CmifDomainProxyClientCoreProcessorINS0_4hipc6client38Hipc2ClientSessionManagedProxyKindBaseINS5_18Hipc2ProxyKindBaseILNS4_6detail11MessageTypeE6EEEEENS1_6detail14CoreMethodInfoINSt3__15tupleIJNSC_17InRawArgumentInfoILm8ELm8ELl0EEENSC_18BufferArgumentInfoILi0ELi33ELm0EEEEEELm8ELm0ELb0EEESK_E7ProcessEPNS2_23CmifDomainClientMessageISB_E15ProxyBaseObjectENS2_23InRawClientArgumentTypeILm8ELm8EvEENS2_24BufferClientArgumentTypeEj
 00000000:000000710005B9B0       _ZN2nn2sf4cmif6client34CmifDomainProxyClientCoreProcessorINS0_4hipc6client38Hipc2ClientSessionManagedProxyKindBaseINS5_18Hipc2ProxyKindBaseILNS4_6detail11MessageTypeE6EEEEENS1_6detail14CoreMethodInfoINSt3__15tupleIJNSC_17InRawArgumentInfoILm8ELm8ELl0EEENSC_18BufferArgumentInfoILi0ELi34ELm0EEEEEELm8ELm0ELb0EEESK_E7ProcessEPNS2_23CmifDomainClientMessageISB_E15ProxyBaseObjectENS2_23InRawClientArgumentTypeILm8ELm8EvEENS2_24BufferClientArgumentTypeEj
 00000000:000000710005BB90       _ZN2nn2sf4cmif6client32GetClientProcessorWithObjectBaseINS2_15CmifDomainProxyINS0_4hipc6client38Hipc2ClientSessionManagedProxyKindBaseINS6_18Hipc2ProxyKindBaseILNS5_6detail11MessageTypeE6EEEEEEEE14ObjectAssignerINS0_30MemoryResourceAllocationPolicyENS_14MemoryResourceEE14AllocateObjectINS_2am7service24ITransferStorageAccessorEEEvi
 00000000:000000710005BC40       _ZN2nn2sf6detail38ObjectImplFactoryWithStatefulAllocatorINS0_4cmif6client16CmifProxyFactoryINS_2am7service24ITransferStorageAccessorENS4_15CmifDomainProxyINS0_4hipc6client38Hipc2ClientSessionManagedProxyKindBaseINSB_18Hipc2ProxyKindBaseILNSA_6detail11MessageTypeE6EEEEEEENS0_30MemoryResourceAllocationPolicyEE13ServiceObjectESJ_E6Object12AddReferenceEv
 00000000:000000710005BC50       _ZN2nn2sf6detail38ObjectImplFactoryWithStatefulAllocatorINS0_4cmif6client16CmifProxyFactoryINS_2am7service24ITransferStorageAccessorENS4_15CmifDomainProxyINS0_4hipc6client38Hipc2ClientSessionManagedProxyKindBaseINSB_18Hipc2ProxyKindBaseILNSA_6detail11MessageTypeE6EEEEEEENS0_30MemoryResourceAllocationPolicyEE13ServiceObjectESJ_E6Object7ReleaseEv
 00000000:000000710005BCB0       _ZN2nn2sf4cmif6client6detail13CmifProxyImplINS_2am7service24ITransferStorageAccessorENS2_15CmifDomainProxyINS0_4hipc6client38Hipc2ClientSessionManagedProxyKindBaseINSA_18Hipc2ProxyKindBaseILNS9_6detail11MessageTypeE6EEEEEEENS0_30MemoryResourceAllocationPolicyES7_E12GetProxyInfoEv
 00000000:000000710005BCC0       _ZN2nn2sf4cmif6client6detail13CmifProxyImplINS_2am7service24ITransferStorageAccessorENS2_15CmifDomainProxyINS0_4hipc6client38Hipc2ClientSessionManagedProxyKindBaseINSA_18Hipc2ProxyKindBaseILNS9_6detail11MessageTypeE6EEEEEEENS0_30MemoryResourceAllocationPolicyES7_E19_nn_sf_sync_GetSizeENS0_3OutIlvEE
 00000000:000000710005BCE0       _ZN2nn2sf4cmif6client6detail13CmifProxyImplINS_2am7service24ITransferStorageAccessorENS2_15CmifDomainProxyINS0_4hipc6client38Hipc2ClientSessionManagedProxyKindBaseINSA_18Hipc2ProxyKindBaseILNS9_6detail11MessageTypeE6EEEEEEENS0_30MemoryResourceAllocationPolicyES7_E21_nn_sf_sync_GetHandleENS0_3OutINS0_12NativeHandleEvEENSK_ImvEE
 00000000:000000710005BD00       _ZN2nn2sf4cmif6client6detail13CmifProxyImplINS_2am7service24ITransferStorageAccessorENS2_15CmifDomainProxyINS0_4hipc6client38Hipc2ClientSessionManagedProxyKindBaseINSA_18Hipc2ProxyKindBaseILNS9_6detail11MessageTypeE6EEEEEEENS0_30MemoryResourceAllocationPolicyES7_E17GetCmifBaseObjectEv
 00000000:000000710005BD10       _ZThn32_N2nn2sf4cmif6client6detail13CmifProxyImplINS_2am7service24ITransferStorageAccessorENS2_15CmifDomainProxyINS0_4hipc6client38Hipc2ClientSessionManagedProxyKindBaseINSA_18Hipc2ProxyKindBaseILNS9_6detail11MessageTypeE6EEEEEEENS0_30MemoryResourceAllocationPolicyES7_E17GetCmifBaseObjectEv
 00000000:000000710005BD20       _ZN2nn2sf4cmif6client34CmifDomainProxyClientCoreProcessorINS0_4hipc6client38Hipc2ClientSessionManagedProxyKindBaseINS5_18Hipc2ProxyKindBaseILNS4_6detail11MessageTypeE6EEEEENS1_6detail14CoreMethodInfoINSt3__15tupleIJNSC_21OutHandleArgumentInfoILi0ELi1EEENSC_18OutRawArgumentInfoILm8ELm8ELl0EEEEEELm0ELm8ELb0EEESK_E7ProcessEPNS2_23CmifDomainClientMessageISB_E15ProxyBaseObjectENS2_27OutHandleClientArgumentTypeENS2_24OutRawClientArgumentTypeILm8ELm8EEEj
 00000000:000000710005BEA0       _ZN2nn2sf4cmif6client34CmifDomainProxyClientCoreProcessorINS0_4hipc6client38Hipc2ClientSessionManagedProxyKindBaseINS5_18Hipc2ProxyKindBaseILNS4_6detail11MessageTypeE6EEEEENS1_6detail14CoreMethodInfoINSt3__15tupleIJNSC_18OutRawArgumentInfoILm8ELm8ELl0EEENSC_17InRawArgumentInfoILm8ELm8ELl0EEEEEELm8ELm8ELb1EEESK_E7ProcessEPNS2_23CmifDomainClientMessageISB_E15ProxyBaseObjectENS2_24OutRawClientArgumentTypeILm8ELm8EEENS2_23InRawClientArgumentTypeILm8ELm8EvEEj
 00000000:000000710005C000       _ZN2nn2sf4cmif6client32GetClientProcessorWithObjectBaseINS2_15CmifDomainProxyINS0_4hipc6client38Hipc2ClientSessionManagedProxyKindBaseINS6_18Hipc2ProxyKindBaseILNS5_6detail11MessageTypeE6EEEEEEEE14ObjectAssignerINS0_30MemoryResourceAllocationPolicyENS_14MemoryResourceEE14AllocateObjectINS_2am7service21ILibraryAppletCreatorEEEvi
 00000000:000000710005C0B0       _ZN2nn2sf6detail38ObjectImplFactoryWithStatefulAllocatorINS0_4cmif6client16CmifProxyFactoryINS_2am7service21ILibraryAppletCreatorENS4_15CmifDomainProxyINS0_4hipc6client38Hipc2ClientSessionManagedProxyKindBaseINSB_18Hipc2ProxyKindBaseILNSA_6detail11MessageTypeE6EEEEEEENS0_30MemoryResourceAllocationPolicyEE13ServiceObjectESJ_E6Object12AddReferenceEv
 00000000:000000710005C0C0       _ZN2nn2sf6detail38ObjectImplFactoryWithStatefulAllocatorINS0_4cmif6client16CmifProxyFactoryINS_2am7service21ILibraryAppletCreatorENS4_15CmifDomainProxyINS0_4hipc6client38Hipc2ClientSessionManagedProxyKindBaseINSB_18Hipc2ProxyKindBaseILNSA_6detail11MessageTypeE6EEEEEEENS0_30MemoryResourceAllocationPolicyEE13ServiceObjectESJ_E6Object7ReleaseEv
 00000000:000000710005C120       _ZN2nn2sf4cmif6client6detail13CmifProxyImplINS_2am7service21ILibraryAppletCreatorENS2_15CmifDomainProxyINS0_4hipc6client38Hipc2ClientSessionManagedProxyKindBaseINSA_18Hipc2ProxyKindBaseILNS9_6detail11MessageTypeE6EEEEEEENS0_30MemoryResourceAllocationPolicyES7_E12GetProxyInfoEv
 00000000:000000710005C130       _ZN2nn2sf4cmif6client6detail13CmifProxyImplINS_2am7service21ILibraryAppletCreatorENS2_15CmifDomainProxyINS0_4hipc6client38Hipc2ClientSessionManagedProxyKindBaseINSA_18Hipc2ProxyKindBaseILNS9_6detail11MessageTypeE6EEEEEEENS0_30MemoryResourceAllocationPolicyES7_E31_nn_sf_sync_CreateLibraryAppletENS0_3OutINS0_13SharedPointerINS6_22ILibraryAppletAccessorEEEvEEjj
 00000000:000000710005C1E0       _ZN2nn2sf4cmif6client6detail13CmifProxyImplINS_2am7service21ILibraryAppletCreatorENS2_15CmifDomainProxyINS0_4hipc6client38Hipc2ClientSessionManagedProxyKindBaseINSA_18Hipc2ProxyKindBaseILNS9_6detail11MessageTypeE6EEEEEEENS0_30MemoryResourceAllocationPolicyES7_E38_nn_sf_sync_TerminateAllLibraryAppletsEv
 00000000:000000710005C200       _ZN2nn2sf4cmif6client6detail13CmifProxyImplINS_2am7service21ILibraryAppletCreatorENS2_15CmifDomainProxyINS0_4hipc6client38Hipc2ClientSessionManagedProxyKindBaseINSA_18Hipc2ProxyKindBaseILNS9_6detail11MessageTypeE6EEEEEEENS0_30MemoryResourceAllocationPolicyES7_E36_nn_sf_sync_AreAnyLibraryAppletsLeftENS0_3OutIbvEE
 00000000:000000710005C220       _ZN2nn2sf4cmif6client6detail13CmifProxyImplINS_2am7service21ILibraryAppletCreatorENS2_15CmifDomainProxyINS0_4hipc6client38Hipc2ClientSessionManagedProxyKindBaseINSA_18Hipc2ProxyKindBaseILNS9_6detail11MessageTypeE6EEEEEEENS0_30MemoryResourceAllocationPolicyES7_E25_nn_sf_sync_CreateStorageENS0_3OutINS0_13SharedPointerINS6_8IStorageEEEvEEl
 00000000:000000710005C2D0       _ZN2nn2sf4cmif6client6detail13CmifProxyImplINS_2am7service21ILibraryAppletCreatorENS2_15CmifDomainProxyINS0_4hipc6client38Hipc2ClientSessionManagedProxyKindBaseINSA_18Hipc2ProxyKindBaseILNS9_6detail11MessageTypeE6EEEEEEENS0_30MemoryResourceAllocationPolicyES7_E39_nn_sf_sync_CreateTransferMemoryStorageENS0_3OutINS0_13SharedPointerINS6_8IStorageEEEvEEONS0_12NativeHandleElb
 00000000:000000710005C390       _ZN2nn2sf4cmif6client6detail13CmifProxyImplINS_2am7service21ILibraryAppletCreatorENS2_15CmifDomainProxyINS0_4hipc6client38Hipc2ClientSessionManagedProxyKindBaseINSA_18Hipc2ProxyKindBaseILNS9_6detail11MessageTypeE6EEEEEEENS0_30MemoryResourceAllocationPolicyES7_E31_nn_sf_sync_CreateHandleStorageENS0_3OutINS0_13SharedPointerINS6_8IStorageEEEvEEONS0_12NativeHandleEl
 00000000:000000710005C440       _ZN2nn2sf4cmif6client6detail13CmifProxyImplINS_2am7service21ILibraryAppletCreatorENS2_15CmifDomainProxyINS0_4hipc6client38Hipc2ClientSessionManagedProxyKindBaseINSA_18Hipc2ProxyKindBaseILNS9_6detail11MessageTypeE6EEEEEEENS0_30MemoryResourceAllocationPolicyES7_E17GetCmifBaseObjectEv
 00000000:000000710005C450       _ZThn32_N2nn2sf4cmif6client6detail13CmifProxyImplINS_2am7service21ILibraryAppletCreatorENS2_15CmifDomainProxyINS0_4hipc6client38Hipc2ClientSessionManagedProxyKindBaseINSA_18Hipc2ProxyKindBaseILNS9_6detail11MessageTypeE6EEEEEEENS0_30MemoryResourceAllocationPolicyES7_E17GetCmifBaseObjectEv
 00000000:000000710005C460       _ZN2nn2sf4cmif6client34CmifDomainProxyClientCoreProcessorINS0_4hipc6client38Hipc2ClientSessionManagedProxyKindBaseINS5_18Hipc2ProxyKindBaseILNS4_6detail11MessageTypeE6EEEEENS1_6detail14CoreMethodInfoINSt3__15tupleIJNSC_21OutObjectArgumentInfoILi0ELi0EEENSC_20InHandleArgumentInfoILi0ELi1EEENSC_17InRawArgumentInfoILm8ELm8ELl8EEENSK_ILm1ELm1ELl0EEEEEELm16ELm0ELb0EEESN_E21ProcessWithOutObjectsEPNS2_23CmifDomainClientMessageISB_E15ProxyBaseObjectENS2_27OutObjectClientArgumentTypeENS2_26InHandleClientArgumentTypeENS2_23InRawClientArgumentTypeILm8ELm8EvEENSW_ILm1ELm1EvEEjPNS0_13SharedPointerINS0_14IServiceObjectEEE
 00000000:000000710005C680       _ZN2nn2sf4cmif6client34CmifDomainProxyClientCoreProcessorINS0_4hipc6client38Hipc2ClientSessionManagedProxyKindBaseINS5_18Hipc2ProxyKindBaseILNS4_6detail11MessageTypeE6EEEEENS1_6detail14CoreMethodInfoINSt3__15tupleIJNSC_21OutObjectArgumentInfoILi0ELi0EEENSC_20InHandleArgumentInfoILi0ELi1EEENSC_17InRawArgumentInfoILm8ELm8ELl0EEEEEELm8ELm0ELb0EEESM_E21ProcessWithOutObjectsEPNS2_23CmifDomainClientMessageISB_E15ProxyBaseObjectENS2_27OutObjectClientArgumentTypeENS2_26InHandleClientArgumentTypeENS2_23InRawClientArgumentTypeILm8ELm8EvEEjPNS0_13SharedPointerINS0_14IServiceObjectEEE
 00000000:000000710005C890       _ZN2nn2sf4cmif6client32GetClientProcessorWithObjectBaseINS2_15CmifDomainProxyINS0_4hipc6client38Hipc2ClientSessionManagedProxyKindBaseINS6_18Hipc2ProxyKindBaseILNS5_6detail11MessageTypeE6EEEEEEEE14ObjectAssignerINS0_30MemoryResourceAllocationPolicyENS_14MemoryResourceEE14AllocateObjectINS_2am7service18IHomeMenuFunctionsEEEvi
 00000000:000000710005C940       _ZN2nn2sf6detail38ObjectImplFactoryWithStatefulAllocatorINS0_4cmif6client16CmifProxyFactoryINS_2am7service18IHomeMenuFunctionsENS4_15CmifDomainProxyINS0_4hipc6client38Hipc2ClientSessionManagedProxyKindBaseINSB_18Hipc2ProxyKindBaseILNSA_6detail11MessageTypeE6EEEEEEENS0_30MemoryResourceAllocationPolicyEE13ServiceObjectESJ_E6Object12AddReferenceEv
 00000000:000000710005C950       _ZN2nn2sf6detail38ObjectImplFactoryWithStatefulAllocatorINS0_4cmif6client16CmifProxyFactoryINS_2am7service18IHomeMenuFunctionsENS4_15CmifDomainProxyINS0_4hipc6client38Hipc2ClientSessionManagedProxyKindBaseINSB_18Hipc2ProxyKindBaseILNSA_6detail11MessageTypeE6EEEEEEENS0_30MemoryResourceAllocationPolicyEE13ServiceObjectESJ_E6Object7ReleaseEv
 00000000:000000710005C9B0       _ZN2nn2sf4cmif6client6detail13CmifProxyImplINS_2am7service18IHomeMenuFunctionsENS2_15CmifDomainProxyINS0_4hipc6client38Hipc2ClientSessionManagedProxyKindBaseINSA_18Hipc2ProxyKindBaseILNS9_6detail11MessageTypeE6EEEEEEENS0_30MemoryResourceAllocationPolicyES7_E12GetProxyInfoEv
 00000000:000000710005C9C0       _ZN2nn2sf4cmif6client6detail13CmifProxyImplINS_2am7service18IHomeMenuFunctionsENS2_15CmifDomainProxyINS0_4hipc6client38Hipc2ClientSessionManagedProxyKindBaseINSA_18Hipc2ProxyKindBaseILNS9_6detail11MessageTypeE6EEEEEEENS0_30MemoryResourceAllocationPolicyES7_E34_nn_sf_sync_RequestToGetForegroundEv
 00000000:000000710005C9E0       _ZN2nn2sf4cmif6client6detail13CmifProxyImplINS_2am7service18IHomeMenuFunctionsENS2_15CmifDomainProxyINS0_4hipc6client38Hipc2ClientSessionManagedProxyKindBaseINSA_18Hipc2ProxyKindBaseILNS9_6detail11MessageTypeE6EEEEEEENS0_30MemoryResourceAllocationPolicyES7_E26_nn_sf_sync_LockForegroundEv
 00000000:000000710005CA00       _ZN2nn2sf4cmif6client6detail13CmifProxyImplINS_2am7service18IHomeMenuFunctionsENS2_15CmifDomainProxyINS0_4hipc6client38Hipc2ClientSessionManagedProxyKindBaseINSA_18Hipc2ProxyKindBaseILNS9_6detail11MessageTypeE6EEEEEEENS0_30MemoryResourceAllocationPolicyES7_E28_nn_sf_sync_UnlockForegroundEv
 00000000:000000710005CA20       _ZN2nn2sf4cmif6client6detail13CmifProxyImplINS_2am7service18IHomeMenuFunctionsENS2_15CmifDomainProxyINS0_4hipc6client38Hipc2ClientSessionManagedProxyKindBaseINSA_18Hipc2ProxyKindBaseILNS9_6detail11MessageTypeE6EEEEEEENS0_30MemoryResourceAllocationPolicyES7_E33_nn_sf_sync_PopFromGeneralChannelENS0_3OutINS0_13SharedPointerINS6_8IStorageEEEvEE
 00000000:000000710005CAC0       _ZN2nn2sf4cmif6client6detail13CmifProxyImplINS_2am7service18IHomeMenuFunctionsENS2_15CmifDomainProxyINS0_4hipc6client38Hipc2ClientSessionManagedProxyKindBaseINSA_18Hipc2ProxyKindBaseILNS9_6detail11MessageTypeE6EEEEEEENS0_30MemoryResourceAllocationPolicyES7_E41_nn_sf_sync_GetPopFromGeneralChannelEventENS0_3OutINS0_12NativeHandleEvEE
 00000000:000000710005CAE0       _ZN2nn2sf4cmif6client6detail13CmifProxyImplINS_2am7service18IHomeMenuFunctionsENS2_15CmifDomainProxyINS0_4hipc6client38Hipc2ClientSessionManagedProxyKindBaseINSA_18Hipc2ProxyKindBaseILNS9_6detail11MessageTypeE6EEEEEEENS0_30MemoryResourceAllocationPolicyES7_E43_nn_sf_sync_GetHomeButtonWriterLockAccessorENS0_3OutINS0_13SharedPointerINS6_13ILockAccessorEEEvEE
 00000000:000000710005CB80       _ZN2nn2sf4cmif6client6detail13CmifProxyImplINS_2am7service18IHomeMenuFunctionsENS2_15CmifDomainProxyINS0_4hipc6client38Hipc2ClientSessionManagedProxyKindBaseINSA_18Hipc2ProxyKindBaseILNS9_6detail11MessageTypeE6EEEEEEENS0_30MemoryResourceAllocationPolicyES7_E35_nn_sf_sync_GetWriterLockAccessorExENS0_3OutINS0_13SharedPointerINS6_13ILockAccessorEEEvEEi
 00000000:000000710005CC30       _ZN2nn2sf4cmif6client6detail13CmifProxyImplINS_2am7service18IHomeMenuFunctionsENS2_15CmifDomainProxyINS0_4hipc6client38Hipc2ClientSessionManagedProxyKindBaseINSA_18Hipc2ProxyKindBaseILNS9_6detail11MessageTypeE6EEEEEEENS0_30MemoryResourceAllocationPolicyES7_E47_nn_sf_sync_PopRequestLaunchApplicationForDebugENS0_3OutINS_3ncm13ApplicationIdEvEENSK_IivEERKNS0_8OutArrayINS_7account3UidEEE
 00000000:000000710005CC60       _ZN2nn2sf4cmif6client6detail13CmifProxyImplINS_2am7service18IHomeMenuFunctionsENS2_15CmifDomainProxyINS0_4hipc6client38Hipc2ClientSessionManagedProxyKindBaseINSA_18Hipc2ProxyKindBaseILNS9_6detail11MessageTypeE6EEEEEEENS0_30MemoryResourceAllocationPolicyES7_E17GetCmifBaseObjectEv
 00000000:000000710005CC70       _ZThn32_N2nn2sf4cmif6client6detail13CmifProxyImplINS_2am7service18IHomeMenuFunctionsENS2_15CmifDomainProxyINS0_4hipc6client38Hipc2ClientSessionManagedProxyKindBaseINSA_18Hipc2ProxyKindBaseILNS9_6detail11MessageTypeE6EEEEEEENS0_30MemoryResourceAllocationPolicyES7_E17GetCmifBaseObjectEv
 00000000:000000710005CC80       _ZN2nn2sf4cmif6client34CmifDomainProxyClientCoreProcessorINS0_4hipc6client38Hipc2ClientSessionManagedProxyKindBaseINS5_18Hipc2ProxyKindBaseILNS4_6detail11MessageTypeE6EEEEENS1_6detail14CoreMethodInfoINSt3__15tupleIJNSC_18OutRawArgumentInfoILm8ELm8ELl8EEENSG_ILm4ELm4ELl0EEENSC_18BufferArgumentInfoILi0ELi6ELm0EEEEEELm0ELm16ELb0EEESL_E7ProcessEPNS2_23CmifDomainClientMessageISB_E15ProxyBaseObjectENS2_24OutRawClientArgumentTypeILm8ELm8EEENSS_ILm4ELm4EEENS2_24BufferClientArgumentTypeEj
 00000000:000000710005CEA0       _ZN2nn2sf4cmif6client32GetClientProcessorWithObjectBaseINS2_15CmifDomainProxyINS0_4hipc6client38Hipc2ClientSessionManagedProxyKindBaseINS6_18Hipc2ProxyKindBaseILNS5_6detail11MessageTypeE6EEEEEEEE14ObjectAssignerINS0_30MemoryResourceAllocationPolicyENS_14MemoryResourceEE14AllocateObjectINS_2am7service22IGlobalStateControllerEEEvi
 00000000:000000710005CF50       _ZN2nn2sf6detail38ObjectImplFactoryWithStatefulAllocatorINS0_4cmif6client16CmifProxyFactoryINS_2am7service22IGlobalStateControllerENS4_15CmifDomainProxyINS0_4hipc6client38Hipc2ClientSessionManagedProxyKindBaseINSB_18Hipc2ProxyKindBaseILNSA_6detail11MessageTypeE6EEEEEEENS0_30MemoryResourceAllocationPolicyEE13ServiceObjectESJ_E6Object12AddReferenceEv
 00000000:000000710005CF60       _ZN2nn2sf6detail38ObjectImplFactoryWithStatefulAllocatorINS0_4cmif6client16CmifProxyFactoryINS_2am7service22IGlobalStateControllerENS4_15CmifDomainProxyINS0_4hipc6client38Hipc2ClientSessionManagedProxyKindBaseINSB_18Hipc2ProxyKindBaseILNSA_6detail11MessageTypeE6EEEEEEENS0_30MemoryResourceAllocationPolicyEE13ServiceObjectESJ_E6Object7ReleaseEv
 00000000:000000710005CFC0       _ZN2nn2sf4cmif6client6detail13CmifProxyImplINS_2am7service22IGlobalStateControllerENS2_15CmifDomainProxyINS0_4hipc6client38Hipc2ClientSessionManagedProxyKindBaseINSA_18Hipc2ProxyKindBaseILNS9_6detail11MessageTypeE6EEEEEEENS0_30MemoryResourceAllocationPolicyES7_E12GetProxyInfoEv
 00000000:000000710005CFD0       _ZN2nn2sf4cmif6client6detail13CmifProxyImplINS_2am7service22IGlobalStateControllerENS2_15CmifDomainProxyINS0_4hipc6client38Hipc2ClientSessionManagedProxyKindBaseINSA_18Hipc2ProxyKindBaseILNS9_6detail11MessageTypeE6EEEEEEENS0_30MemoryResourceAllocationPolicyES7_E31_nn_sf_sync_RequestToEnterSleepEv
 00000000:000000710005CFF0       _ZN2nn2sf4cmif6client6detail13CmifProxyImplINS_2am7service22IGlobalStateControllerENS2_15CmifDomainProxyINS0_4hipc6client38Hipc2ClientSessionManagedProxyKindBaseINSA_18Hipc2ProxyKindBaseILNS9_6detail11MessageTypeE6EEEEEEENS0_30MemoryResourceAllocationPolicyES7_E22_nn_sf_sync_EnterSleepEv
 00000000:000000710005D010       _ZN2nn2sf4cmif6client6detail13CmifProxyImplINS_2am7service22IGlobalStateControllerENS2_15CmifDomainProxyINS0_4hipc6client38Hipc2ClientSessionManagedProxyKindBaseINSA_18Hipc2ProxyKindBaseILNS9_6detail11MessageTypeE6EEEEEEENS0_30MemoryResourceAllocationPolicyES7_E30_nn_sf_sync_StartSleepSequenceEb
 00000000:000000710005D040       _ZN2nn2sf4cmif6client6detail13CmifProxyImplINS_2am7service22IGlobalStateControllerENS2_15CmifDomainProxyINS0_4hipc6client38Hipc2ClientSessionManagedProxyKindBaseINSA_18Hipc2ProxyKindBaseILNS9_6detail11MessageTypeE6EEEEEEENS0_30MemoryResourceAllocationPolicyES7_E33_nn_sf_sync_StartShutdownSequenceEv
 00000000:000000710005D060       _ZN2nn2sf4cmif6client6detail13CmifProxyImplINS_2am7service22IGlobalStateControllerENS2_15CmifDomainProxyINS0_4hipc6client38Hipc2ClientSessionManagedProxyKindBaseINSA_18Hipc2ProxyKindBaseILNS9_6detail11MessageTypeE6EEEEEEENS0_30MemoryResourceAllocationPolicyES7_E31_nn_sf_sync_StartRebootSequenceEv
 00000000:000000710005D080       _ZN2nn2sf4cmif6client6detail13CmifProxyImplINS_2am7service22IGlobalStateControllerENS2_15CmifDomainProxyINS0_4hipc6client38Hipc2ClientSessionManagedProxyKindBaseINSA_18Hipc2ProxyKindBaseILNS9_6detail11MessageTypeE6EEEEEEENS0_30MemoryResourceAllocationPolicyES7_E42_nn_sf_sync_LoadAndApplyIdlePolicySettingsEv
 00000000:000000710005D0A0       _ZN2nn2sf4cmif6client6detail13CmifProxyImplINS_2am7service22IGlobalStateControllerENS2_15CmifDomainProxyINS0_4hipc6client38Hipc2ClientSessionManagedProxyKindBaseINSA_18Hipc2ProxyKindBaseILNS9_6detail11MessageTypeE6EEEEEEENS0_30MemoryResourceAllocationPolicyES7_E36_nn_sf_sync_NotifyCecSettingsChangedEv
 00000000:000000710005D0C0       _ZN2nn2sf4cmif6client6detail13CmifProxyImplINS_2am7service22IGlobalStateControllerENS2_15CmifDomainProxyINS0_4hipc6client38Hipc2ClientSessionManagedProxyKindBaseINSA_18Hipc2ProxyKindBaseILNS9_6detail11MessageTypeE6EEEEEEENS0_30MemoryResourceAllocationPolicyES7_E45_nn_sf_sync_SetDefaultHomeButtonLongPressTimeEl
 00000000:000000710005D0E0       _ZN2nn2sf4cmif6client6detail13CmifProxyImplINS_2am7service22IGlobalStateControllerENS2_15CmifDomainProxyINS0_4hipc6client38Hipc2ClientSessionManagedProxyKindBaseINSA_18Hipc2ProxyKindBaseILNS9_6detail11MessageTypeE6EEEEEEENS0_30MemoryResourceAllocationPolicyES7_E42_nn_sf_sync_UpdateDefaultDisplayResolutionEv
 00000000:000000710005D100       _ZN2nn2sf4cmif6client6detail13CmifProxyImplINS_2am7service22IGlobalStateControllerENS2_15CmifDomainProxyINS0_4hipc6client38Hipc2ClientSessionManagedProxyKindBaseINSA_18Hipc2ProxyKindBaseILNS9_6detail11MessageTypeE6EEEEEEENS0_30MemoryResourceAllocationPolicyES7_E29_nn_sf_sync_ShouldSleepOnBootENS0_3OutIbvEE
 00000000:000000710005D120       _ZN2nn2sf4cmif6client6detail13CmifProxyImplINS_2am7service22IGlobalStateControllerENS2_15CmifDomainProxyINS0_4hipc6client38Hipc2ClientSessionManagedProxyKindBaseINSA_18Hipc2ProxyKindBaseILNS9_6detail11MessageTypeE6EEEEEEENS0_30MemoryResourceAllocationPolicyES7_E44_nn_sf_sync_GetHdcpAuthenticationFailedEventENS0_3OutINS0_12NativeHandleEvEE
 00000000:000000710005D140       _ZN2nn2sf4cmif6client6detail13CmifProxyImplINS_2am7service22IGlobalStateControllerENS2_15CmifDomainProxyINS0_4hipc6client38Hipc2ClientSessionManagedProxyKindBaseINSA_18Hipc2ProxyKindBaseILNS9_6detail11MessageTypeE6EEEEEEENS0_30MemoryResourceAllocationPolicyES7_E17GetCmifBaseObjectEv
 00000000:000000710005D150       _ZThn32_N2nn2sf4cmif6client6detail13CmifProxyImplINS_2am7service22IGlobalStateControllerENS2_15CmifDomainProxyINS0_4hipc6client38Hipc2ClientSessionManagedProxyKindBaseINSA_18Hipc2ProxyKindBaseILNS9_6detail11MessageTypeE6EEEEEEENS0_30MemoryResourceAllocationPolicyES7_E17GetCmifBaseObjectEv
 00000000:000000710005D160       _ZN2nn2sf4cmif6client32GetClientProcessorWithObjectBaseINS2_15CmifDomainProxyINS0_4hipc6client38Hipc2ClientSessionManagedProxyKindBaseINS6_18Hipc2ProxyKindBaseILNS5_6detail11MessageTypeE6EEEEEEEE14ObjectAssignerINS0_30MemoryResourceAllocationPolicyENS_14MemoryResourceEE14AllocateObjectINS_2am7service19IApplicationCreatorEEEvi
 00000000:000000710005D210       _ZN2nn2sf6detail38ObjectImplFactoryWithStatefulAllocatorINS0_4cmif6client16CmifProxyFactoryINS_2am7service19IApplicationCreatorENS4_15CmifDomainProxyINS0_4hipc6client38Hipc2ClientSessionManagedProxyKindBaseINSB_18Hipc2ProxyKindBaseILNSA_6detail11MessageTypeE6EEEEEEENS0_30MemoryResourceAllocationPolicyEE13ServiceObjectESJ_E6Object12AddReferenceEv
 00000000:000000710005D220       _ZN2nn2sf6detail38ObjectImplFactoryWithStatefulAllocatorINS0_4cmif6client16CmifProxyFactoryINS_2am7service19IApplicationCreatorENS4_15CmifDomainProxyINS0_4hipc6client38Hipc2ClientSessionManagedProxyKindBaseINSB_18Hipc2ProxyKindBaseILNSA_6detail11MessageTypeE6EEEEEEENS0_30MemoryResourceAllocationPolicyEE13ServiceObjectESJ_E6Object7ReleaseEv
 00000000:000000710005D280       _ZN2nn2sf4cmif6client6detail13CmifProxyImplINS_2am7service19IApplicationCreatorENS2_15CmifDomainProxyINS0_4hipc6client38Hipc2ClientSessionManagedProxyKindBaseINSA_18Hipc2ProxyKindBaseILNS9_6detail11MessageTypeE6EEEEEEENS0_30MemoryResourceAllocationPolicyES7_E12GetProxyInfoEv
 00000000:000000710005D290       _ZN2nn2sf4cmif6client6detail13CmifProxyImplINS_2am7service19IApplicationCreatorENS2_15CmifDomainProxyINS0_4hipc6client38Hipc2ClientSessionManagedProxyKindBaseINSA_18Hipc2ProxyKindBaseILNS9_6detail11MessageTypeE6EEEEEEENS0_30MemoryResourceAllocationPolicyES7_E29_nn_sf_sync_CreateApplicationENS0_3OutINS0_13SharedPointerINS6_20IApplicationAccessorEEEvEENS_3ncm13ApplicationIdE
 00000000:000000710005D340       _ZN2nn2sf4cmif6client6detail13CmifProxyImplINS_2am7service19IApplicationCreatorENS2_15CmifDomainProxyINS0_4hipc6client38Hipc2ClientSessionManagedProxyKindBaseINSA_18Hipc2ProxyKindBaseILNS9_6detail11MessageTypeE6EEEEEEENS0_30MemoryResourceAllocationPolicyES7_E41_nn_sf_sync_PopLaunchRequestedApplicationENS0_3OutINS0_13SharedPointerINS6_20IApplicationAccessorEEEvEE
 00000000:000000710005D3E0       _ZN2nn2sf4cmif6client6detail13CmifProxyImplINS_2am7service19IApplicationCreatorENS2_15CmifDomainProxyINS0_4hipc6client38Hipc2ClientSessionManagedProxyKindBaseINSA_18Hipc2ProxyKindBaseILNS9_6detail11MessageTypeE6EEEEEEENS0_30MemoryResourceAllocationPolicyES7_E35_nn_sf_sync_CreateSystemApplicationENS0_3OutINS0_13SharedPointerINS6_20IApplicationAccessorEEEvEENS_3ncm19SystemApplicationIdE
 00000000:000000710005D490       _ZN2nn2sf4cmif6client6detail13CmifProxyImplINS_2am7service19IApplicationCreatorENS2_15CmifDomainProxyINS0_4hipc6client38Hipc2ClientSessionManagedProxyKindBaseINSA_18Hipc2ProxyKindBaseILNS9_6detail11MessageTypeE6EEEEEEENS0_30MemoryResourceAllocationPolicyES7_E48_nn_sf_sync_PopFloatingApplicationForDevelopmentENS0_3OutINS0_13SharedPointerINS6_20IApplicationAccessorEEEvEE
 00000000:000000710005D530       _ZN2nn2sf4cmif6client6detail13CmifProxyImplINS_2am7service19IApplicationCreatorENS2_15CmifDomainProxyINS0_4hipc6client38Hipc2ClientSessionManagedProxyKindBaseINSA_18Hipc2ProxyKindBaseILNS9_6detail11MessageTypeE6EEEEEEENS0_30MemoryResourceAllocationPolicyES7_E17GetCmifBaseObjectEv
 00000000:000000710005D540       _ZThn32_N2nn2sf4cmif6client6detail13CmifProxyImplINS_2am7service19IApplicationCreatorENS2_15CmifDomainProxyINS0_4hipc6client38Hipc2ClientSessionManagedProxyKindBaseINSA_18Hipc2ProxyKindBaseILNS9_6detail11MessageTypeE6EEEEEEENS0_30MemoryResourceAllocationPolicyES7_E17GetCmifBaseObjectEv
 00000000:000000710005D550       _ZN2nn2sf4cmif6client32GetClientProcessorWithObjectBaseINS2_15CmifDomainProxyINS0_4hipc6client38Hipc2ClientSessionManagedProxyKindBaseINS6_18Hipc2ProxyKindBaseILNS5_6detail11MessageTypeE6EEEEEEEE14ObjectAssignerINS0_30MemoryResourceAllocationPolicyENS_14MemoryResourceEE14AllocateObjectINS_2am7service19ILibraryAppletProxyEEEvi
 00000000:000000710005D600       _ZN2nn2sf6detail38ObjectImplFactoryWithStatefulAllocatorINS0_4cmif6client16CmifProxyFactoryINS_2am7service19ILibraryAppletProxyENS4_15CmifDomainProxyINS0_4hipc6client38Hipc2ClientSessionManagedProxyKindBaseINSB_18Hipc2ProxyKindBaseILNSA_6detail11MessageTypeE6EEEEEEENS0_30MemoryResourceAllocationPolicyEE13ServiceObjectESJ_E6Object12AddReferenceEv
 00000000:000000710005D610       _ZN2nn2sf6detail38ObjectImplFactoryWithStatefulAllocatorINS0_4cmif6client16CmifProxyFactoryINS_2am7service19ILibraryAppletProxyENS4_15CmifDomainProxyINS0_4hipc6client38Hipc2ClientSessionManagedProxyKindBaseINSB_18Hipc2ProxyKindBaseILNSA_6detail11MessageTypeE6EEEEEEENS0_30MemoryResourceAllocationPolicyEE13ServiceObjectESJ_E6Object7ReleaseEv
 00000000:000000710005D670       _ZN2nn2sf4cmif6client6detail13CmifProxyImplINS_2am7service18IAppletProxyCommonENS2_15CmifDomainProxyINS0_4hipc6client38Hipc2ClientSessionManagedProxyKindBaseINSA_18Hipc2ProxyKindBaseILNS9_6detail11MessageTypeE6EEEEEEENS0_30MemoryResourceAllocationPolicyENS6_19ILibraryAppletProxyEE12GetProxyInfoEv
 00000000:000000710005D680       _ZN2nn2sf4cmif6client6detail13CmifProxyImplINS_2am7service18IAppletProxyCommonENS2_15CmifDomainProxyINS0_4hipc6client38Hipc2ClientSessionManagedProxyKindBaseINSA_18Hipc2ProxyKindBaseILNS9_6detail11MessageTypeE6EEEEEEENS0_30MemoryResourceAllocationPolicyENS6_19ILibraryAppletProxyEE32_nn_sf_sync_GetCommonStateGetterENS0_3OutINS0_13SharedPointerINS6_18ICommonStateGetterEEEvEE
 00000000:000000710005D720       _ZN2nn2sf4cmif6client6detail13CmifProxyImplINS_2am7service18IAppletProxyCommonENS2_15CmifDomainProxyINS0_4hipc6client38Hipc2ClientSessionManagedProxyKindBaseINSA_18Hipc2ProxyKindBaseILNS9_6detail11MessageTypeE6EEEEEEENS0_30MemoryResourceAllocationPolicyENS6_19ILibraryAppletProxyEE29_nn_sf_sync_GetSelfControllerENS0_3OutINS0_13SharedPointerINS6_15ISelfControllerEEEvEE
 00000000:000000710005D7C0       _ZN2nn2sf4cmif6client6detail13CmifProxyImplINS_2am7service18IAppletProxyCommonENS2_15CmifDomainProxyINS0_4hipc6client38Hipc2ClientSessionManagedProxyKindBaseINSA_18Hipc2ProxyKindBaseILNS9_6detail11MessageTypeE6EEEEEEENS0_30MemoryResourceAllocationPolicyENS6_19ILibraryAppletProxyEE31_nn_sf_sync_GetWindowControllerENS0_3OutINS0_13SharedPointerINS6_17IWindowControllerEEEvEE
 00000000:000000710005D860       _ZN2nn2sf4cmif6client6detail13CmifProxyImplINS_2am7service18IAppletProxyCommonENS2_15CmifDomainProxyINS0_4hipc6client38Hipc2ClientSessionManagedProxyKindBaseINSA_18Hipc2ProxyKindBaseILNS9_6detail11MessageTypeE6EEEEEEENS0_30MemoryResourceAllocationPolicyENS6_19ILibraryAppletProxyEE30_nn_sf_sync_GetAudioControllerENS0_3OutINS0_13SharedPointerINS6_16IAudioControllerEEEvEE
 00000000:000000710005D900       _ZN2nn2sf4cmif6client6detail13CmifProxyImplINS_2am7service18IAppletProxyCommonENS2_15CmifDomainProxyINS0_4hipc6client38Hipc2ClientSessionManagedProxyKindBaseINSA_18Hipc2ProxyKindBaseILNS9_6detail11MessageTypeE6EEEEEEENS0_30MemoryResourceAllocationPolicyENS6_19ILibraryAppletProxyEE32_nn_sf_sync_GetDisplayControllerENS0_3OutINS0_13SharedPointerINS6_18IDisplayControllerEEEvEE
 00000000:000000710005D9A0       _ZN2nn2sf4cmif6client6detail13CmifProxyImplINS_2am7service18IAppletProxyCommonENS2_15CmifDomainProxyINS0_4hipc6client38Hipc2ClientSessionManagedProxyKindBaseINSA_18Hipc2ProxyKindBaseILNS9_6detail11MessageTypeE6EEEEEEENS0_30MemoryResourceAllocationPolicyENS6_19ILibraryAppletProxyEE29_nn_sf_sync_GetDebugFunctionsENS0_3OutINS0_13SharedPointerINS6_15IDebugFunctionsEEEvEE
 00000000:000000710005DA40       _ZN2nn2sf4cmif6client6detail13CmifProxyImplINS_2am7service21IStackableAppletProxyENS2_15CmifDomainProxyINS0_4hipc6client38Hipc2ClientSessionManagedProxyKindBaseINSA_18Hipc2ProxyKindBaseILNS9_6detail11MessageTypeE6EEEEEEENS0_30MemoryResourceAllocationPolicyENS6_19ILibraryAppletProxyEE39_nn_sf_sync_GetProcessWindingControllerENS0_3OutINS0_13SharedPointerINS6_25IProcessWindingControllerEEEvEE
 00000000:000000710005DAE0       _ZN2nn2sf4cmif6client6detail13CmifProxyImplINS_2am7service21IStackableAppletProxyENS2_15CmifDomainProxyINS0_4hipc6client38Hipc2ClientSessionManagedProxyKindBaseINSA_18Hipc2ProxyKindBaseILNS9_6detail11MessageTypeE6EEEEEEENS0_30MemoryResourceAllocationPolicyENS6_19ILibraryAppletProxyEE35_nn_sf_sync_GetLibraryAppletCreatorENS0_3OutINS0_13SharedPointerINS6_21ILibraryAppletCreatorEEEvEE
 00000000:000000710005DB80       _ZN2nn2sf4cmif6client6detail13CmifProxyImplINS_2am7service19ILibraryAppletProxyENS2_15CmifDomainProxyINS0_4hipc6client38Hipc2ClientSessionManagedProxyKindBaseINSA_18Hipc2ProxyKindBaseILNS9_6detail11MessageTypeE6EEEEEEENS0_30MemoryResourceAllocationPolicyES7_E41_nn_sf_sync_OpenLibraryAppletSelfAccessorENS0_3OutINS0_13SharedPointerINS6_26ILibraryAppletSelfAccessorEEEvEE
 00000000:000000710005DC20       _ZN2nn2sf4cmif6client6detail13CmifProxyImplINS_2am7service18IAppletProxyCommonENS2_15CmifDomainProxyINS0_4hipc6client38Hipc2ClientSessionManagedProxyKindBaseINSA_18Hipc2ProxyKindBaseILNS9_6detail11MessageTypeE6EEEEEEENS0_30MemoryResourceAllocationPolicyENS6_19ILibraryAppletProxyEE17GetCmifBaseObjectEv
 00000000:000000710005DC30       _ZThn32_N2nn2sf4cmif6client6detail13CmifProxyImplINS_2am7service18IAppletProxyCommonENS2_15CmifDomainProxyINS0_4hipc6client38Hipc2ClientSessionManagedProxyKindBaseINSA_18Hipc2ProxyKindBaseILNS9_6detail11MessageTypeE6EEEEEEENS0_30MemoryResourceAllocationPolicyENS6_19ILibraryAppletProxyEE17GetCmifBaseObjectEv
 00000000:000000710005DC40       _ZN2nn2sf4cmif6client32GetClientProcessorWithObjectBaseINS2_15CmifDomainProxyINS0_4hipc6client38Hipc2ClientSessionManagedProxyKindBaseINS6_18Hipc2ProxyKindBaseILNS5_6detail11MessageTypeE6EEEEEEEE14ObjectAssignerINS0_30MemoryResourceAllocationPolicyENS_14MemoryResourceEE14AllocateObjectINS_2am7service26ILibraryAppletSelfAccessorEEEvi
 00000000:000000710005DCF0       _ZN2nn2sf6detail38ObjectImplFactoryWithStatefulAllocatorINS0_4cmif6client16CmifProxyFactoryINS_2am7service26ILibraryAppletSelfAccessorENS4_15CmifDomainProxyINS0_4hipc6client38Hipc2ClientSessionManagedProxyKindBaseINSB_18Hipc2ProxyKindBaseILNSA_6detail11MessageTypeE6EEEEEEENS0_30MemoryResourceAllocationPolicyEE13ServiceObjectESJ_E6Object12AddReferenceEv
 00000000:000000710005DD00       _ZN2nn2sf6detail38ObjectImplFactoryWithStatefulAllocatorINS0_4cmif6client16CmifProxyFactoryINS_2am7service26ILibraryAppletSelfAccessorENS4_15CmifDomainProxyINS0_4hipc6client38Hipc2ClientSessionManagedProxyKindBaseINSB_18Hipc2ProxyKindBaseILNSA_6detail11MessageTypeE6EEEEEEENS0_30MemoryResourceAllocationPolicyEE13ServiceObjectESJ_E6Object7ReleaseEv
 00000000:000000710005DD60       _ZN2nn2sf4cmif6client6detail13CmifProxyImplINS_2am7service26ILibraryAppletSelfAccessorENS2_15CmifDomainProxyINS0_4hipc6client38Hipc2ClientSessionManagedProxyKindBaseINSA_18Hipc2ProxyKindBaseILNS9_6detail11MessageTypeE6EEEEEEENS0_30MemoryResourceAllocationPolicyES7_E12GetProxyInfoEv
 00000000:000000710005DD70       _ZN2nn2sf4cmif6client6detail13CmifProxyImplINS_2am7service26ILibraryAppletSelfAccessorENS2_15CmifDomainProxyINS0_4hipc6client38Hipc2ClientSessionManagedProxyKindBaseINSA_18Hipc2ProxyKindBaseILNS9_6detail11MessageTypeE6EEEEEEENS0_30MemoryResourceAllocationPolicyES7_E21_nn_sf_sync_PopInDataENS0_3OutINS0_13SharedPointerINS6_8IStorageEEEvEE
 00000000:000000710005DE10       _ZN2nn2sf4cmif6client6detail13CmifProxyImplINS_2am7service26ILibraryAppletSelfAccessorENS2_15CmifDomainProxyINS0_4hipc6client38Hipc2ClientSessionManagedProxyKindBaseINSA_18Hipc2ProxyKindBaseILNS9_6detail11MessageTypeE6EEEEEEENS0_30MemoryResourceAllocationPolicyES7_E23_nn_sf_sync_PushOutDataENS0_13SharedPointerINS6_8IStorageEEE
 00000000:000000710005DE60       _ZN2nn2sf4cmif6client6detail13CmifProxyImplINS_2am7service26ILibraryAppletSelfAccessorENS2_15CmifDomainProxyINS0_4hipc6client38Hipc2ClientSessionManagedProxyKindBaseINSA_18Hipc2ProxyKindBaseILNS9_6detail11MessageTypeE6EEEEEEENS0_30MemoryResourceAllocationPolicyES7_E32_nn_sf_sync_PopInteractiveInDataENS0_3OutINS0_13SharedPointerINS6_8IStorageEEEvEE
 00000000:000000710005DF00       _ZN2nn2sf4cmif6client6detail13CmifProxyImplINS_2am7service26ILibraryAppletSelfAccessorENS2_15CmifDomainProxyINS0_4hipc6client38Hipc2ClientSessionManagedProxyKindBaseINSA_18Hipc2ProxyKindBaseILNS9_6detail11MessageTypeE6EEEEEEENS0_30MemoryResourceAllocationPolicyES7_E34_nn_sf_sync_PushInteractiveOutDataENS0_13SharedPointerINS6_8IStorageEEE
 00000000:000000710005DF50       _ZN2nn2sf4cmif6client6detail13CmifProxyImplINS_2am7service26ILibraryAppletSelfAccessorENS2_15CmifDomainProxyINS0_4hipc6client38Hipc2ClientSessionManagedProxyKindBaseINSA_18Hipc2ProxyKindBaseILNS9_6detail11MessageTypeE6EEEEEEENS0_30MemoryResourceAllocationPolicyES7_E29_nn_sf_sync_GetPopInDataEventENS0_3OutINS0_12NativeHandleEvEE
 00000000:000000710005DF70       _ZN2nn2sf4cmif6client6detail13CmifProxyImplINS_2am7service26ILibraryAppletSelfAccessorENS2_15CmifDomainProxyINS0_4hipc6client38Hipc2ClientSessionManagedProxyKindBaseINSA_18Hipc2ProxyKindBaseILNS9_6detail11MessageTypeE6EEEEEEENS0_30MemoryResourceAllocationPolicyES7_E40_nn_sf_sync_GetPopInteractiveInDataEventENS0_3OutINS0_12NativeHandleEvEE
 00000000:000000710005DF90       _ZN2nn2sf4cmif6client6detail13CmifProxyImplINS_2am7service26ILibraryAppletSelfAccessorENS2_15CmifDomainProxyINS0_4hipc6client38Hipc2ClientSessionManagedProxyKindBaseINSA_18Hipc2ProxyKindBaseILNS9_6detail11MessageTypeE6EEEEEEENS0_30MemoryResourceAllocationPolicyES7_E32_nn_sf_sync_ExitProcessAndReturnEv
 00000000:000000710005DFB0       _ZN2nn2sf4cmif6client6detail13CmifProxyImplINS_2am7service26ILibraryAppletSelfAccessorENS2_15CmifDomainProxyINS0_4hipc6client38Hipc2ClientSessionManagedProxyKindBaseINSA_18Hipc2ProxyKindBaseILNS9_6detail11MessageTypeE6EEEEEEENS0_30MemoryResourceAllocationPolicyES7_E32_nn_sf_sync_GetLibraryAppletInfoENS0_3OutINS6_17LibraryAppletInfoEvEE
 00000000:000000710005DFD0       _ZN2nn2sf4cmif6client6detail13CmifProxyImplINS_2am7service26ILibraryAppletSelfAccessorENS2_15CmifDomainProxyINS0_4hipc6client38Hipc2ClientSessionManagedProxyKindBaseINSA_18Hipc2ProxyKindBaseILNS9_6detail11MessageTypeE6EEEEEEENS0_30MemoryResourceAllocationPolicyES7_E37_nn_sf_sync_GetMainAppletIdentityInfoENS0_3OutINS6_18AppletIdentityInfoEvEE
 00000000:000000710005DFF0       _ZN2nn2sf4cmif6client6detail13CmifProxyImplINS_2am7service26ILibraryAppletSelfAccessorENS2_15CmifDomainProxyINS0_4hipc6client38Hipc2ClientSessionManagedProxyKindBaseINSA_18Hipc2ProxyKindBaseILNS9_6detail11MessageTypeE6EEEEEEENS0_30MemoryResourceAllocationPolicyES7_E33_nn_sf_sync_CanUseApplicationCoreENS0_3OutIbvEE
 00000000:000000710005E010       _ZN2nn2sf4cmif6client6detail13CmifProxyImplINS_2am7service26ILibraryAppletSelfAccessorENS2_15CmifDomainProxyINS0_4hipc6client38Hipc2ClientSessionManagedProxyKindBaseINSA_18Hipc2ProxyKindBaseILNS9_6detail11MessageTypeE6EEEEEEENS0_30MemoryResourceAllocationPolicyES7_E39_nn_sf_sync_GetCallerAppletIdentityInfoENS0_3OutINS6_18AppletIdentityInfoEvEE
 00000000:000000710005E030       _ZN2nn2sf4cmif6client6detail13CmifProxyImplINS_2am7service26ILibraryAppletSelfAccessorENS2_15CmifDomainProxyINS0_4hipc6client38Hipc2ClientSessionManagedProxyKindBaseINSA_18Hipc2ProxyKindBaseILNS9_6detail11MessageTypeE6EEEEEEENS0_30MemoryResourceAllocationPolicyES7_E51_nn_sf_sync_GetMainAppletApplicationControlPropertyENS0_3OutINS_2ns26ApplicationControlPropertyEvEE
 00000000:000000710005E060       _ZN2nn2sf4cmif6client6detail13CmifProxyImplINS_2am7service26ILibraryAppletSelfAccessorENS2_15CmifDomainProxyINS0_4hipc6client38Hipc2ClientSessionManagedProxyKindBaseINSA_18Hipc2ProxyKindBaseILNS9_6detail11MessageTypeE6EEEEEEENS0_30MemoryResourceAllocationPolicyES7_E34_nn_sf_sync_GetMainAppletStorageIdENS0_3OutINS_3ncm9StorageIdEvEE
 00000000:000000710005E080       _ZN2nn2sf4cmif6client6detail13CmifProxyImplINS_2am7service26ILibraryAppletSelfAccessorENS2_15CmifDomainProxyINS0_4hipc6client38Hipc2ClientSessionManagedProxyKindBaseINSA_18Hipc2ProxyKindBaseILNS9_6detail11MessageTypeE6EEEEEEENS0_30MemoryResourceAllocationPolicyES7_E44_nn_sf_sync_GetCallerAppletIdentityInfoStackENS0_3OutIivEERKNS0_8OutArrayINS6_18AppletIdentityInfoEEE
 00000000:000000710005E0B0       _ZN2nn2sf4cmif6client6detail13CmifProxyImplINS_2am7service26ILibraryAppletSelfAccessorENS2_15CmifDomainProxyINS0_4hipc6client38Hipc2ClientSessionManagedProxyKindBaseINSA_18Hipc2ProxyKindBaseILNS9_6detail11MessageTypeE6EEEEEEENS0_30MemoryResourceAllocationPolicyES7_E54_nn_sf_sync_GetNextReturnDestinationAppletIdentityInfoENS0_3OutINS6_18AppletIdentityInfoEvEE
 00000000:000000710005E0D0       _ZN2nn2sf4cmif6client6detail13CmifProxyImplINS_2am7service26ILibraryAppletSelfAccessorENS2_15CmifDomainProxyINS0_4hipc6client38Hipc2ClientSessionManagedProxyKindBaseINSA_18Hipc2ProxyKindBaseILNS9_6detail11MessageTypeE6EEEEEEENS0_30MemoryResourceAllocationPolicyES7_E38_nn_sf_sync_GetDesirableKeyboardLayoutENS0_3OutIjvEE
 00000000:000000710005E0F0       _ZN2nn2sf4cmif6client6detail13CmifProxyImplINS_2am7service26ILibraryAppletSelfAccessorENS2_15CmifDomainProxyINS0_4hipc6client38Hipc2ClientSessionManagedProxyKindBaseINSA_18Hipc2ProxyKindBaseILNS9_6detail11MessageTypeE6EEEEEEENS0_30MemoryResourceAllocationPolicyES7_E27_nn_sf_sync_PopExtraStorageENS0_3OutINS0_13SharedPointerINS6_8IStorageEEEvEE
 00000000:000000710005E190       _ZN2nn2sf4cmif6client6detail13CmifProxyImplINS_2am7service26ILibraryAppletSelfAccessorENS2_15CmifDomainProxyINS0_4hipc6client38Hipc2ClientSessionManagedProxyKindBaseINSA_18Hipc2ProxyKindBaseILNS9_6detail11MessageTypeE6EEEEEEENS0_30MemoryResourceAllocationPolicyES7_E35_nn_sf_sync_GetPopExtraStorageEventENS0_3OutINS0_12NativeHandleEvEE
 00000000:000000710005E1B0       _ZN2nn2sf4cmif6client6detail13CmifProxyImplINS_2am7service26ILibraryAppletSelfAccessorENS2_15CmifDomainProxyINS0_4hipc6client38Hipc2ClientSessionManagedProxyKindBaseINSA_18Hipc2ProxyKindBaseILNS9_6detail11MessageTypeE6EEEEEEENS0_30MemoryResourceAllocationPolicyES7_E23_nn_sf_sync_UnpopInDataENS0_13SharedPointerINS6_8IStorageEEE
 00000000:000000710005E200       _ZN2nn2sf4cmif6client6detail13CmifProxyImplINS_2am7service26ILibraryAppletSelfAccessorENS2_15CmifDomainProxyINS0_4hipc6client38Hipc2ClientSessionManagedProxyKindBaseINSA_18Hipc2ProxyKindBaseILNS9_6detail11MessageTypeE6EEEEEEENS0_30MemoryResourceAllocationPolicyES7_E29_nn_sf_sync_UnpopExtraStorageENS0_13SharedPointerINS6_8IStorageEEE
 00000000:000000710005E250       _ZN2nn2sf4cmif6client6detail13CmifProxyImplINS_2am7service26ILibraryAppletSelfAccessorENS2_15CmifDomainProxyINS0_4hipc6client38Hipc2ClientSessionManagedProxyKindBaseINSA_18Hipc2ProxyKindBaseILNS9_6detail11MessageTypeE6EEEEEEENS0_30MemoryResourceAllocationPolicyES7_E42_nn_sf_sync_GetIndirectLayerProducerHandleENS0_3OutImvEE
 00000000:000000710005E270       _ZN2nn2sf4cmif6client6detail13CmifProxyImplINS_2am7service26ILibraryAppletSelfAccessorENS2_15CmifDomainProxyINS0_4hipc6client38Hipc2ClientSessionManagedProxyKindBaseINSA_18Hipc2ProxyKindBaseILNS9_6detail11MessageTypeE6EEEEEEENS0_30MemoryResourceAllocationPolicyES7_E30_nn_sf_sync_ReportVisibleErrorENS_3err9ErrorCodeE
 00000000:000000710005E290       _ZN2nn2sf4cmif6client6detail13CmifProxyImplINS_2am7service26ILibraryAppletSelfAccessorENS2_15CmifDomainProxyINS0_4hipc6client38Hipc2ClientSessionManagedProxyKindBaseINSA_18Hipc2ProxyKindBaseILNS9_6detail11MessageTypeE6EEEEEEENS0_30MemoryResourceAllocationPolicyES7_E46_nn_sf_sync_ReportVisibleErrorWithErrorContextENS_3err9ErrorCodeERKNSK_12ErrorContextE
 00000000:000000710005E2C0       _ZN2nn2sf4cmif6client6detail13CmifProxyImplINS_2am7service26ILibraryAppletSelfAccessorENS2_15CmifDomainProxyINS0_4hipc6client38Hipc2ClientSessionManagedProxyKindBaseINSA_18Hipc2ProxyKindBaseILNS9_6detail11MessageTypeE6EEEEEEENS0_30MemoryResourceAllocationPolicyES7_E51_nn_sf_sync_GetMainAppletApplicationDesiredLanguageENS0_3OutINS_8settings12LanguageCodeEvEE
 00000000:000000710005E2E0       _ZN2nn2sf4cmif6client6detail13CmifProxyImplINS_2am7service26ILibraryAppletSelfAccessorENS2_15CmifDomainProxyINS0_4hipc6client38Hipc2ClientSessionManagedProxyKindBaseINSA_18Hipc2ProxyKindBaseILNS9_6detail11MessageTypeE6EEEEEEENS0_30MemoryResourceAllocationPolicyES7_E29_nn_sf_sync_RequestExitToSelfEv
 00000000:000000710005E300       _ZN2nn2sf4cmif6client6detail13CmifProxyImplINS_2am7service26ILibraryAppletSelfAccessorENS2_15CmifDomainProxyINS0_4hipc6client38Hipc2ClientSessionManagedProxyKindBaseINSA_18Hipc2ProxyKindBaseILNS9_6detail11MessageTypeE6EEEEEEENS0_30MemoryResourceAllocationPolicyES7_E54_nn_sf_sync_CreateApplicationAndPushAndRequestToLaunchENS_3ncm13ApplicationIdENS0_13SharedPointerINS6_8IStorageEEE
 00000000:000000710005E350       _ZN2nn2sf4cmif6client6detail13CmifProxyImplINS_2am7service26ILibraryAppletSelfAccessorENS2_15CmifDomainProxyINS0_4hipc6client38Hipc2ClientSessionManagedProxyKindBaseINSA_18Hipc2ProxyKindBaseILNS9_6detail11MessageTypeE6EEEEEEENS0_30MemoryResourceAllocationPolicyES7_E34_nn_sf_sync_CreateGameMovieTrimmerENS0_3OutINS0_13SharedPointerINS_6grcsrv17IGameMovieTrimmerEEEvEEONS0_12NativeHandleEm
 00000000:000000710005E400       _ZN2nn2sf4cmif6client6detail13CmifProxyImplINS_2am7service26ILibraryAppletSelfAccessorENS2_15CmifDomainProxyINS0_4hipc6client38Hipc2ClientSessionManagedProxyKindBaseINSA_18Hipc2ProxyKindBaseILNS9_6detail11MessageTypeE6EEEEEEENS0_30MemoryResourceAllocationPolicyES7_E44_nn_sf_sync_ReserveResourceForMovieOperationEv
 00000000:000000710005E420       _ZN2nn2sf4cmif6client6detail13CmifProxyImplINS_2am7service26ILibraryAppletSelfAccessorENS2_15CmifDomainProxyINS0_4hipc6client38Hipc2ClientSessionManagedProxyKindBaseINSA_18Hipc2ProxyKindBaseILNS9_6detail11MessageTypeE6EEEEEEENS0_30MemoryResourceAllocationPolicyES7_E46_nn_sf_sync_UnreserveResourceForMovieOperationEv
 00000000:000000710005E440       _ZN2nn2sf4cmif6client6detail13CmifProxyImplINS_2am7service26ILibraryAppletSelfAccessorENS2_15CmifDomainProxyINS0_4hipc6client38Hipc2ClientSessionManagedProxyKindBaseINSA_18Hipc2ProxyKindBaseILNS9_6detail11MessageTypeE6EEEEEEENS0_30MemoryResourceAllocationPolicyES7_E39_nn_sf_sync_GetMainAppletAvailableUsersENS0_3OutIbvEENSK_IivEERKNS0_8OutArrayINS_7account3UidEEE
 00000000:000000710005E470       _ZN2nn2sf4cmif6client6detail13CmifProxyImplINS_2am7service26ILibraryAppletSelfAccessorENS2_15CmifDomainProxyINS0_4hipc6client38Hipc2ClientSessionManagedProxyKindBaseINSA_18Hipc2ProxyKindBaseILNS9_6detail11MessageTypeE6EEEEEEENS0_30MemoryResourceAllocationPolicyES7_E17GetCmifBaseObjectEv
 00000000:000000710005E480       _ZThn32_N2nn2sf4cmif6client6detail13CmifProxyImplINS_2am7service26ILibraryAppletSelfAccessorENS2_15CmifDomainProxyINS0_4hipc6client38Hipc2ClientSessionManagedProxyKindBaseINSA_18Hipc2ProxyKindBaseILNS9_6detail11MessageTypeE6EEEEEEENS0_30MemoryResourceAllocationPolicyES7_E17GetCmifBaseObjectEv
 00000000:000000710005E490       _ZN2nn2sf4cmif6client34CmifDomainProxyClientCoreProcessorINS0_4hipc6client38Hipc2ClientSessionManagedProxyKindBaseINS5_18Hipc2ProxyKindBaseILNS4_6detail11MessageTypeE6EEEEENS1_6detail14CoreMethodInfoINSt3__15tupleIJNSC_18BufferArgumentInfoILi0ELi22ELm16384EEEEEELm0ELm0ELb0EEESI_E7ProcessEPNS2_23CmifDomainClientMessageISB_E15ProxyBaseObjectENS2_24BufferClientArgumentTypeEj
 00000000:000000710005E690       _ZN2nn2sf4cmif6client34CmifDomainProxyClientCoreProcessorINS0_4hipc6client38Hipc2ClientSessionManagedProxyKindBaseINS5_18Hipc2ProxyKindBaseILNS4_6detail11MessageTypeE6EEEEENS1_6detail14CoreMethodInfoINSt3__15tupleIJNSC_17InRawArgumentInfoILm8ELm4ELl0EEEEEELm8ELm0ELb0EEESI_E7ProcessEPNS2_23CmifDomainClientMessageISB_E15ProxyBaseObjectENS2_23InRawClientArgumentTypeILm8ELm4EvEEj
 00000000:000000710005E7D0       _ZN2nn2sf4cmif6client34CmifDomainProxyClientCoreProcessorINS0_4hipc6client38Hipc2ClientSessionManagedProxyKindBaseINS5_18Hipc2ProxyKindBaseILNS4_6detail11MessageTypeE6EEEEENS1_6detail14CoreMethodInfoINSt3__15tupleIJNSC_17InRawArgumentInfoILm8ELm4ELl0EEENSC_18BufferArgumentInfoILi0ELi21ELm512EEEEEELm8ELm0ELb0EEESK_E7ProcessEPNS2_23CmifDomainClientMessageISB_E15ProxyBaseObjectENS2_23InRawClientArgumentTypeILm8ELm4EvEENS2_24BufferClientArgumentTypeEj
 00000000:000000710005E9E0       _ZN2nn2sf4cmif6client34CmifDomainProxyClientCoreProcessorINS0_4hipc6client38Hipc2ClientSessionManagedProxyKindBaseINS5_18Hipc2ProxyKindBaseILNS4_6detail11MessageTypeE6EEEEENS1_6detail14CoreMethodInfoINSt3__15tupleIJNSC_18OutRawArgumentInfoILm8ELm1ELl0EEEEEELm0ELm8ELb0EEESI_E7ProcessEPNS2_23CmifDomainClientMessageISB_E15ProxyBaseObjectENS2_24OutRawClientArgumentTypeILm8ELm1EEEj
 00000000:000000710005EB30       _ZN2nn2sf4cmif6client34CmifDomainProxyClientCoreProcessorINS0_4hipc6client38Hipc2ClientSessionManagedProxyKindBaseINS5_18Hipc2ProxyKindBaseILNS4_6detail11MessageTypeE6EEEEENS1_6detail14CoreMethodInfoINSt3__15tupleIJNSC_17InRawArgumentInfoILm8ELm8ELl0EEENSC_20InObjectArgumentInfoILi0ELi0EEEEEELm8ELm0ELb0EEESK_E7ProcessEPNS2_23CmifDomainClientMessageISB_E15ProxyBaseObjectENS2_23InRawClientArgumentTypeILm8ELm8EvEENS2_26InObjectClientArgumentTypeEj
 00000000:000000710005ECA0       _ZN2nn2sf4cmif6client32GetClientProcessorWithObjectBaseINS2_15CmifDomainProxyINS0_4hipc6client38Hipc2ClientSessionManagedProxyKindBaseINS6_18Hipc2ProxyKindBaseILNS5_6detail11MessageTypeE6EEEEEEEE14ObjectAssignerINS0_30MemoryResourceAllocationPolicyENS_14MemoryResourceEE14AllocateObjectINS_6grcsrv17IGameMovieTrimmerEEEvi
 00000000:000000710005ED50       _ZN2nn2sf6detail38ObjectImplFactoryWithStatefulAllocatorINS0_4cmif6client16CmifProxyFactoryINS_6grcsrv17IGameMovieTrimmerENS4_15CmifDomainProxyINS0_4hipc6client38Hipc2ClientSessionManagedProxyKindBaseINSA_18Hipc2ProxyKindBaseILNS9_6detail11MessageTypeE6EEEEEEENS0_30MemoryResourceAllocationPolicyEE13ServiceObjectESI_E6Object12AddReferenceEv
 00000000:000000710005ED60       _ZN2nn2sf6detail38ObjectImplFactoryWithStatefulAllocatorINS0_4cmif6client16CmifProxyFactoryINS_6grcsrv17IGameMovieTrimmerENS4_15CmifDomainProxyINS0_4hipc6client38Hipc2ClientSessionManagedProxyKindBaseINSA_18Hipc2ProxyKindBaseILNS9_6detail11MessageTypeE6EEEEEEENS0_30MemoryResourceAllocationPolicyEE13ServiceObjectESI_E6Object7ReleaseEv
 00000000:000000710005EDC0       _ZN2nn2sf4cmif6client6detail13CmifProxyImplINS_6grcsrv17IGameMovieTrimmerENS2_15CmifDomainProxyINS0_4hipc6client38Hipc2ClientSessionManagedProxyKindBaseINS9_18Hipc2ProxyKindBaseILNS8_6detail11MessageTypeE6EEEEEEENS0_30MemoryResourceAllocationPolicyES6_E12GetProxyInfoEv
 00000000:000000710005EDD0       _ZN2nn2sf4cmif6client6detail13CmifProxyImplINS_6grcsrv17IGameMovieTrimmerENS2_15CmifDomainProxyINS0_4hipc6client38Hipc2ClientSessionManagedProxyKindBaseINS9_18Hipc2ProxyKindBaseILNS8_6detail11MessageTypeE6EEEEEEENS0_30MemoryResourceAllocationPolicyES6_E21_nn_sf_sync_BeginTrimERKNS5_11GameMovieIdEii
 00000000:000000710005EE00       _ZN2nn2sf4cmif6client6detail13CmifProxyImplINS_6grcsrv17IGameMovieTrimmerENS2_15CmifDomainProxyINS0_4hipc6client38Hipc2ClientSessionManagedProxyKindBaseINS9_18Hipc2ProxyKindBaseILNS8_6detail11MessageTypeE6EEEEEEENS0_30MemoryResourceAllocationPolicyES6_E19_nn_sf_sync_EndTrimENS0_3OutINS5_11GameMovieIdEvEE
 00000000:000000710005EE20       _ZN2nn2sf4cmif6client6detail13CmifProxyImplINS_6grcsrv17IGameMovieTrimmerENS2_15CmifDomainProxyINS0_4hipc6client38Hipc2ClientSessionManagedProxyKindBaseINS9_18Hipc2ProxyKindBaseILNS8_6detail11MessageTypeE6EEEEEEENS0_30MemoryResourceAllocationPolicyES6_E31_nn_sf_sync_GetNotTrimmingEventENS0_3OutINS0_12NativeHandleEvEE
 00000000:000000710005EE40       _ZN2nn2sf4cmif6client6detail13CmifProxyImplINS_6grcsrv17IGameMovieTrimmerENS2_15CmifDomainProxyINS0_4hipc6client38Hipc2ClientSessionManagedProxyKindBaseINS9_18Hipc2ProxyKindBaseILNS8_6detail11MessageTypeE6EEEEEEENS0_30MemoryResourceAllocationPolicyES6_E28_nn_sf_sync_SetThumbnailRgbaERKNS0_8InBufferEii
 00000000:000000710005EE80       _ZN2nn2sf4cmif6client6detail13CmifProxyImplINS_6grcsrv17IGameMovieTrimmerENS2_15CmifDomainProxyINS0_4hipc6client38Hipc2ClientSessionManagedProxyKindBaseINS9_18Hipc2ProxyKindBaseILNS8_6detail11MessageTypeE6EEEEEEENS0_30MemoryResourceAllocationPolicyES6_E17GetCmifBaseObjectEv
 00000000:000000710005EE90       _ZThn32_N2nn2sf4cmif6client6detail13CmifProxyImplINS_6grcsrv17IGameMovieTrimmerENS2_15CmifDomainProxyINS0_4hipc6client38Hipc2ClientSessionManagedProxyKindBaseINS9_18Hipc2ProxyKindBaseILNS8_6detail11MessageTypeE6EEEEEEENS0_30MemoryResourceAllocationPolicyES6_E17GetCmifBaseObjectEv
 00000000:000000710005EEA0       _ZN2nn2sf4cmif6client34CmifDomainProxyClientCoreProcessorINS0_4hipc6client38Hipc2ClientSessionManagedProxyKindBaseINS5_18Hipc2ProxyKindBaseILNS4_6detail11MessageTypeE6EEEEENS1_6detail14CoreMethodInfoINSt3__15tupleIJNSC_17InRawArgumentInfoILm64ELm8ELl8EEENSG_ILm4ELm4ELl0EEENSG_ILm4ELm4ELl4EEEEEELm72ELm0ELb0EEESK_E7ProcessEPNS2_23CmifDomainClientMessageISB_E15ProxyBaseObjectENS2_23InRawClientArgumentTypeILm64ELm8EvEENSR_ILm4ELm4EvEEST_j
 00000000:000000710005F020       _ZN2nn2sf4cmif6client34CmifDomainProxyClientCoreProcessorINS0_4hipc6client38Hipc2ClientSessionManagedProxyKindBaseINS5_18Hipc2ProxyKindBaseILNS4_6detail11MessageTypeE6EEEEENS1_6detail14CoreMethodInfoINSt3__15tupleIJNSC_18OutRawArgumentInfoILm64ELm8ELl0EEEEEELm0ELm64ELb0EEESI_E7ProcessEPNS2_23CmifDomainClientMessageISB_E15ProxyBaseObjectENS2_24OutRawClientArgumentTypeILm64ELm8EEEj
 00000000:000000710005F180       _ZN2nn2sf4cmif6client34CmifDomainProxyClientCoreProcessorINS0_4hipc6client38Hipc2ClientSessionManagedProxyKindBaseINS5_18Hipc2ProxyKindBaseILNS4_6detail11MessageTypeE6EEEEENS1_6detail14CoreMethodInfoINSt3__15tupleIJNSC_18BufferArgumentInfoILi0ELi69ELm0EEENSC_17InRawArgumentInfoILm4ELm4ELl0EEENSI_ILm4ELm4ELl4EEEEEELm8ELm0ELb0EEESL_E7ProcessEPNS2_23CmifDomainClientMessageISB_E15ProxyBaseObjectENS2_24BufferClientArgumentTypeENS2_23InRawClientArgumentTypeILm4ELm4EvEESU_j
 00000000:000000710005F390       _ZN2nn2sf4cmif6client34CmifDomainProxyClientCoreProcessorINS0_4hipc6client38Hipc2ClientSessionManagedProxyKindBaseINS5_18Hipc2ProxyKindBaseILNS4_6detail11MessageTypeE6EEEEENS1_6detail14CoreMethodInfoINSt3__15tupleIJNSC_18OutRawArgumentInfoILm1ELm1ELl0EEENSG_ILm4ELm4ELl4EEENSC_18BufferArgumentInfoILi0ELi6ELm0EEEEEELm0ELm8ELb0EEESL_E7ProcessEPNS2_23CmifDomainClientMessageISB_E15ProxyBaseObjectENS2_24OutRawClientArgumentTypeILm1ELm1EEENSS_ILm4ELm4EEENS2_24BufferClientArgumentTypeEj
 00000000:000000710005F5B0       _ZN2nn2sf4cmif6client34CmifDomainProxyClientCoreProcessorINS0_4hipc6client38Hipc2ClientSessionManagedProxyKindBaseINS5_18Hipc2ProxyKindBaseILNS4_6detail11MessageTypeE6EEEEENS1_6detail14CoreMethodInfoINSt3__15tupleIJNSC_21OutObjectArgumentInfoILi0ELi0EEENSC_17InRawArgumentInfoILm8ELm8ELl0EEENSC_20InHandleArgumentInfoILi0ELi1EEENSC_18BufferArgumentInfoILi0ELi21ELm128EEEEEELm8ELm0ELb1EEESO_E21ProcessWithOutObjectsEPNS2_23CmifDomainClientMessageISB_E15ProxyBaseObjectENS2_27OutObjectClientArgumentTypeENS2_23InRawClientArgumentTypeILm8ELm8EvEENS2_26InHandleClientArgumentTypeENS2_24BufferClientArgumentTypeEjPNS0_13SharedPointerINS0_14IServiceObjectEEE
 00000000:000000710005F860       _ZN2nn2sf4cmif6client32GetClientProcessorWithObjectBaseINS2_15CmifDomainProxyINS0_4hipc6client38Hipc2ClientSessionManagedProxyKindBaseINS6_18Hipc2ProxyKindBaseILNS5_6detail11MessageTypeE6EEEEEEEE14ObjectAssignerINS0_30MemoryResourceAllocationPolicyENS_14MemoryResourceEE14AllocateObjectINS_2am7service19IOverlayAppletProxyEEEvi
 00000000:000000710005F910       _ZN2nn2sf6detail38ObjectImplFactoryWithStatefulAllocatorINS0_4cmif6client16CmifProxyFactoryINS_2am7service19IOverlayAppletProxyENS4_15CmifDomainProxyINS0_4hipc6client38Hipc2ClientSessionManagedProxyKindBaseINSB_18Hipc2ProxyKindBaseILNSA_6detail11MessageTypeE6EEEEEEENS0_30MemoryResourceAllocationPolicyEE13ServiceObjectESJ_E6Object12AddReferenceEv
 00000000:000000710005F920       _ZN2nn2sf6detail38ObjectImplFactoryWithStatefulAllocatorINS0_4cmif6client16CmifProxyFactoryINS_2am7service19IOverlayAppletProxyENS4_15CmifDomainProxyINS0_4hipc6client38Hipc2ClientSessionManagedProxyKindBaseINSB_18Hipc2ProxyKindBaseILNSA_6detail11MessageTypeE6EEEEEEENS0_30MemoryResourceAllocationPolicyEE13ServiceObjectESJ_E6Object7ReleaseEv
 00000000:000000710005F980       _ZN2nn2sf4cmif6client6detail13CmifProxyImplINS_2am7service18IAppletProxyCommonENS2_15CmifDomainProxyINS0_4hipc6client38Hipc2ClientSessionManagedProxyKindBaseINSA_18Hipc2ProxyKindBaseILNS9_6detail11MessageTypeE6EEEEEEENS0_30MemoryResourceAllocationPolicyENS6_19IOverlayAppletProxyEE12GetProxyInfoEv
 00000000:000000710005F990       _ZN2nn2sf4cmif6client6detail13CmifProxyImplINS_2am7service18IAppletProxyCommonENS2_15CmifDomainProxyINS0_4hipc6client38Hipc2ClientSessionManagedProxyKindBaseINSA_18Hipc2ProxyKindBaseILNS9_6detail11MessageTypeE6EEEEEEENS0_30MemoryResourceAllocationPolicyENS6_19IOverlayAppletProxyEE32_nn_sf_sync_GetCommonStateGetterENS0_3OutINS0_13SharedPointerINS6_18ICommonStateGetterEEEvEE
 00000000:000000710005FA30       _ZN2nn2sf4cmif6client6detail13CmifProxyImplINS_2am7service18IAppletProxyCommonENS2_15CmifDomainProxyINS0_4hipc6client38Hipc2ClientSessionManagedProxyKindBaseINSA_18Hipc2ProxyKindBaseILNS9_6detail11MessageTypeE6EEEEEEENS0_30MemoryResourceAllocationPolicyENS6_19IOverlayAppletProxyEE29_nn_sf_sync_GetSelfControllerENS0_3OutINS0_13SharedPointerINS6_15ISelfControllerEEEvEE
 00000000:000000710005FAD0       _ZN2nn2sf4cmif6client6detail13CmifProxyImplINS_2am7service18IAppletProxyCommonENS2_15CmifDomainProxyINS0_4hipc6client38Hipc2ClientSessionManagedProxyKindBaseINSA_18Hipc2ProxyKindBaseILNS9_6detail11MessageTypeE6EEEEEEENS0_30MemoryResourceAllocationPolicyENS6_19IOverlayAppletProxyEE31_nn_sf_sync_GetWindowControllerENS0_3OutINS0_13SharedPointerINS6_17IWindowControllerEEEvEE
 00000000:000000710005FB70       _ZN2nn2sf4cmif6client6detail13CmifProxyImplINS_2am7service18IAppletProxyCommonENS2_15CmifDomainProxyINS0_4hipc6client38Hipc2ClientSessionManagedProxyKindBaseINSA_18Hipc2ProxyKindBaseILNS9_6detail11MessageTypeE6EEEEEEENS0_30MemoryResourceAllocationPolicyENS6_19IOverlayAppletProxyEE30_nn_sf_sync_GetAudioControllerENS0_3OutINS0_13SharedPointerINS6_16IAudioControllerEEEvEE
 00000000:000000710005FC10       _ZN2nn2sf4cmif6client6detail13CmifProxyImplINS_2am7service18IAppletProxyCommonENS2_15CmifDomainProxyINS0_4hipc6client38Hipc2ClientSessionManagedProxyKindBaseINSA_18Hipc2ProxyKindBaseILNS9_6detail11MessageTypeE6EEEEEEENS0_30MemoryResourceAllocationPolicyENS6_19IOverlayAppletProxyEE32_nn_sf_sync_GetDisplayControllerENS0_3OutINS0_13SharedPointerINS6_18IDisplayControllerEEEvEE
 00000000:000000710005FCB0       _ZN2nn2sf4cmif6client6detail13CmifProxyImplINS_2am7service18IAppletProxyCommonENS2_15CmifDomainProxyINS0_4hipc6client38Hipc2ClientSessionManagedProxyKindBaseINSA_18Hipc2ProxyKindBaseILNS9_6detail11MessageTypeE6EEEEEEENS0_30MemoryResourceAllocationPolicyENS6_19IOverlayAppletProxyEE29_nn_sf_sync_GetDebugFunctionsENS0_3OutINS0_13SharedPointerINS6_15IDebugFunctionsEEEvEE
 00000000:000000710005FD50       _ZN2nn2sf4cmif6client6detail13CmifProxyImplINS_2am7service21IStackableAppletProxyENS2_15CmifDomainProxyINS0_4hipc6client38Hipc2ClientSessionManagedProxyKindBaseINSA_18Hipc2ProxyKindBaseILNS9_6detail11MessageTypeE6EEEEEEENS0_30MemoryResourceAllocationPolicyENS6_19IOverlayAppletProxyEE39_nn_sf_sync_GetProcessWindingControllerENS0_3OutINS0_13SharedPointerINS6_25IProcessWindingControllerEEEvEE
 00000000:000000710005FDF0       _ZN2nn2sf4cmif6client6detail13CmifProxyImplINS_2am7service21IStackableAppletProxyENS2_15CmifDomainProxyINS0_4hipc6client38Hipc2ClientSessionManagedProxyKindBaseINSA_18Hipc2ProxyKindBaseILNS9_6detail11MessageTypeE6EEEEEEENS0_30MemoryResourceAllocationPolicyENS6_19IOverlayAppletProxyEE35_nn_sf_sync_GetLibraryAppletCreatorENS0_3OutINS0_13SharedPointerINS6_21ILibraryAppletCreatorEEEvEE
 00000000:000000710005FE90       _ZN2nn2sf4cmif6client6detail13CmifProxyImplINS_2am7service19IOverlayAppletProxyENS2_15CmifDomainProxyINS0_4hipc6client38Hipc2ClientSessionManagedProxyKindBaseINSA_18Hipc2ProxyKindBaseILNS9_6detail11MessageTypeE6EEEEEEENS0_30MemoryResourceAllocationPolicyES7_E31_nn_sf_sync_GetOverlayFunctionsENS0_3OutINS0_13SharedPointerINS6_17IOverlayFunctionsEEEvEE
 00000000:000000710005FF30       _ZN2nn2sf4cmif6client6detail13CmifProxyImplINS_2am7service18IAppletProxyCommonENS2_15CmifDomainProxyINS0_4hipc6client38Hipc2ClientSessionManagedProxyKindBaseINSA_18Hipc2ProxyKindBaseILNS9_6detail11MessageTypeE6EEEEEEENS0_30MemoryResourceAllocationPolicyENS6_19IOverlayAppletProxyEE17GetCmifBaseObjectEv
 00000000:000000710005FF40       _ZThn32_N2nn2sf4cmif6client6detail13CmifProxyImplINS_2am7service18IAppletProxyCommonENS2_15CmifDomainProxyINS0_4hipc6client38Hipc2ClientSessionManagedProxyKindBaseINSA_18Hipc2ProxyKindBaseILNS9_6detail11MessageTypeE6EEEEEEENS0_30MemoryResourceAllocationPolicyENS6_19IOverlayAppletProxyEE17GetCmifBaseObjectEv
 00000000:000000710005FF50       _ZN2nn2sf4cmif6client32GetClientProcessorWithObjectBaseINS2_15CmifDomainProxyINS0_4hipc6client38Hipc2ClientSessionManagedProxyKindBaseINS6_18Hipc2ProxyKindBaseILNS5_6detail11MessageTypeE6EEEEEEEE14ObjectAssignerINS0_30MemoryResourceAllocationPolicyENS_14MemoryResourceEE14AllocateObjectINS_2am7service17IOverlayFunctionsEEEvi
 00000000:0000007100060000       _ZN2nn2sf6detail38ObjectImplFactoryWithStatefulAllocatorINS0_4cmif6client16CmifProxyFactoryINS_2am7service17IOverlayFunctionsENS4_15CmifDomainProxyINS0_4hipc6client38Hipc2ClientSessionManagedProxyKindBaseINSB_18Hipc2ProxyKindBaseILNSA_6detail11MessageTypeE6EEEEEEENS0_30MemoryResourceAllocationPolicyEE13ServiceObjectESJ_E6Object12AddReferenceEv
 00000000:0000007100060010       _ZN2nn2sf6detail38ObjectImplFactoryWithStatefulAllocatorINS0_4cmif6client16CmifProxyFactoryINS_2am7service17IOverlayFunctionsENS4_15CmifDomainProxyINS0_4hipc6client38Hipc2ClientSessionManagedProxyKindBaseINSB_18Hipc2ProxyKindBaseILNSA_6detail11MessageTypeE6EEEEEEENS0_30MemoryResourceAllocationPolicyEE13ServiceObjectESJ_E6Object7ReleaseEv
 00000000:0000007100060070       _ZN2nn2sf4cmif6client6detail13CmifProxyImplINS_2am7service17IOverlayFunctionsENS2_15CmifDomainProxyINS0_4hipc6client38Hipc2ClientSessionManagedProxyKindBaseINSA_18Hipc2ProxyKindBaseILNS9_6detail11MessageTypeE6EEEEEEENS0_30MemoryResourceAllocationPolicyES7_E12GetProxyInfoEv
 00000000:0000007100060080       _ZN2nn2sf4cmif6client6detail13CmifProxyImplINS_2am7service17IOverlayFunctionsENS2_15CmifDomainProxyINS0_4hipc6client38Hipc2ClientSessionManagedProxyKindBaseINSA_18Hipc2ProxyKindBaseILNS9_6detail11MessageTypeE6EEEEEEENS0_30MemoryResourceAllocationPolicyES7_E46_nn_sf_sync_BeginToWatchShortHomeButtonMessageEv
 00000000:00000071000600A0       _ZN2nn2sf4cmif6client6detail13CmifProxyImplINS_2am7service17IOverlayFunctionsENS2_15CmifDomainProxyINS0_4hipc6client38Hipc2ClientSessionManagedProxyKindBaseINSA_18Hipc2ProxyKindBaseILNS9_6detail11MessageTypeE6EEEEEEENS0_30MemoryResourceAllocationPolicyES7_E44_nn_sf_sync_EndToWatchShortHomeButtonMessageEv
 00000000:00000071000600C0       _ZN2nn2sf4cmif6client6detail13CmifProxyImplINS_2am7service17IOverlayFunctionsENS2_15CmifDomainProxyINS0_4hipc6client38Hipc2ClientSessionManagedProxyKindBaseINSA_18Hipc2ProxyKindBaseILNS9_6detail11MessageTypeE6EEEEEEENS0_30MemoryResourceAllocationPolicyES7_E35_nn_sf_sync_GetApplicationIdForLogoENS0_3OutINS_3ncm13ApplicationIdEvEE
 00000000:00000071000600E0       _ZN2nn2sf4cmif6client6detail13CmifProxyImplINS_2am7service17IOverlayFunctionsENS2_15CmifDomainProxyINS0_4hipc6client38Hipc2ClientSessionManagedProxyKindBaseINSA_18Hipc2ProxyKindBaseILNS9_6detail11MessageTypeE6EEEEEEENS0_30MemoryResourceAllocationPolicyES7_E32_nn_sf_sync_SetGpuTimeSliceBoostEm
 00000000:0000007100060100       _ZN2nn2sf4cmif6client6detail13CmifProxyImplINS_2am7service17IOverlayFunctionsENS2_15CmifDomainProxyINS0_4hipc6client38Hipc2ClientSessionManagedProxyKindBaseINSA_18Hipc2ProxyKindBaseILNS9_6detail11MessageTypeE6EEEEEEENS0_30MemoryResourceAllocationPolicyES7_E49_nn_sf_sync_SetAutoSleepTimeAndDimmingTimeEnabledEb
 00000000:0000007100060130       _ZN2nn2sf4cmif6client6detail13CmifProxyImplINS_2am7service17IOverlayFunctionsENS2_15CmifDomainProxyINS0_4hipc6client38Hipc2ClientSessionManagedProxyKindBaseINSA_18Hipc2ProxyKindBaseILNS9_6detail11MessageTypeE6EEEEEEENS0_30MemoryResourceAllocationPolicyES7_E44_nn_sf_sync_TerminateApplicationAndSetReasonEj
 00000000:0000007100060160       _ZN2nn2sf4cmif6client6detail13CmifProxyImplINS_2am7service17IOverlayFunctionsENS2_15CmifDomainProxyINS0_4hipc6client38Hipc2ClientSessionManagedProxyKindBaseINSA_18Hipc2ProxyKindBaseILNS9_6detail11MessageTypeE6EEEEEEENS0_30MemoryResourceAllocationPolicyES7_E43_nn_sf_sync_SetScreenShotPermissionGloballyEb
 00000000:0000007100060190       _ZN2nn2sf4cmif6client6detail13CmifProxyImplINS_2am7service17IOverlayFunctionsENS2_15CmifDomainProxyINS0_4hipc6client38Hipc2ClientSessionManagedProxyKindBaseINSA_18Hipc2ProxyKindBaseILNS9_6detail11MessageTypeE6EEEEEEENS0_30MemoryResourceAllocationPolicyES7_E43_nn_sf_sync_StartShutdownSequenceForOverlayEv
 00000000:00000071000601B0       _ZN2nn2sf4cmif6client6detail13CmifProxyImplINS_2am7service17IOverlayFunctionsENS2_15CmifDomainProxyINS0_4hipc6client38Hipc2ClientSessionManagedProxyKindBaseINSA_18Hipc2ProxyKindBaseILNS9_6detail11MessageTypeE6EEEEEEENS0_30MemoryResourceAllocationPolicyES7_E41_nn_sf_sync_StartRebootSequenceForOverlayEv
 00000000:00000071000601D0       _ZN2nn2sf4cmif6client6detail13CmifProxyImplINS_2am7service17IOverlayFunctionsENS2_15CmifDomainProxyINS0_4hipc6client38Hipc2ClientSessionManagedProxyKindBaseINSA_18Hipc2ProxyKindBaseILNS9_6detail11MessageTypeE6EEEEEEENS0_30MemoryResourceAllocationPolicyES7_E44_nn_sf_sync_BeginToObserveHidInputForDevelopEv
 00000000:00000071000601F0       _ZN2nn2sf4cmif6client6detail13CmifProxyImplINS_2am7service17IOverlayFunctionsENS2_15CmifDomainProxyINS0_4hipc6client38Hipc2ClientSessionManagedProxyKindBaseINSA_18Hipc2ProxyKindBaseILNS9_6detail11MessageTypeE6EEEEEEENS0_30MemoryResourceAllocationPolicyES7_E17GetCmifBaseObjectEv
 00000000:0000007100060200       _ZThn32_N2nn2sf4cmif6client6detail13CmifProxyImplINS_2am7service17IOverlayFunctionsENS2_15CmifDomainProxyINS0_4hipc6client38Hipc2ClientSessionManagedProxyKindBaseINSA_18Hipc2ProxyKindBaseILNS9_6detail11MessageTypeE6EEEEEEENS0_30MemoryResourceAllocationPolicyES7_E17GetCmifBaseObjectEv
 00000000:0000007100060210       _ZN2nn2sf4cmif6client32GetClientProcessorWithObjectBaseINS2_15CmifDomainProxyINS0_4hipc6client38Hipc2ClientSessionManagedProxyKindBaseINS6_18Hipc2ProxyKindBaseILNS5_6detail11MessageTypeE6EEEEEEEE14ObjectAssignerINS0_30MemoryResourceAllocationPolicyENS_14MemoryResourceEE14AllocateObjectINS_2am7service17IApplicationProxyEEEvi
 00000000:00000071000602C0       _ZN2nn2sf6detail38ObjectImplFactoryWithStatefulAllocatorINS0_4cmif6client16CmifProxyFactoryINS_2am7service17IApplicationProxyENS4_15CmifDomainProxyINS0_4hipc6client38Hipc2ClientSessionManagedProxyKindBaseINSB_18Hipc2ProxyKindBaseILNSA_6detail11MessageTypeE6EEEEEEENS0_30MemoryResourceAllocationPolicyEE13ServiceObjectESJ_E6Object12AddReferenceEv
 00000000:00000071000602D0       _ZN2nn2sf6detail38ObjectImplFactoryWithStatefulAllocatorINS0_4cmif6client16CmifProxyFactoryINS_2am7service17IApplicationProxyENS4_15CmifDomainProxyINS0_4hipc6client38Hipc2ClientSessionManagedProxyKindBaseINSB_18Hipc2ProxyKindBaseILNSA_6detail11MessageTypeE6EEEEEEENS0_30MemoryResourceAllocationPolicyEE13ServiceObjectESJ_E6Object7ReleaseEv
 00000000:0000007100060330       _ZN2nn2sf4cmif6client6detail13CmifProxyImplINS_2am7service18IAppletProxyCommonENS2_15CmifDomainProxyINS0_4hipc6client38Hipc2ClientSessionManagedProxyKindBaseINSA_18Hipc2ProxyKindBaseILNS9_6detail11MessageTypeE6EEEEEEENS0_30MemoryResourceAllocationPolicyENS6_17IApplicationProxyEE12GetProxyInfoEv
 00000000:0000007100060340       _ZN2nn2sf4cmif6client6detail13CmifProxyImplINS_2am7service18IAppletProxyCommonENS2_15CmifDomainProxyINS0_4hipc6client38Hipc2ClientSessionManagedProxyKindBaseINSA_18Hipc2ProxyKindBaseILNS9_6detail11MessageTypeE6EEEEEEENS0_30MemoryResourceAllocationPolicyENS6_17IApplicationProxyEE32_nn_sf_sync_GetCommonStateGetterENS0_3OutINS0_13SharedPointerINS6_18ICommonStateGetterEEEvEE
 00000000:00000071000603E0       _ZN2nn2sf4cmif6client6detail13CmifProxyImplINS_2am7service18IAppletProxyCommonENS2_15CmifDomainProxyINS0_4hipc6client38Hipc2ClientSessionManagedProxyKindBaseINSA_18Hipc2ProxyKindBaseILNS9_6detail11MessageTypeE6EEEEEEENS0_30MemoryResourceAllocationPolicyENS6_17IApplicationProxyEE29_nn_sf_sync_GetSelfControllerENS0_3OutINS0_13SharedPointerINS6_15ISelfControllerEEEvEE
 00000000:0000007100060480       _ZN2nn2sf4cmif6client6detail13CmifProxyImplINS_2am7service18IAppletProxyCommonENS2_15CmifDomainProxyINS0_4hipc6client38Hipc2ClientSessionManagedProxyKindBaseINSA_18Hipc2ProxyKindBaseILNS9_6detail11MessageTypeE6EEEEEEENS0_30MemoryResourceAllocationPolicyENS6_17IApplicationProxyEE31_nn_sf_sync_GetWindowControllerENS0_3OutINS0_13SharedPointerINS6_17IWindowControllerEEEvEE
 00000000:0000007100060520       _ZN2nn2sf4cmif6client6detail13CmifProxyImplINS_2am7service18IAppletProxyCommonENS2_15CmifDomainProxyINS0_4hipc6client38Hipc2ClientSessionManagedProxyKindBaseINSA_18Hipc2ProxyKindBaseILNS9_6detail11MessageTypeE6EEEEEEENS0_30MemoryResourceAllocationPolicyENS6_17IApplicationProxyEE30_nn_sf_sync_GetAudioControllerENS0_3OutINS0_13SharedPointerINS6_16IAudioControllerEEEvEE
 00000000:00000071000605C0       _ZN2nn2sf4cmif6client6detail13CmifProxyImplINS_2am7service18IAppletProxyCommonENS2_15CmifDomainProxyINS0_4hipc6client38Hipc2ClientSessionManagedProxyKindBaseINSA_18Hipc2ProxyKindBaseILNS9_6detail11MessageTypeE6EEEEEEENS0_30MemoryResourceAllocationPolicyENS6_17IApplicationProxyEE32_nn_sf_sync_GetDisplayControllerENS0_3OutINS0_13SharedPointerINS6_18IDisplayControllerEEEvEE
 00000000:0000007100060660       _ZN2nn2sf4cmif6client6detail13CmifProxyImplINS_2am7service18IAppletProxyCommonENS2_15CmifDomainProxyINS0_4hipc6client38Hipc2ClientSessionManagedProxyKindBaseINSA_18Hipc2ProxyKindBaseILNS9_6detail11MessageTypeE6EEEEEEENS0_30MemoryResourceAllocationPolicyENS6_17IApplicationProxyEE29_nn_sf_sync_GetDebugFunctionsENS0_3OutINS0_13SharedPointerINS6_15IDebugFunctionsEEEvEE
 00000000:0000007100060700       _ZN2nn2sf4cmif6client6detail13CmifProxyImplINS_2am7service21IStackableAppletProxyENS2_15CmifDomainProxyINS0_4hipc6client38Hipc2ClientSessionManagedProxyKindBaseINSA_18Hipc2ProxyKindBaseILNS9_6detail11MessageTypeE6EEEEEEENS0_30MemoryResourceAllocationPolicyENS6_17IApplicationProxyEE39_nn_sf_sync_GetProcessWindingControllerENS0_3OutINS0_13SharedPointerINS6_25IProcessWindingControllerEEEvEE
 00000000:00000071000607A0       _ZN2nn2sf4cmif6client6detail13CmifProxyImplINS_2am7service21IStackableAppletProxyENS2_15CmifDomainProxyINS0_4hipc6client38Hipc2ClientSessionManagedProxyKindBaseINSA_18Hipc2ProxyKindBaseILNS9_6detail11MessageTypeE6EEEEEEENS0_30MemoryResourceAllocationPolicyENS6_17IApplicationProxyEE35_nn_sf_sync_GetLibraryAppletCreatorENS0_3OutINS0_13SharedPointerINS6_21ILibraryAppletCreatorEEEvEE
 00000000:0000007100060840       _ZN2nn2sf4cmif6client6detail13CmifProxyImplINS_2am7service17IApplicationProxyENS2_15CmifDomainProxyINS0_4hipc6client38Hipc2ClientSessionManagedProxyKindBaseINSA_18Hipc2ProxyKindBaseILNS9_6detail11MessageTypeE6EEEEEEENS0_30MemoryResourceAllocationPolicyES7_E35_nn_sf_sync_GetApplicationFunctionsENS0_3OutINS0_13SharedPointerINS6_21IApplicationFunctionsEEEvEE
 00000000:00000071000608E0       _ZN2nn2sf4cmif6client6detail13CmifProxyImplINS_2am7service18IAppletProxyCommonENS2_15CmifDomainProxyINS0_4hipc6client38Hipc2ClientSessionManagedProxyKindBaseINSA_18Hipc2ProxyKindBaseILNS9_6detail11MessageTypeE6EEEEEEENS0_30MemoryResourceAllocationPolicyENS6_17IApplicationProxyEE17GetCmifBaseObjectEv
 00000000:00000071000608F0       _ZThn32_N2nn2sf4cmif6client6detail13CmifProxyImplINS_2am7service18IAppletProxyCommonENS2_15CmifDomainProxyINS0_4hipc6client38Hipc2ClientSessionManagedProxyKindBaseINSA_18Hipc2ProxyKindBaseILNS9_6detail11MessageTypeE6EEEEEEENS0_30MemoryResourceAllocationPolicyENS6_17IApplicationProxyEE17GetCmifBaseObjectEv
 00000000:0000007100060900       _ZN2nn2sf4cmif6client32GetClientProcessorWithObjectBaseINS2_15CmifDomainProxyINS0_4hipc6client38Hipc2ClientSessionManagedProxyKindBaseINS6_18Hipc2ProxyKindBaseILNS5_6detail11MessageTypeE6EEEEEEEE14ObjectAssignerINS0_30MemoryResourceAllocationPolicyENS_14MemoryResourceEE14AllocateObjectINS_2am7service21IApplicationFunctionsEEEvi
 00000000:00000071000609B0       _ZN2nn2sf6detail38ObjectImplFactoryWithStatefulAllocatorINS0_4cmif6client16CmifProxyFactoryINS_2am7service21IApplicationFunctionsENS4_15CmifDomainProxyINS0_4hipc6client38Hipc2ClientSessionManagedProxyKindBaseINSB_18Hipc2ProxyKindBaseILNSA_6detail11MessageTypeE6EEEEEEENS0_30MemoryResourceAllocationPolicyEE13ServiceObjectESJ_E6Object12AddReferenceEv
 00000000:00000071000609C0       _ZN2nn2sf6detail38ObjectImplFactoryWithStatefulAllocatorINS0_4cmif6client16CmifProxyFactoryINS_2am7service21IApplicationFunctionsENS4_15CmifDomainProxyINS0_4hipc6client38Hipc2ClientSessionManagedProxyKindBaseINSB_18Hipc2ProxyKindBaseILNSA_6detail11MessageTypeE6EEEEEEENS0_30MemoryResourceAllocationPolicyEE13ServiceObjectESJ_E6Object7ReleaseEv
 00000000:0000007100060A20       _ZN2nn2sf4cmif6client6detail13CmifProxyImplINS_2am7service21IApplicationFunctionsENS2_15CmifDomainProxyINS0_4hipc6client38Hipc2ClientSessionManagedProxyKindBaseINSA_18Hipc2ProxyKindBaseILNS9_6detail11MessageTypeE6EEEEEEENS0_30MemoryResourceAllocationPolicyES7_E12GetProxyInfoEv
 00000000:0000007100060A30       _ZN2nn2sf4cmif6client6detail13CmifProxyImplINS_2am7service21IApplicationFunctionsENS2_15CmifDomainProxyINS0_4hipc6client38Hipc2ClientSessionManagedProxyKindBaseINSA_18Hipc2ProxyKindBaseILNS9_6detail11MessageTypeE6EEEEEEENS0_30MemoryResourceAllocationPolicyES7_E30_nn_sf_sync_PopLaunchParameterENS0_3OutINS0_13SharedPointerINS6_8IStorageEEEvEEj
 00000000:0000007100060AE0       _ZN2nn2sf4cmif6client6detail13CmifProxyImplINS_2am7service21IApplicationFunctionsENS2_15CmifDomainProxyINS0_4hipc6client38Hipc2ClientSessionManagedProxyKindBaseINSA_18Hipc2ProxyKindBaseILNS9_6detail11MessageTypeE6EEEEEEENS0_30MemoryResourceAllocationPolicyES7_E53_nn_sf_sync_CreateApplicationAndPushAndRequestToStartENS_3ncm13ApplicationIdENS0_13SharedPointerINS6_8IStorageEEE
 00000000:0000007100060B30       _ZN2nn2sf4cmif6client6detail13CmifProxyImplINS_2am7service21IApplicationFunctionsENS2_15CmifDomainProxyINS0_4hipc6client38Hipc2ClientSessionManagedProxyKindBaseINSA_18Hipc2ProxyKindBaseILNS9_6detail11MessageTypeE6EEEEEEENS0_30MemoryResourceAllocationPolicyES7_E61_nn_sf_sync_CreateApplicationAndPushAndRequestToStartForQuestENS_3ncm13ApplicationIdENS0_13SharedPointerINS6_8IStorageEEEjj
 00000000:0000007100060B90       _ZN2nn2sf4cmif6client6detail13CmifProxyImplINS_2am7service21IApplicationFunctionsENS2_15CmifDomainProxyINS0_4hipc6client38Hipc2ClientSessionManagedProxyKindBaseINSA_18Hipc2ProxyKindBaseILNS9_6detail11MessageTypeE6EEEEEEENS0_30MemoryResourceAllocationPolicyES7_E46_nn_sf_sync_CreateApplicationAndRequestToStartENS_3ncm13ApplicationIdE
 00000000:0000007100060BB0       _ZN2nn2sf4cmif6client6detail13CmifProxyImplINS_2am7service21IApplicationFunctionsENS2_15CmifDomainProxyINS0_4hipc6client38Hipc2ClientSessionManagedProxyKindBaseINSA_18Hipc2ProxyKindBaseILNS9_6detail11MessageTypeE6EEEEEEENS0_30MemoryResourceAllocationPolicyES7_E54_nn_sf_sync_CreateApplicationAndRequestToStartForQuestENS_3ncm13ApplicationIdEjj
 00000000:0000007100060BE0       _ZN2nn2sf4cmif6client6detail13CmifProxyImplINS_2am7service21IApplicationFunctionsENS2_15CmifDomainProxyINS0_4hipc6client38Hipc2ClientSessionManagedProxyKindBaseINSA_18Hipc2ProxyKindBaseILNS9_6detail11MessageTypeE6EEEEEEENS0_30MemoryResourceAllocationPolicyES7_E26_nn_sf_sync_EnsureSaveDataENS0_3OutIlvEERKNS_7account3UidE
 00000000:0000007100060C00       _ZN2nn2sf4cmif6client6detail13CmifProxyImplINS_2am7service21IApplicationFunctionsENS2_15CmifDomainProxyINS0_4hipc6client38Hipc2ClientSessionManagedProxyKindBaseINSA_18Hipc2ProxyKindBaseILNS9_6detail11MessageTypeE6EEEEEEENS0_30MemoryResourceAllocationPolicyES7_E30_nn_sf_sync_GetDesiredLanguageENS0_3OutINS_8settings12LanguageCodeEvEE
 00000000:0000007100060C20       _ZN2nn2sf4cmif6client6detail13CmifProxyImplINS_2am7service21IApplicationFunctionsENS2_15CmifDomainProxyINS0_4hipc6client38Hipc2ClientSessionManagedProxyKindBaseINSA_18Hipc2ProxyKindBaseILNS9_6detail11MessageTypeE6EEEEEEENS0_30MemoryResourceAllocationPolicyES7_E30_nn_sf_sync_SetTerminateResultEj
 00000000:0000007100060C50       _ZN2nn2sf4cmif6client6detail13CmifProxyImplINS_2am7service21IApplicationFunctionsENS2_15CmifDomainProxyINS0_4hipc6client38Hipc2ClientSessionManagedProxyKindBaseINSA_18Hipc2ProxyKindBaseILNS9_6detail11MessageTypeE6EEEEEEENS0_30MemoryResourceAllocationPolicyES7_E29_nn_sf_sync_GetDisplayVersionENS0_3OutINS_2oe14DisplayVersionEvEE
 00000000:0000007100060C70       _ZN2nn2sf4cmif6client6detail13CmifProxyImplINS_2am7service21IApplicationFunctionsENS2_15CmifDomainProxyINS0_4hipc6client38Hipc2ClientSessionManagedProxyKindBaseINSA_18Hipc2ProxyKindBaseILNS9_6detail11MessageTypeE6EEEEEEENS0_30MemoryResourceAllocationPolicyES7_E40_nn_sf_sync_GetLaunchStorageInfoForDebugENS0_3OutINS_3ncm9StorageIdEvEESN_
 00000000:0000007100060C90       _ZN2nn2sf4cmif6client6detail13CmifProxyImplINS_2am7service21IApplicationFunctionsENS2_15CmifDomainProxyINS0_4hipc6client38Hipc2ClientSessionManagedProxyKindBaseINSA_18Hipc2ProxyKindBaseILNS9_6detail11MessageTypeE6EEEEEEENS0_30MemoryResourceAllocationPolicyES7_E26_nn_sf_sync_ExtendSaveDataENS0_3OutIlvEEhRKNS_7account3UidEll
 00000000:0000007100060CC0       _ZN2nn2sf4cmif6client6detail13CmifProxyImplINS_2am7service21IApplicationFunctionsENS2_15CmifDomainProxyINS0_4hipc6client38Hipc2ClientSessionManagedProxyKindBaseINSA_18Hipc2ProxyKindBaseILNS9_6detail11MessageTypeE6EEEEEEENS0_30MemoryResourceAllocationPolicyES7_E27_nn_sf_sync_GetSaveDataSizeENS0_3OutIlvEESL_hRKNS_7account3UidE
 00000000:0000007100060CF0       _ZN2nn2sf4cmif6client6detail13CmifProxyImplINS_2am7service21IApplicationFunctionsENS2_15CmifDomainProxyINS0_4hipc6client38Hipc2ClientSessionManagedProxyKindBaseINSA_18Hipc2ProxyKindBaseILNS9_6detail11MessageTypeE6EEEEEEENS0_30MemoryResourceAllocationPolicyES7_E30_nn_sf_sync_CreateCacheStorageENS0_3OutIlvEENSK_IivEEtll
 00000000:0000007100060D20       _ZN2nn2sf4cmif6client6detail13CmifProxyImplINS_2am7service21IApplicationFunctionsENS2_15CmifDomainProxyINS0_4hipc6client38Hipc2ClientSessionManagedProxyKindBaseINSA_18Hipc2ProxyKindBaseILNS9_6detail11MessageTypeE6EEEEEEENS0_30MemoryResourceAllocationPolicyES7_E54_nn_sf_sync_BeginBlockingHomeButtonShortAndLongPressedEl
 00000000:0000007100060D40       _ZN2nn2sf4cmif6client6detail13CmifProxyImplINS_2am7service21IApplicationFunctionsENS2_15CmifDomainProxyINS0_4hipc6client38Hipc2ClientSessionManagedProxyKindBaseINSA_18Hipc2ProxyKindBaseILNS9_6detail11MessageTypeE6EEEEEEENS0_30MemoryResourceAllocationPolicyES7_E52_nn_sf_sync_EndBlockingHomeButtonShortAndLongPressedEv
 00000000:0000007100060D60       _ZN2nn2sf4cmif6client6detail13CmifProxyImplINS_2am7service21IApplicationFunctionsENS2_15CmifDomainProxyINS0_4hipc6client38Hipc2ClientSessionManagedProxyKindBaseINSA_18Hipc2ProxyKindBaseILNS9_6detail11MessageTypeE6EEEEEEENS0_30MemoryResourceAllocationPolicyES7_E35_nn_sf_sync_BeginBlockingHomeButtonEl
 00000000:0000007100060D80       _ZN2nn2sf4cmif6client6detail13CmifProxyImplINS_2am7service21IApplicationFunctionsENS2_15CmifDomainProxyINS0_4hipc6client38Hipc2ClientSessionManagedProxyKindBaseINSA_18Hipc2ProxyKindBaseILNS9_6detail11MessageTypeE6EEEEEEENS0_30MemoryResourceAllocationPolicyES7_E33_nn_sf_sync_EndBlockingHomeButtonEv
 00000000:0000007100060DA0       _ZN2nn2sf4cmif6client6detail13CmifProxyImplINS_2am7service21IApplicationFunctionsENS2_15CmifDomainProxyINS0_4hipc6client38Hipc2ClientSessionManagedProxyKindBaseINSA_18Hipc2ProxyKindBaseILNS9_6detail11MessageTypeE6EEEEEEENS0_30MemoryResourceAllocationPolicyES7_E25_nn_sf_sync_NotifyRunningENS0_3OutIbvEE
 00000000:0000007100060DC0       _ZN2nn2sf4cmif6client6detail13CmifProxyImplINS_2am7service21IApplicationFunctionsENS2_15CmifDomainProxyINS0_4hipc6client38Hipc2ClientSessionManagedProxyKindBaseINSA_18Hipc2ProxyKindBaseILNS9_6detail11MessageTypeE6EEEEEEENS0_30MemoryResourceAllocationPolicyES7_E29_nn_sf_sync_GetPseudoDeviceIdENS0_3OutINS_4util4UuidEvEE
 00000000:0000007100060DE0       _ZN2nn2sf4cmif6client6detail13CmifProxyImplINS_2am7service21IApplicationFunctionsENS2_15CmifDomainProxyINS0_4hipc6client38Hipc2ClientSessionManagedProxyKindBaseINSA_18Hipc2ProxyKindBaseILNS9_6detail11MessageTypeE6EEEEEEENS0_30MemoryResourceAllocationPolicyES7_E47_nn_sf_sync_SetMediaPlaybackStateForApplicationEb
 00000000:0000007100060E10       _ZN2nn2sf4cmif6client6detail13CmifProxyImplINS_2am7service21IApplicationFunctionsENS2_15CmifDomainProxyINS0_4hipc6client38Hipc2ClientSessionManagedProxyKindBaseINSA_18Hipc2ProxyKindBaseILNS9_6detail11MessageTypeE6EEEEEEENS0_30MemoryResourceAllocationPolicyES7_E40_nn_sf_sync_IsGamePlayRecordingSupportedENS0_3OutIbvEE
 00000000:0000007100060E30       _ZN2nn2sf4cmif6client6detail13CmifProxyImplINS_2am7service21IApplicationFunctionsENS2_15CmifDomainProxyINS0_4hipc6client38Hipc2ClientSessionManagedProxyKindBaseINSA_18Hipc2ProxyKindBaseILNS9_6detail11MessageTypeE6EEEEEEENS0_30MemoryResourceAllocationPolicyES7_E39_nn_sf_sync_InitializeGamePlayRecordingEONS0_12NativeHandleEm
 00000000:0000007100060E50       _ZN2nn2sf4cmif6client6detail13CmifProxyImplINS_2am7service21IApplicationFunctionsENS2_15CmifDomainProxyINS0_4hipc6client38Hipc2ClientSessionManagedProxyKindBaseINSA_18Hipc2ProxyKindBaseILNS9_6detail11MessageTypeE6EEEEEEENS0_30MemoryResourceAllocationPolicyES7_E37_nn_sf_sync_SetGamePlayRecordingStateEi
 00000000:0000007100060E80       _ZN2nn2sf4cmif6client6detail13CmifProxyImplINS_2am7service21IApplicationFunctionsENS2_15CmifDomainProxyINS0_4hipc6client38Hipc2ClientSessionManagedProxyKindBaseINSA_18Hipc2ProxyKindBaseILNS9_6detail11MessageTypeE6EEEEEEENS0_30MemoryResourceAllocationPolicyES7_E48_nn_sf_sync_RequestFlushGamePlayingMovieForDebugEv
 00000000:0000007100060EA0       _ZN2nn2sf4cmif6client6detail13CmifProxyImplINS_2am7service21IApplicationFunctionsENS2_15CmifDomainProxyINS0_4hipc6client38Hipc2ClientSessionManagedProxyKindBaseINSA_18Hipc2ProxyKindBaseILNS9_6detail11MessageTypeE6EEEEEEENS0_30MemoryResourceAllocationPolicyES7_E29_nn_sf_sync_RequestToShutdownEv
 00000000:0000007100060EC0       _ZN2nn2sf4cmif6client6detail13CmifProxyImplINS_2am7service21IApplicationFunctionsENS2_15CmifDomainProxyINS0_4hipc6client38Hipc2ClientSessionManagedProxyKindBaseINSA_18Hipc2ProxyKindBaseILNS9_6detail11MessageTypeE6EEEEEEENS0_30MemoryResourceAllocationPolicyES7_E27_nn_sf_sync_RequestToRebootEv
 00000000:0000007100060EE0       _ZN2nn2sf4cmif6client6detail13CmifProxyImplINS_2am7service21IApplicationFunctionsENS2_15CmifDomainProxyINS0_4hipc6client38Hipc2ClientSessionManagedProxyKindBaseINSA_18Hipc2ProxyKindBaseILNS9_6detail11MessageTypeE6EEEEEEENS0_30MemoryResourceAllocationPolicyES7_E34_nn_sf_sync_ExitAndGoBackQuestMenuEv
 00000000:0000007100060F00       _ZN2nn2sf4cmif6client6detail13CmifProxyImplINS_2am7service21IApplicationFunctionsENS2_15CmifDomainProxyINS0_4hipc6client38Hipc2ClientSessionManagedProxyKindBaseINSA_18Hipc2ProxyKindBaseILNS9_6detail11MessageTypeE6EEEEEEENS0_30MemoryResourceAllocationPolicyES7_E40_nn_sf_sync_EnableApplicationCrashReportEb
 00000000:0000007100060F30       _ZN2nn2sf4cmif6client6detail13CmifProxyImplINS_2am7service21IApplicationFunctionsENS2_15CmifDomainProxyINS0_4hipc6client38Hipc2ClientSessionManagedProxyKindBaseINSA_18Hipc2ProxyKindBaseILNS9_6detail11MessageTypeE6EEEEEEENS0_30MemoryResourceAllocationPolicyES7_E53_nn_sf_sync_InitializeApplicationCopyrightFrameBufferEONS0_12NativeHandleEmii
 00000000:0000007100060F60       _ZN2nn2sf4cmif6client6detail13CmifProxyImplINS_2am7service21IApplicationFunctionsENS2_15CmifDomainProxyINS0_4hipc6client38Hipc2ClientSessionManagedProxyKindBaseINSA_18Hipc2ProxyKindBaseILNS9_6detail11MessageTypeE6EEEEEEENS0_30MemoryResourceAllocationPolicyES7_E40_nn_sf_sync_SetApplicationCopyrightImageERKNS0_8InBufferEiiiii
 00000000:0000007100060FC0       _ZN2nn2sf4cmif6client6detail13CmifProxyImplINS_2am7service21IApplicationFunctionsENS2_15CmifDomainProxyINS0_4hipc6client38Hipc2ClientSessionManagedProxyKindBaseINSA_18Hipc2ProxyKindBaseILNS9_6detail11MessageTypeE6EEEEEEENS0_30MemoryResourceAllocationPolicyES7_E45_nn_sf_sync_SetApplicationCopyrightVisibilityEb
 00000000:0000007100060FF0       _ZN2nn2sf4cmif6client6detail13CmifProxyImplINS_2am7service21IApplicationFunctionsENS2_15CmifDomainProxyINS0_4hipc6client38Hipc2ClientSessionManagedProxyKindBaseINSA_18Hipc2ProxyKindBaseILNS9_6detail11MessageTypeE6EEEEEEENS0_30MemoryResourceAllocationPolicyES7_E42_nn_sf_sync_QueryApplicationPlayStatisticsENS0_3OutIivEERKNS0_8OutArrayINS_3pdm25ApplicationPlayStatisticsEEERKNS0_7InArrayINS_3ncm13ApplicationIdEEE
 00000000:0000007100061030       _ZN2nn2sf4cmif6client6detail13CmifProxyImplINS_2am7service21IApplicationFunctionsENS2_15CmifDomainProxyINS0_4hipc6client38Hipc2ClientSessionManagedProxyKindBaseINSA_18Hipc2ProxyKindBaseILNS9_6detail11MessageTypeE6EEEEEEENS0_30MemoryResourceAllocationPolicyES7_E47_nn_sf_sync_QueryApplicationPlayStatisticsByUidENS0_3OutIivEERKNS0_8OutArrayINS_3pdm25ApplicationPlayStatisticsEEERKNS_7account3UidERKNS0_7InArrayINS_3ncm13ApplicationIdEEE
 00000000:0000007100061070       _ZN2nn2sf4cmif6client6detail13CmifProxyImplINS_2am7service21IApplicationFunctionsENS2_15CmifDomainProxyINS0_4hipc6client38Hipc2ClientSessionManagedProxyKindBaseINSA_18Hipc2ProxyKindBaseILNS9_6detail11MessageTypeE6EEEEEEENS0_30MemoryResourceAllocationPolicyES7_E26_nn_sf_sync_ExecuteProgramENS6_18ProgramSpecifyKindEm
 00000000:00000071000610A0       _ZN2nn2sf4cmif6client6detail13CmifProxyImplINS_2am7service21IApplicationFunctionsENS2_15CmifDomainProxyINS0_4hipc6client38Hipc2ClientSessionManagedProxyKindBaseINSA_18Hipc2ProxyKindBaseILNS9_6detail11MessageTypeE6EEEEEEENS0_30MemoryResourceAllocationPolicyES7_E28_nn_sf_sync_ClearUserChannelEv
 00000000:00000071000610C0       _ZN2nn2sf4cmif6client6detail13CmifProxyImplINS_2am7service21IApplicationFunctionsENS2_15CmifDomainProxyINS0_4hipc6client38Hipc2ClientSessionManagedProxyKindBaseINSA_18Hipc2ProxyKindBaseILNS9_6detail11MessageTypeE6EEEEEEENS0_30MemoryResourceAllocationPolicyES7_E30_nn_sf_sync_UnpopToUserChannelENS0_13SharedPointerINS6_8IStorageEEE
 00000000:0000007100061110       _ZN2nn2sf4cmif6client6detail13CmifProxyImplINS_2am7service21IApplicationFunctionsENS2_15CmifDomainProxyINS0_4hipc6client38Hipc2ClientSessionManagedProxyKindBaseINSA_18Hipc2ProxyKindBaseILNS9_6detail11MessageTypeE6EEEEEEENS0_30MemoryResourceAllocationPolicyES7_E35_nn_sf_sync_GetPreviousProgramIndexENS0_3OutIivEE
 00000000:0000007100061130       _ZN2nn2sf4cmif6client6detail13CmifProxyImplINS_2am7service21IApplicationFunctionsENS2_15CmifDomainProxyINS0_4hipc6client38Hipc2ClientSessionManagedProxyKindBaseINSA_18Hipc2ProxyKindBaseILNS9_6detail11MessageTypeE6EEEEEEENS0_30MemoryResourceAllocationPolicyES7_E49_nn_sf_sync_EnableApplicationAllThreadDumpOnCrashEb
 00000000:0000007100061160       _ZN2nn2sf4cmif6client6detail13CmifProxyImplINS_2am7service21IApplicationFunctionsENS2_15CmifDomainProxyINS0_4hipc6client38Hipc2ClientSessionManagedProxyKindBaseINSA_18Hipc2ProxyKindBaseILNS9_6detail11MessageTypeE6EEEEEEENS0_30MemoryResourceAllocationPolicyES7_E49_nn_sf_sync_StartContinuousRecordingFlushForDebugENS0_3OutINS0_12NativeHandleEvEEl
 00000000:0000007100061180       _ZN2nn2sf4cmif6client6detail13CmifProxyImplINS_2am7service21IApplicationFunctionsENS2_15CmifDomainProxyINS0_4hipc6client38Hipc2ClientSessionManagedProxyKindBaseINSA_18Hipc2ProxyKindBaseILNS9_6detail11MessageTypeE6EEEEEEENS0_30MemoryResourceAllocationPolicyES7_E28_nn_sf_sync_CreateMovieMakerENS0_3OutINS0_13SharedPointerINS6_11IMovieMakerEEEvEEONS0_12NativeHandleEm
 00000000:0000007100061230       _ZN2nn2sf4cmif6client6detail13CmifProxyImplINS_2am7service21IApplicationFunctionsENS2_15CmifDomainProxyINS0_4hipc6client38Hipc2ClientSessionManagedProxyKindBaseINSA_18Hipc2ProxyKindBaseILNS9_6detail11MessageTypeE6EEEEEEENS0_30MemoryResourceAllocationPolicyES7_E25_nn_sf_sync_PrepareForJitEv
 00000000:0000007100061250       _ZN2nn2sf4cmif6client6detail13CmifProxyImplINS_2am7service21IApplicationFunctionsENS2_15CmifDomainProxyINS0_4hipc6client38Hipc2ClientSessionManagedProxyKindBaseINSA_18Hipc2ProxyKindBaseILNS9_6detail11MessageTypeE6EEEEEEENS0_30MemoryResourceAllocationPolicyES7_E17GetCmifBaseObjectEv
 00000000:0000007100061260       _ZThn32_N2nn2sf4cmif6client6detail13CmifProxyImplINS_2am7service21IApplicationFunctionsENS2_15CmifDomainProxyINS0_4hipc6client38Hipc2ClientSessionManagedProxyKindBaseINSA_18Hipc2ProxyKindBaseILNS9_6detail11MessageTypeE6EEEEEEENS0_30MemoryResourceAllocationPolicyES7_E17GetCmifBaseObjectEv
 00000000:0000007100061270       _ZN2nn2sf4cmif6client34CmifDomainProxyClientCoreProcessorINS0_4hipc6client38Hipc2ClientSessionManagedProxyKindBaseINS5_18Hipc2ProxyKindBaseILNS4_6detail11MessageTypeE6EEEEENS1_6detail14CoreMethodInfoINSt3__15tupleIJNSC_17InRawArgumentInfoILm8ELm8ELl8EEENSC_20InObjectArgumentInfoILi0ELi0EEENSG_ILm4ELm4ELl0EEENSG_ILm4ELm4ELl4EEEEEELm16ELm0ELb0EEESM_E7ProcessEPNS2_23CmifDomainClientMessageISB_E15ProxyBaseObjectENS2_23InRawClientArgumentTypeILm8ELm8EvEENS2_26InObjectClientArgumentTypeENST_ILm4ELm4EvEESW_j
 00000000:00000071000613F0       _ZN2nn2sf4cmif6client34CmifDomainProxyClientCoreProcessorINS0_4hipc6client38Hipc2ClientSessionManagedProxyKindBaseINS5_18Hipc2ProxyKindBaseILNS4_6detail11MessageTypeE6EEEEENS1_6detail14CoreMethodInfoINSt3__15tupleIJNSC_17InRawArgumentInfoILm8ELm8ELl8EEENSG_ILm4ELm4ELl0EEENSG_ILm4ELm4ELl4EEEEEELm16ELm0ELb0EEESK_E7ProcessEPNS2_23CmifDomainClientMessageISB_E15ProxyBaseObjectENS2_23InRawClientArgumentTypeILm8ELm8EvEENSR_ILm4ELm4EvEEST_j
 00000000:0000007100061550       _ZN2nn2sf4cmif6client34CmifDomainProxyClientCoreProcessorINS0_4hipc6client38Hipc2ClientSessionManagedProxyKindBaseINS5_18Hipc2ProxyKindBaseILNS4_6detail11MessageTypeE6EEEEENS1_6detail14CoreMethodInfoINSt3__15tupleIJNSC_18OutRawArgumentInfoILm1ELm1ELl0EEENSG_ILm1ELm1ELl1EEEEEELm0ELm2ELb0EEESJ_E7ProcessEPNS2_23CmifDomainClientMessageISB_E15ProxyBaseObjectENS2_24OutRawClientArgumentTypeILm1ELm1EEESR_j
 00000000:00000071000616B0       _ZN2nn2sf4cmif6client34CmifDomainProxyClientCoreProcessorINS0_4hipc6client38Hipc2ClientSessionManagedProxyKindBaseINS5_18Hipc2ProxyKindBaseILNS4_6detail11MessageTypeE6EEEEENS1_6detail14CoreMethodInfoINSt3__15tupleIJNSC_18OutRawArgumentInfoILm8ELm8ELl0EEENSC_17InRawArgumentInfoILm1ELm1ELl0EEENSI_ILm16ELm8ELl8EEENSI_ILm8ELm8ELl24EEENSI_ILm8ELm8ELl32EEEEEELm40ELm8ELb0EEESN_E7ProcessEPNS2_23CmifDomainClientMessageISB_E15ProxyBaseObjectENS2_24OutRawClientArgumentTypeILm8ELm8EEENS2_23InRawClientArgumentTypeILm1ELm1EvEENSW_ILm16ELm8EvEENSW_ILm8ELm8EvEESZ_j
 00000000:0000007100061840       _ZN2nn2sf4cmif6client34CmifDomainProxyClientCoreProcessorINS0_4hipc6client38Hipc2ClientSessionManagedProxyKindBaseINS5_18Hipc2ProxyKindBaseILNS4_6detail11MessageTypeE6EEEEENS1_6detail14CoreMethodInfoINSt3__15tupleIJNSC_18OutRawArgumentInfoILm8ELm8ELl0EEENSG_ILm8ELm8ELl8EEENSC_17InRawArgumentInfoILm1ELm1ELl0EEENSJ_ILm16ELm8ELl8EEEEEELm24ELm16ELb0EEESM_E7ProcessEPNS2_23CmifDomainClientMessageISB_E15ProxyBaseObjectENS2_24OutRawClientArgumentTypeILm8ELm8EEESU_NS2_23InRawClientArgumentTypeILm1ELm1EvEENSV_ILm16ELm8EvEEj
 00000000:00000071000619D0       _ZN2nn2sf4cmif6client34CmifDomainProxyClientCoreProcessorINS0_4hipc6client38Hipc2ClientSessionManagedProxyKindBaseINS5_18Hipc2ProxyKindBaseILNS4_6detail11MessageTypeE6EEEEENS1_6detail14CoreMethodInfoINSt3__15tupleIJNSC_18OutRawArgumentInfoILm8ELm8ELl8EEENSG_ILm4ELm4ELl0EEENSC_17InRawArgumentInfoILm2ELm2ELl0EEENSJ_ILm8ELm8ELl8EEENSJ_ILm8ELm8ELl16EEEEEELm24ELm16ELb0EEESN_E7ProcessEPNS2_23CmifDomainClientMessageISB_E15ProxyBaseObjectENS2_24OutRawClientArgumentTypeILm8ELm8EEENSU_ILm4ELm4EEENS2_23InRawClientArgumentTypeILm2ELm2EvEENSX_ILm8ELm8EvEESZ_j
 00000000:0000007100061B50       _ZN2nn2sf4cmif6client34CmifDomainProxyClientCoreProcessorINS0_4hipc6client38Hipc2ClientSessionManagedProxyKindBaseINS5_18Hipc2ProxyKindBaseILNS4_6detail11MessageTypeE6EEEEENS1_6detail14CoreMethodInfoINSt3__15tupleIJNSC_20InHandleArgumentInfoILi0ELi1EEENSC_17InRawArgumentInfoILm8ELm8ELl0EEEEEELm8ELm0ELb0EEESK_E7ProcessEPNS2_23CmifDomainClientMessageISB_E15ProxyBaseObjectENS2_26InHandleClientArgumentTypeENS2_23InRawClientArgumentTypeILm8ELm8EvEEj
 00000000:0000007100061CC0       _ZN2nn2sf4cmif6client34CmifDomainProxyClientCoreProcessorINS0_4hipc6client38Hipc2ClientSessionManagedProxyKindBaseINS5_18Hipc2ProxyKindBaseILNS4_6detail11MessageTypeE6EEEEENS1_6detail14CoreMethodInfoINSt3__15tupleIJNSC_20InHandleArgumentInfoILi0ELi1EEENSC_17InRawArgumentInfoILm8ELm8ELl8EEENSI_ILm4ELm4ELl0EEENSI_ILm4ELm4ELl4EEEEEELm16ELm0ELb0EEESM_E7ProcessEPNS2_23CmifDomainClientMessageISB_E15ProxyBaseObjectENS2_26InHandleClientArgumentTypeENS2_23InRawClientArgumentTypeILm8ELm8EvEENSU_ILm4ELm4EvEESW_j
 00000000:0000007100061E50       _ZN2nn2sf4cmif6client34CmifDomainProxyClientCoreProcessorINS0_4hipc6client38Hipc2ClientSessionManagedProxyKindBaseINS5_18Hipc2ProxyKindBaseILNS4_6detail11MessageTypeE6EEEEENS1_6detail14CoreMethodInfoINSt3__15tupleIJNSC_18BufferArgumentInfoILi0ELi69ELm0EEENSC_17InRawArgumentInfoILm4ELm4ELl0EEENSI_ILm4ELm4ELl4EEENSI_ILm4ELm4ELl8EEENSI_ILm4ELm4ELl12EEENSI_ILm4ELm4ELl16EEEEEELm20ELm0ELb0EEESO_E7ProcessEPNS2_23CmifDomainClientMessageISB_E15ProxyBaseObjectENS2_24BufferClientArgumentTypeENS2_23InRawClientArgumentTypeILm4ELm4EvEESX_SX_SX_SX_j
 00000000:0000007100062080       _ZN2nn2sf4cmif6client34CmifDomainProxyClientCoreProcessorINS0_4hipc6client38Hipc2ClientSessionManagedProxyKindBaseINS5_18Hipc2ProxyKindBaseILNS4_6detail11MessageTypeE6EEEEENS1_6detail14CoreMethodInfoINSt3__15tupleIJNSC_18OutRawArgumentInfoILm4ELm4ELl0EEENSC_18BufferArgumentInfoILi0ELi6ELm0EEENSI_ILi1ELi5ELm0EEEEEELm0ELm4ELb0EEESL_E7ProcessEPNS2_23CmifDomainClientMessageISB_E15ProxyBaseObjectENS2_24OutRawClientArgumentTypeILm4ELm4EEENS2_24BufferClientArgumentTypeESU_j
 00000000:0000007100062280       _ZN2nn2sf4cmif6client34CmifDomainProxyClientCoreProcessorINS0_4hipc6client38Hipc2ClientSessionManagedProxyKindBaseINS5_18Hipc2ProxyKindBaseILNS4_6detail11MessageTypeE6EEEEENS1_6detail14CoreMethodInfoINSt3__15tupleIJNSC_18OutRawArgumentInfoILm4ELm4ELl0EEENSC_18BufferArgumentInfoILi0ELi6ELm0EEENSC_17InRawArgumentInfoILm16ELm8ELl0EEENSI_ILi1ELi5ELm0EEEEEELm16ELm4ELb0EEESN_E7ProcessEPNS2_23CmifDomainClientMessageISB_E15ProxyBaseObjectENS2_24OutRawClientArgumentTypeILm4ELm4EEENS2_24BufferClientArgumentTypeENS2_23InRawClientArgumentTypeILm16ELm8EvEESW_j
 00000000:00000071000624A0       _ZN2nn2sf4cmif6client34CmifDomainProxyClientCoreProcessorINS0_4hipc6client38Hipc2ClientSessionManagedProxyKindBaseINS5_18Hipc2ProxyKindBaseILNS4_6detail11MessageTypeE6EEEEENS1_6detail14CoreMethodInfoINSt3__15tupleIJNSC_21OutHandleArgumentInfoILi0ELi1EEENSC_17InRawArgumentInfoILm8ELm8ELl0EEEEEELm8ELm0ELb0EEESK_E7ProcessEPNS2_23CmifDomainClientMessageISB_E15ProxyBaseObjectENS2_27OutHandleClientArgumentTypeENS2_23InRawClientArgumentTypeILm8ELm8EvEEj
 00000000:0000007100062620       _ZN2nn2sf4cmif6client32GetClientProcessorWithObjectBaseINS2_15CmifDomainProxyINS0_4hipc6client38Hipc2ClientSessionManagedProxyKindBaseINS6_18Hipc2ProxyKindBaseILNS5_6detail11MessageTypeE6EEEEEEEE14ObjectAssignerINS0_30MemoryResourceAllocationPolicyENS_14MemoryResourceEE14AllocateObjectINS_2am7service11IMovieMakerEEEvi
 00000000:00000071000626D0       _ZN2nn2sf6detail38ObjectImplFactoryWithStatefulAllocatorINS0_4cmif6client16CmifProxyFactoryINS_2am7service11IMovieMakerENS4_15CmifDomainProxyINS0_4hipc6client38Hipc2ClientSessionManagedProxyKindBaseINSB_18Hipc2ProxyKindBaseILNSA_6detail11MessageTypeE6EEEEEEENS0_30MemoryResourceAllocationPolicyEE13ServiceObjectESJ_E6Object12AddReferenceEv
 00000000:00000071000626E0       _ZN2nn2sf6detail38ObjectImplFactoryWithStatefulAllocatorINS0_4cmif6client16CmifProxyFactoryINS_2am7service11IMovieMakerENS4_15CmifDomainProxyINS0_4hipc6client38Hipc2ClientSessionManagedProxyKindBaseINSB_18Hipc2ProxyKindBaseILNSA_6detail11MessageTypeE6EEEEEEENS0_30MemoryResourceAllocationPolicyEE13ServiceObjectESJ_E6Object7ReleaseEv
 00000000:0000007100062740       _ZN2nn2sf4cmif6client6detail13CmifProxyImplINS_2am7service11IMovieMakerENS2_15CmifDomainProxyINS0_4hipc6client38Hipc2ClientSessionManagedProxyKindBaseINSA_18Hipc2ProxyKindBaseILNS9_6detail11MessageTypeE6EEEEEEENS0_30MemoryResourceAllocationPolicyES7_E12GetProxyInfoEv
 00000000:0000007100062750       _ZN2nn2sf4cmif6client6detail13CmifProxyImplINS_2am7service11IMovieMakerENS2_15CmifDomainProxyINS0_4hipc6client38Hipc2ClientSessionManagedProxyKindBaseINSA_18Hipc2ProxyKindBaseILNS9_6detail11MessageTypeE6EEEEEEENS0_30MemoryResourceAllocationPolicyES7_E28_nn_sf_sync_GetGrcMovieMakerENS0_3OutINS0_13SharedPointerINS_6grcsrv11IMovieMakerEEEvEE
 00000000:00000071000627F0       _ZN2nn2sf4cmif6client6detail13CmifProxyImplINS_2am7service11IMovieMakerENS2_15CmifDomainProxyINS0_4hipc6client38Hipc2ClientSessionManagedProxyKindBaseINSA_18Hipc2ProxyKindBaseILNS9_6detail11MessageTypeE6EEEEEEENS0_30MemoryResourceAllocationPolicyES7_E26_nn_sf_sync_GetLayerHandleENS0_3OutImvEE
 00000000:0000007100062810       _ZN2nn2sf4cmif6client6detail13CmifProxyImplINS_2am7service11IMovieMakerENS2_15CmifDomainProxyINS0_4hipc6client38Hipc2ClientSessionManagedProxyKindBaseINSA_18Hipc2ProxyKindBaseILNS9_6detail11MessageTypeE6EEEEEEENS0_30MemoryResourceAllocationPolicyES7_E17GetCmifBaseObjectEv
 00000000:0000007100062820       _ZThn32_N2nn2sf4cmif6client6detail13CmifProxyImplINS_2am7service11IMovieMakerENS2_15CmifDomainProxyINS0_4hipc6client38Hipc2ClientSessionManagedProxyKindBaseINSA_18Hipc2ProxyKindBaseILNS9_6detail11MessageTypeE6EEEEEEENS0_30MemoryResourceAllocationPolicyES7_E17GetCmifBaseObjectEv
 00000000:0000007100062830       _ZN2nn2sf4cmif6client32GetClientProcessorWithObjectBaseINS2_15CmifDomainProxyINS0_4hipc6client38Hipc2ClientSessionManagedProxyKindBaseINS6_18Hipc2ProxyKindBaseILNS5_6detail11MessageTypeE6EEEEEEEE14ObjectAssignerINS0_30MemoryResourceAllocationPolicyENS_14MemoryResourceEE14AllocateObjectINS_6grcsrv11IMovieMakerEEEvi
 00000000:00000071000628E0       _ZN2nn2sf6detail38ObjectImplFactoryWithStatefulAllocatorINS0_4cmif6client16CmifProxyFactoryINS_6grcsrv11IMovieMakerENS4_15CmifDomainProxyINS0_4hipc6client38Hipc2ClientSessionManagedProxyKindBaseINSA_18Hipc2ProxyKindBaseILNS9_6detail11MessageTypeE6EEEEEEENS0_30MemoryResourceAllocationPolicyEE13ServiceObjectESI_E6Object12AddReferenceEv
